---
triple:          'arm64-apple-darwin'
binary-path:     lc721_2
relocations:
  - { offsetInCU: 0x5C, offset: 0x5C, size: 0x8, addend: 0x0, symName: __ZNSt3__1L19piecewise_constructE, symObjAddr: 0x1AACE, symBinAddr: 0x10001EF08, symSize: 0x0 }
  - { offsetInCU: 0x369D, offset: 0x369D, size: 0x8, addend: 0x0, symName: __ZNSt3__16chronomiB7v160006IxNS_5ratioILl1ELl1000000000EEExS3_EENS_11common_typeIJNS0_8durationIT_T0_EENS5_IT1_T2_EEEE4typeERKS8_RKSB_, symObjAddr: 0x1933C, symBinAddr: 0x10001D4D0, symSize: 0x70 }
  - { offsetInCU: 0x394D, offset: 0x394D, size: 0x8, addend: 0x0, symName: __ZNSt3__16chronomiB7v160006INS0_12steady_clockENS0_8durationIxNS_5ratioILl1ELl1000000000EEEEES6_EENS_11common_typeIJT0_T1_EE4typeERKNS0_10time_pointIT_S8_EERKNSC_ISD_S9_EE, symObjAddr: 0x4DA4, symBinAddr: 0x100008F38, symSize: 0x58 }
  - { offsetInCU: 0x3A96, offset: 0x3A96, size: 0x8, addend: 0x0, symName: __ZNSt3__16chrono13duration_castB7v160006INS0_8durationIdNS_5ratioILl1ELl1EEEEExNS3_ILl1ELl1000000000EEEEENS_9enable_ifIXsr13__is_durationIT_EE5valueES8_E4typeERKNS2_IT0_T1_EE, symObjAddr: 0x19490, symBinAddr: 0x10001D624, symSize: 0x30 }
  - { offsetInCU: 0x3B70, offset: 0x3B70, size: 0x8, addend: 0x0, symName: __ZNSt3__111__introsortINS_17_ClassicAlgPolicyERNS_6__lessINS_12basic_stringIcNS_11char_traitsIcEENS_9allocatorIcEEEES8_EEPS8_EEvT1_SC_T0_NS_15iterator_traitsISC_E15difference_typeE, symObjAddr: 0x5118, symBinAddr: 0x1000092AC, symSize: 0x6D0 }
  - { offsetInCU: 0x3E96, offset: 0x3E96, size: 0x8, addend: 0x0, symName: __ZNSt3__118__insertion_sort_3B7v160006INS_17_ClassicAlgPolicyERNS_6__lessINS_12basic_stringIcNS_11char_traitsIcEENS_9allocatorIcEEEES8_EEPS8_EEvT1_SC_T0_, symObjAddr: 0x596C, symBinAddr: 0x100009B00, symSize: 0x17C }
  - { offsetInCU: 0x3F59, offset: 0x3F59, size: 0x8, addend: 0x0, symName: __ZNSt3__111__sift_downB7v160006INS_17_ClassicAlgPolicyERNS_6__lessINS_12basic_stringIcNS_11char_traitsIcEENS_9allocatorIcEEEES8_EEPS8_EEvT1_OT0_NS_15iterator_traitsISC_E15difference_typeESC_, symObjAddr: 0x7238, symBinAddr: 0x10000B3CC, symSize: 0x254 }
  - { offsetInCU: 0x4006, offset: 0x4006, size: 0x8, addend: 0x0, symName: __ZNSt3__117__floyd_sift_downB7v160006INS_17_ClassicAlgPolicyERNS_6__lessINS_12basic_stringIcNS_11char_traitsIcEENS_9allocatorIcEEEES8_EEPS8_EET1_SC_OT0_NS_15iterator_traitsISC_E15difference_typeE, symObjAddr: 0x7654, symBinAddr: 0x10000B7E8, symSize: 0x108 }
  - { offsetInCU: 0x409E, offset: 0x409E, size: 0x8, addend: 0x0, symName: __ZNSt3__127__insertion_sort_incompleteIRNS_6__lessINS_12basic_stringIcNS_11char_traitsIcEENS_9allocatorIcEEEES7_EEPS7_EEbT0_SB_T_, symObjAddr: 0x5D14, symBinAddr: 0x100009EA8, symSize: 0x36C }
  - { offsetInCU: 0x4195, offset: 0x4195, size: 0x8, addend: 0x0, symName: '__ZNSt3__111__introsortINS_17_ClassicAlgPolicyERZ17normalizeAccountsRNS_6vectorINS2_INS_12basic_stringIcNS_11char_traitsIcEENS_9allocatorIcEEEENS6_IS8_EEEENS6_ISA_EEEEE3$_0PSA_EEvT1_SH_T0_NS_15iterator_traitsISH_E15difference_typeE', symObjAddr: 0x7CC4, symBinAddr: 0x10000BE58, symSize: 0x6D0 }
  - { offsetInCU: 0x5D5C, offset: 0x5D5C, size: 0x8, addend: 0x0, symName: '__ZNSt3__118__insertion_sort_3B7v160006INS_17_ClassicAlgPolicyERZ17normalizeAccountsRNS_6vectorINS2_INS_12basic_stringIcNS_11char_traitsIcEENS_9allocatorIcEEEENS6_IS8_EEEENS6_ISA_EEEEE3$_0PSA_EEvT1_SH_T0_', symObjAddr: 0x8580, symBinAddr: 0x10000C714, symSize: 0x188 }
  - { offsetInCU: 0x5E1F, offset: 0x5E1F, size: 0x8, addend: 0x0, symName: '__ZNSt3__111__sift_downB7v160006INS_17_ClassicAlgPolicyERZ17normalizeAccountsRNS_6vectorINS2_INS_12basic_stringIcNS_11char_traitsIcEENS_9allocatorIcEEEENS6_IS8_EEEENS6_ISA_EEEEE3$_0PSA_EEvT1_OT0_NS_15iterator_traitsISH_E15difference_typeESH_', symObjAddr: 0x9EB4, symBinAddr: 0x10000E048, symSize: 0x26C }
  - { offsetInCU: 0x5ECC, offset: 0x5ECC, size: 0x8, addend: 0x0, symName: '__ZNSt3__117__floyd_sift_downB7v160006INS_17_ClassicAlgPolicyERZ17normalizeAccountsRNS_6vectorINS2_INS_12basic_stringIcNS_11char_traitsIcEENS_9allocatorIcEEEENS6_IS8_EEEENS6_ISA_EEEEE3$_0PSA_EET1_SH_OT0_NS_15iterator_traitsISH_E15difference_typeE', symObjAddr: 0xA2E8, symBinAddr: 0x10000E47C, symSize: 0x108 }
  - { offsetInCU: 0x5F64, offset: 0x5F64, size: 0x8, addend: 0x0, symName: '__ZNSt3__127__insertion_sort_incompleteIRZ17normalizeAccountsRNS_6vectorINS1_INS_12basic_stringIcNS_11char_traitsIcEENS_9allocatorIcEEEENS5_IS7_EEEENS5_IS9_EEEEE3$_0PS9_EEbT0_SG_T_', symObjAddr: 0x8934, symBinAddr: 0x10000CAC8, symSize: 0x378 }
  - { offsetInCU: 0xBE89, offset: 0xBE89, size: 0x8, addend: 0x0, symName: __ZNSt3__17advanceB7v160006IPNS_12basic_stringIcNS_11char_traitsIcEENS_9allocatorIcEEEEllvEEvRT_T0_, symObjAddr: 0xFBF4, symBinAddr: 0x100013D88, symSize: 0x50 }
  - { offsetInCU: 0xC109, offset: 0xC109, size: 0x8, addend: 0x0, symName: __ZNSt3__17advanceB7v160006INS_16reverse_iteratorIPNS_12basic_stringIcNS_11char_traitsIcEENS_9allocatorIcEEEEEEllvEEvRT_T0_, symObjAddr: 0xFFF4, symBinAddr: 0x100014188, symSize: 0x50 }
  - { offsetInCU: 0xC6E1, offset: 0xC6E1, size: 0x8, addend: 0x0, symName: __ZNSt3__17advanceB7v160006IP13nameANDemailsllvEEvRT_T0_, symObjAddr: 0x11E1C, symBinAddr: 0x100015FB0, symSize: 0x50 }
  - { offsetInCU: 0xC961, offset: 0xC961, size: 0x8, addend: 0x0, symName: __ZNSt3__17advanceB7v160006INS_16reverse_iteratorIP13nameANDemailsEEllvEEvRT_T0_, symObjAddr: 0x12278, symBinAddr: 0x10001640C, symSize: 0x50 }
  - { offsetInCU: 0x10575, offset: 0x10575, size: 0x8, addend: 0x0, symName: __ZNSt3__17advanceB7v160006IPNS_6vectorINS_12basic_stringIcNS_11char_traitsIcEENS_9allocatorIcEEEENS5_IS7_EEEEllvEEvRT_T0_, symObjAddr: 0x16E6C, symBinAddr: 0x10001B000, symSize: 0x50 }
  - { offsetInCU: 0x107F5, offset: 0x107F5, size: 0x8, addend: 0x0, symName: __ZNSt3__17advanceB7v160006INS_16reverse_iteratorIPNS_6vectorINS_12basic_stringIcNS_11char_traitsIcEENS_9allocatorIcEEEENS6_IS8_EEEEEEllvEEvRT_T0_, symObjAddr: 0x172C8, symBinAddr: 0x10001B45C, symSize: 0x50 }
  - { offsetInCU: 0x10B2D, offset: 0x10B2D, size: 0x8, addend: 0x0, symName: __ZNSt3__124__put_character_sequenceB7v160006IcNS_11char_traitsIcEEEERNS_13basic_ostreamIT_T0_EES7_PKS4_m, symObjAddr: 0x19574, symBinAddr: 0x10001D708, symSize: 0x1EC }
  - { offsetInCU: 0x12DBE, offset: 0x12DBE, size: 0x8, addend: 0x0, symName: __ZNSt3__1neB7v160006IPNS_6vectorINS_12basic_stringIcNS_11char_traitsIcEENS_9allocatorIcEEEENS5_IS7_EEEEEEbRKNS_11__wrap_iterIT_EESF_, symObjAddr: 0x12C, symBinAddr: 0x1000042C0, symSize: 0x34 }
  - { offsetInCU: 0x12E01, offset: 0x12E01, size: 0x8, addend: 0x0, symName: __ZNSt3__14sortB7v160006INS_11__wrap_iterIPNS_12basic_stringIcNS_11char_traitsIcEENS_9allocatorIcEEEEEEEEvT_SA_, symObjAddr: 0x178, symBinAddr: 0x10000430C, symSize: 0x3C }
  - { offsetInCU: 0x12E43, offset: 0x12E43, size: 0x8, addend: 0x0, symName: '__ZNSt3__14sortB7v160006INS_11__wrap_iterIPNS_6vectorINS_12basic_stringIcNS_11char_traitsIcEENS_9allocatorIcEEEENS6_IS8_EEEEEEZ17normalizeAccountsRNS2_ISA_NS6_ISA_EEEEE3$_0EEvT_SH_T0_', symObjAddr: 0x270, symBinAddr: 0x100004404, symSize: 0x40 }
  - { offsetInCU: 0x12E9D, offset: 0x12E9D, size: 0x8, addend: 0x0, symName: __ZNSt3__1lsB7v160006INS_11char_traitsIcEEEERNS_13basic_ostreamIcT_EES6_PKc, symObjAddr: 0x480, symBinAddr: 0x100004614, symSize: 0x48 }
  - { offsetInCU: 0x12EE3, offset: 0x12EE3, size: 0x8, addend: 0x0, symName: __ZNSt3__1lsB7v160006IcNS_11char_traitsIcEENS_9allocatorIcEEEERNS_13basic_ostreamIT_T0_EES9_RKNS_12basic_stringIS6_S7_T1_EE, symObjAddr: 0x544, symBinAddr: 0x1000046D8, symSize: 0x4C }
  - { offsetInCU: 0x13A56, offset: 0x13A56, size: 0x8, addend: 0x0, symName: __ZNSt3__1eqB7v160006INS_6vectorINS_12basic_stringIcNS_11char_traitsIcEENS_9allocatorIcEEEENS5_IS7_EEEENS5_IS9_EEEEbRKNS1_IT_T0_EESF_, symObjAddr: 0xD74, symBinAddr: 0x100004F08, symSize: 0x9C }
  - { offsetInCU: 0x13AB4, offset: 0x13AB4, size: 0x8, addend: 0x0, symName: __ZNSt3__1plB7v160006IcNS_11char_traitsIcEENS_9allocatorIcEEEENS_12basic_stringIT_T0_T1_EEOS9_PKS6_, symObjAddr: 0x4D20, symBinAddr: 0x100008EB4, symSize: 0x40 }
  - { offsetInCU: 0x13B0C, offset: 0x13B0C, size: 0x8, addend: 0x0, symName: __ZNSt3__1plB7v160006IcNS_11char_traitsIcEENS_9allocatorIcEEEENS_12basic_stringIT_T0_T1_EEPKS6_OS9_, symObjAddr: 0x4D60, symBinAddr: 0x100008EF4, symSize: 0x44 }
  - { offsetInCU: 0x13B80, offset: 0x13B80, size: 0x8, addend: 0x0, symName: __ZNSt3__1eqB7v160006IPNS_6vectorINS_12basic_stringIcNS_11char_traitsIcEENS_9allocatorIcEEEENS5_IS7_EEEEEEbRKNS_11__wrap_iterIT_EESF_, symObjAddr: 0x4EE4, symBinAddr: 0x100009078, symSize: 0x48 }
  - { offsetInCU: 0x13BC3, offset: 0x13BC3, size: 0x8, addend: 0x0, symName: __ZNSt3__14sortB7v160006INS_11__wrap_iterIPNS_12basic_stringIcNS_11char_traitsIcEENS_9allocatorIcEEEEEENS_6__lessIS7_S7_EEEEvT_SC_T0_, symObjAddr: 0x4F44, symBinAddr: 0x1000090D8, symSize: 0x40 }
  - { offsetInCU: 0x13C1D, offset: 0x13C1D, size: 0x8, addend: 0x0, symName: __ZNSt3__111__sort_implB7v160006INS_17_ClassicAlgPolicyENS_11__wrap_iterIPNS_12basic_stringIcNS_11char_traitsIcEENS_9allocatorIcEEEEEENS_6__lessIS8_S8_EEEEvT0_SD_RT1_, symObjAddr: 0x4F84, symBinAddr: 0x100009118, symSize: 0x84 }
  - { offsetInCU: 0x13CC4, offset: 0x13CC4, size: 0x8, addend: 0x0, symName: __ZNSt3__123__debug_randomize_rangeB7v160006INS_17_ClassicAlgPolicyENS_11__wrap_iterIPNS_12basic_stringIcNS_11char_traitsIcEENS_9allocatorIcEEEEEESA_EEvT0_T1_, symObjAddr: 0x5008, symBinAddr: 0x10000919C, symSize: 0x14 }
  - { offsetInCU: 0x13D15, offset: 0x13D15, size: 0x8, addend: 0x0, symName: __ZNSt3__16__sortIRNS_6__lessINS_12basic_stringIcNS_11char_traitsIcEENS_9allocatorIcEEEES7_EEPS7_EEvT0_SB_T_, symObjAddr: 0x501C, symBinAddr: 0x1000091B0, symSize: 0x68 }
  - { offsetInCU: 0x13DA5, offset: 0x13DA5, size: 0x8, addend: 0x0, symName: __ZNSt3__113__unwrap_iterB7v160006INS_11__wrap_iterIPNS_12basic_stringIcNS_11char_traitsIcEENS_9allocatorIcEEEEEENS_18__unwrap_iter_implIS9_Lb1EEELi0EEEDTclsrT0_8__unwrapclsr3stdE7declvalIT_EEEESD_, symObjAddr: 0x5084, symBinAddr: 0x100009218, symSize: 0x2C }
  - { offsetInCU: 0x13DE9, offset: 0x13DE9, size: 0x8, addend: 0x0, symName: __ZNSt3__17__log2iB7v160006IlEET_S1_, symObjAddr: 0x50B0, symBinAddr: 0x100009244, symSize: 0x54 }
  - { offsetInCU: 0x13E8F, offset: 0x13E8F, size: 0x8, addend: 0x0, symName: __ZNSt3__112__libcpp_clzB7v160006Em, symObjAddr: 0x5800, symBinAddr: 0x100009994, symSize: 0x1C }
  - { offsetInCU: 0x13FD2, offset: 0x13FD2, size: 0x8, addend: 0x0, symName: __ZNSt3__124__sort3_maybe_branchlessB7v160006INS_17_ClassicAlgPolicyERNS_6__lessINS_12basic_stringIcNS_11char_traitsIcEENS_9allocatorIcEEEES8_EEPS8_EENS_9enable_ifIXntsr21__use_branchless_sortIT0_T1_EE5valueEvE4typeESE_SE_SE_SD_, symObjAddr: 0x58A0, symBinAddr: 0x100009A34, symSize: 0x3C }
  - { offsetInCU: 0x14043, offset: 0x14043, size: 0x8, addend: 0x0, symName: __ZNSt3__124__sort4_maybe_branchlessB7v160006INS_17_ClassicAlgPolicyERNS_6__lessINS_12basic_stringIcNS_11char_traitsIcEENS_9allocatorIcEEEES8_EEPS8_EENS_9enable_ifIXntsr21__use_branchless_sortIT0_T1_EE5valueEvE4typeESE_SE_SE_SE_SD_, symObjAddr: 0x58DC, symBinAddr: 0x100009A70, symSize: 0x44 }
  - { offsetInCU: 0x140C8, offset: 0x140C8, size: 0x8, addend: 0x0, symName: __ZNSt3__124__sort5_maybe_branchlessB7v160006INS_17_ClassicAlgPolicyERNS_6__lessINS_12basic_stringIcNS_11char_traitsIcEENS_9allocatorIcEEEES8_EEPS8_EENS_9enable_ifIXntsr21__use_branchless_sortIT0_T1_EE5valueEvE4typeESE_SE_SE_SE_SE_SD_, symObjAddr: 0x5920, symBinAddr: 0x100009AB4, symSize: 0x4C }
  - { offsetInCU: 0x1415C, offset: 0x1415C, size: 0x8, addend: 0x0, symName: __ZNSt3__114__partial_sortB7v160006INS_17_ClassicAlgPolicyERNS_6__lessINS_12basic_stringIcNS_11char_traitsIcEENS_9allocatorIcEEEES8_EEPS8_SB_EET1_SC_SC_T2_RT0_, symObjAddr: 0x5AE8, symBinAddr: 0x100009C7C, symSize: 0x94 }
  - { offsetInCU: 0x141E4, offset: 0x141E4, size: 0x8, addend: 0x0, symName: __ZNSt3__119__sort5_wrap_policyB7v160006INS_17_ClassicAlgPolicyERNS_6__lessINS_12basic_stringIcNS_11char_traitsIcEENS_9allocatorIcEEEES8_EEPS8_EEjT1_SC_SC_SC_SC_T0_, symObjAddr: 0x5B7C, symBinAddr: 0x100009D10, symSize: 0x54 }
  - { offsetInCU: 0x1428A, offset: 0x1428A, size: 0x8, addend: 0x0, symName: __ZNSt3__17__sort3B7v160006INS_17_ClassicAlgPolicyERNS_6__lessINS_12basic_stringIcNS_11char_traitsIcEENS_9allocatorIcEEEES8_EEPS8_EEjT1_SC_SC_T0_, symObjAddr: 0x5BD0, symBinAddr: 0x100009D64, symSize: 0x144 }
  - { offsetInCU: 0x1430A, offset: 0x1430A, size: 0x8, addend: 0x0, symName: __ZNSt3__1ltB7v160006ENS_15strong_orderingENS_20_CmpUnspecifiedParamE, symObjAddr: 0x6098, symBinAddr: 0x10000A22C, symSize: 0x24 }
  - { offsetInCU: 0x14342, offset: 0x14342, size: 0x8, addend: 0x0, symName: __ZNSt3__1ssB7v160006IcNS_11char_traitsIcEENS_9allocatorIcEEEEDaRKNS_12basic_stringIT_T0_T1_EESC_, symObjAddr: 0x60BC, symBinAddr: 0x10000A250, symSize: 0x5C }
  - { offsetInCU: 0x143B6, offset: 0x143B6, size: 0x8, addend: 0x0, symName: __ZNSt3__1ssB7v160006IcNS_11char_traitsIcEEEEDaNS_17basic_string_viewIT_T0_EES7_, symObjAddr: 0x614C, symBinAddr: 0x10000A2E0, symSize: 0x7C }
  - { offsetInCU: 0x14405, offset: 0x14405, size: 0x8, addend: 0x0, symName: __ZNSt3__13minB7v160006ImEERKT_S3_S3_, symObjAddr: 0x6354, symBinAddr: 0x10000A4E8, symSize: 0x2C }
  - { offsetInCU: 0x14448, offset: 0x14448, size: 0x8, addend: 0x0, symName: __ZNSt3__13minB7v160006ImNS_6__lessImmEEEERKT_S5_S5_T0_, symObjAddr: 0x6428, symBinAddr: 0x10000A5BC, symSize: 0x54 }
  - { offsetInCU: 0x144DD, offset: 0x144DD, size: 0x8, addend: 0x0, symName: __ZNSt3__118__constexpr_memcmpB7v160006IcEEiPKT_S3_m, symObjAddr: 0x64B0, symBinAddr: 0x10000A644, symSize: 0x34 }
  - { offsetInCU: 0x1452F, offset: 0x1452F, size: 0x8, addend: 0x0, symName: __ZNSt3__112__to_addressB7v160006IKcEEPT_S3_, symObjAddr: 0x659C, symBinAddr: 0x10000A730, symSize: 0x14 }
  - { offsetInCU: 0x14596, offset: 0x14596, size: 0x8, addend: 0x0, symName: __ZNSt3__19iter_swapB7v160006IPNS_12basic_stringIcNS_11char_traitsIcEENS_9allocatorIcEEEES7_EEvT_T0_, symObjAddr: 0x679C, symBinAddr: 0x10000A930, symSize: 0x2C }
  - { offsetInCU: 0x145DE, offset: 0x145DE, size: 0x8, addend: 0x0, symName: __ZNSt3__14swapB7v160006IcNS_11char_traitsIcEENS_9allocatorIcEEEEvRNS_12basic_stringIT_T0_T1_EESA_, symObjAddr: 0x67C8, symBinAddr: 0x10000A95C, symSize: 0x2C }
  - { offsetInCU: 0x14632, offset: 0x14632, size: 0x8, addend: 0x0, symName: __ZNSt3__125__debug_db_invalidate_allB7v160006INS_12basic_stringIcNS_11char_traitsIcEENS_9allocatorIcEEEEEEvPT_, symObjAddr: 0x68AC, symBinAddr: 0x10000AA40, symSize: 0x10 }
  - { offsetInCU: 0x14663, offset: 0x14663, size: 0x8, addend: 0x0, symName: __ZNSt3__115__debug_db_swapB7v160006INS_12basic_stringIcNS_11char_traitsIcEENS_9allocatorIcEEEEEEvPT_S8_, symObjAddr: 0x68BC, symBinAddr: 0x10000AA50, symSize: 0x14 }
  - { offsetInCU: 0x146A3, offset: 0x146A3, size: 0x8, addend: 0x0, symName: __ZNSt3__14swapB7v160006INS_12basic_stringIcNS_11char_traitsIcEENS_9allocatorIcEEE5__repEEENS_9enable_ifIXaasr21is_move_constructibleIT_EE5valuesr18is_move_assignableIS9_EE5valueEvE4typeERS9_SC_, symObjAddr: 0x68D0, symBinAddr: 0x10000AA64, symSize: 0x54 }
  - { offsetInCU: 0x146F3, offset: 0x146F3, size: 0x8, addend: 0x0, symName: __ZNSt3__116__swap_allocatorB7v160006INS_9allocatorIcEEEEvRT_S4_, symObjAddr: 0x6948, symBinAddr: 0x10000AADC, symSize: 0x2C }
  - { offsetInCU: 0x14732, offset: 0x14732, size: 0x8, addend: 0x0, symName: __ZNSt3__116__swap_allocatorB7v160006INS_9allocatorIcEEEEvRT_S4_NS_17integral_constantIbLb0EEE, symObjAddr: 0x69AC, symBinAddr: 0x10000AB40, symSize: 0x14 }
  - { offsetInCU: 0x14776, offset: 0x14776, size: 0x8, addend: 0x0, symName: __ZNSt3__17__sort4B7v160006INS_17_ClassicAlgPolicyERNS_6__lessINS_12basic_stringIcNS_11char_traitsIcEENS_9allocatorIcEEEES8_EEPS8_EEjT1_SC_SC_SC_T0_, symObjAddr: 0x69F8, symBinAddr: 0x10000AB8C, symSize: 0xE4 }
  - { offsetInCU: 0x14827, offset: 0x14827, size: 0x8, addend: 0x0, symName: __ZNSt3__119__debug_db_insert_cB7v160006INS_12basic_stringIcNS_11char_traitsIcEENS_9allocatorIcEEEEEEvPT_, symObjAddr: 0x6C34, symBinAddr: 0x10000ADC8, symSize: 0x10 }
  - { offsetInCU: 0x14858, offset: 0x14858, size: 0x8, addend: 0x0, symName: __ZNSt3__119__libcpp_deallocateB7v160006EPvmm, symObjAddr: 0x6EC8, symBinAddr: 0x10000B05C, symSize: 0x60 }
  - { offsetInCU: 0x148BE, offset: 0x148BE, size: 0x8, addend: 0x0, symName: __ZNSt3__124__is_overaligned_for_newB7v160006Em, symObjAddr: 0x6F28, symBinAddr: 0x10000B0BC, symSize: 0x20 }
  - { offsetInCU: 0x148EB, offset: 0x148EB, size: 0x8, addend: 0x0, symName: __ZNSt3__127__do_deallocate_handle_sizeB7v160006IJSt11align_val_tEEEvPvmDpT_, symObjAddr: 0x6F48, symBinAddr: 0x10000B0DC, symSize: 0x30 }
  - { offsetInCU: 0x1493E, offset: 0x1493E, size: 0x8, addend: 0x0, symName: __ZNSt3__127__do_deallocate_handle_sizeB7v160006IJEEEvPvmDpT_, symObjAddr: 0x6F78, symBinAddr: 0x10000B10C, symSize: 0x28 }
  - { offsetInCU: 0x1497C, offset: 0x1497C, size: 0x8, addend: 0x0, symName: __ZNSt3__124__libcpp_operator_deleteB7v160006IJPvSt11align_val_tEEEvDpT_, symObjAddr: 0x6FA0, symBinAddr: 0x10000B134, symSize: 0x2C }
  - { offsetInCU: 0x149C5, offset: 0x149C5, size: 0x8, addend: 0x0, symName: __ZNSt3__124__libcpp_operator_deleteB7v160006IJPvEEEvDpT_, symObjAddr: 0x6FCC, symBinAddr: 0x10000B160, symSize: 0x24 }
  - { offsetInCU: 0x149FA, offset: 0x149FA, size: 0x8, addend: 0x0, symName: __ZNSt3__123__debug_randomize_rangeB7v160006INS_17_ClassicAlgPolicyEPNS_12basic_stringIcNS_11char_traitsIcEENS_9allocatorIcEEEES8_EEvT0_T1_, symObjAddr: 0x7054, symBinAddr: 0x10000B1E8, symSize: 0x14 }
  - { offsetInCU: 0x14A4B, offset: 0x14A4B, size: 0x8, addend: 0x0, symName: __ZNSt3__119__partial_sort_implB7v160006INS_17_ClassicAlgPolicyERNS_6__lessINS_12basic_stringIcNS_11char_traitsIcEENS_9allocatorIcEEEES8_EEPS8_SB_EET1_SC_SC_T2_OT0_, symObjAddr: 0x7068, symBinAddr: 0x10000B1FC, symSize: 0x110 }
  - { offsetInCU: 0x14AE1, offset: 0x14AE1, size: 0x8, addend: 0x0, symName: __ZNSt3__111__make_heapB7v160006INS_17_ClassicAlgPolicyERNS_6__lessINS_12basic_stringIcNS_11char_traitsIcEENS_9allocatorIcEEEES8_EEPS8_EEvT1_SC_OT0_, symObjAddr: 0x7178, symBinAddr: 0x10000B30C, symSize: 0xC0 }
  - { offsetInCU: 0x14B83, offset: 0x14B83, size: 0x8, addend: 0x0, symName: __ZNSt3__111__sort_heapB7v160006INS_17_ClassicAlgPolicyERNS_6__lessINS_12basic_stringIcNS_11char_traitsIcEENS_9allocatorIcEEEES8_EEPS8_EEvT1_SC_OT0_, symObjAddr: 0x748C, symBinAddr: 0x10000B620, symSize: 0x90 }
  - { offsetInCU: 0x14C17, offset: 0x14C17, size: 0x8, addend: 0x0, symName: __ZNSt3__110__pop_heapB7v160006INS_17_ClassicAlgPolicyENS_6__lessINS_12basic_stringIcNS_11char_traitsIcEENS_9allocatorIcEEEES8_EEPS8_EEvT1_SB_RT0_NS_15iterator_traitsISB_E15difference_typeE, symObjAddr: 0x751C, symBinAddr: 0x10000B6B0, symSize: 0x138 }
  - { offsetInCU: 0x14CBF, offset: 0x14CBF, size: 0x8, addend: 0x0, symName: __ZNSt3__19__sift_upB7v160006INS_17_ClassicAlgPolicyERNS_6__lessINS_12basic_stringIcNS_11char_traitsIcEENS_9allocatorIcEEEES8_EEPS8_EEvT1_SC_OT0_NS_15iterator_traitsISC_E15difference_typeE, symObjAddr: 0x775C, symBinAddr: 0x10000B8F0, symSize: 0x164 }
  - { offsetInCU: 0x14D5F, offset: 0x14D5F, size: 0x8, addend: 0x0, symName: __ZNSt3__17__sort5IRNS_6__lessINS_12basic_stringIcNS_11char_traitsIcEENS_9allocatorIcEEEES7_EEPS7_EEjT0_SB_SB_SB_SB_T_, symObjAddr: 0x78C0, symBinAddr: 0x10000BA54, symSize: 0x12C }
  - { offsetInCU: 0x14E5D, offset: 0x14E5D, size: 0x8, addend: 0x0, symName: __ZNSt3__112__to_addressB7v160006INS_11__wrap_iterIPNS_12basic_stringIcNS_11char_traitsIcEENS_9allocatorIcEEEEEEvEENS_5decayIDTclsr19__to_address_helperIT_EE6__callclsr3stdE7declvalIRKSB_EEEEE4typeESD_, symObjAddr: 0x7A14, symBinAddr: 0x10000BBA8, symSize: 0x24 }
  - { offsetInCU: 0x14EFF, offset: 0x14EFF, size: 0x8, addend: 0x0, symName: __ZNSt3__112__to_addressB7v160006INS_12basic_stringIcNS_11char_traitsIcEENS_9allocatorIcEEEEEEPT_S8_, symObjAddr: 0x7A94, symBinAddr: 0x10000BC28, symSize: 0x14 }
  - { offsetInCU: 0x14F33, offset: 0x14F33, size: 0x8, addend: 0x0, symName: '__ZNSt3__111__sort_implB7v160006INS_17_ClassicAlgPolicyENS_11__wrap_iterIPNS_6vectorINS_12basic_stringIcNS_11char_traitsIcEENS_9allocatorIcEEEENS7_IS9_EEEEEEZ17normalizeAccountsRNS3_ISB_NS7_ISB_EEEEE3$_0EEvT0_SI_RT1_', symObjAddr: 0x7B84, symBinAddr: 0x10000BD18, symSize: 0x84 }
  - { offsetInCU: 0x14FDA, offset: 0x14FDA, size: 0x8, addend: 0x0, symName: __ZNSt3__123__debug_randomize_rangeB7v160006INS_17_ClassicAlgPolicyENS_11__wrap_iterIPNS_6vectorINS_12basic_stringIcNS_11char_traitsIcEENS_9allocatorIcEEEENS7_IS9_EEEEEESD_EEvT0_T1_, symObjAddr: 0x7C08, symBinAddr: 0x10000BD9C, symSize: 0x14 }
  - { offsetInCU: 0x1502B, offset: 0x1502B, size: 0x8, addend: 0x0, symName: '__ZNSt3__16__sortIRZ17normalizeAccountsRNS_6vectorINS1_INS_12basic_stringIcNS_11char_traitsIcEENS_9allocatorIcEEEENS5_IS7_EEEENS5_IS9_EEEEE3$_0PS9_EEvT0_SG_T_', symObjAddr: 0x7C1C, symBinAddr: 0x10000BDB0, symSize: 0x68 }
  - { offsetInCU: 0x150BB, offset: 0x150BB, size: 0x8, addend: 0x0, symName: __ZNSt3__113__unwrap_iterB7v160006INS_11__wrap_iterIPNS_6vectorINS_12basic_stringIcNS_11char_traitsIcEENS_9allocatorIcEEEENS6_IS8_EEEEEENS_18__unwrap_iter_implISC_Lb1EEELi0EEEDTclsrT0_8__unwrapclsr3stdE7declvalIT_EEEESG_, symObjAddr: 0x7C84, symBinAddr: 0x10000BE18, symSize: 0x2C }
  - { offsetInCU: 0x15133, offset: 0x15133, size: 0x8, addend: 0x0, symName: '__ZNSt3__124__sort3_maybe_branchlessB7v160006INS_17_ClassicAlgPolicyERZ17normalizeAccountsRNS_6vectorINS2_INS_12basic_stringIcNS_11char_traitsIcEENS_9allocatorIcEEEENS6_IS8_EEEENS6_ISA_EEEEE3$_0PSA_EENS_9enable_ifIXntsr21__use_branchless_sortIT0_T1_EE5valueEvE4typeESJ_SJ_SJ_SI_', symObjAddr: 0x84B4, symBinAddr: 0x10000C648, symSize: 0x3C }
  - { offsetInCU: 0x151A4, offset: 0x151A4, size: 0x8, addend: 0x0, symName: '__ZNSt3__124__sort4_maybe_branchlessB7v160006INS_17_ClassicAlgPolicyERZ17normalizeAccountsRNS_6vectorINS2_INS_12basic_stringIcNS_11char_traitsIcEENS_9allocatorIcEEEENS6_IS8_EEEENS6_ISA_EEEEE3$_0PSA_EENS_9enable_ifIXntsr21__use_branchless_sortIT0_T1_EE5valueEvE4typeESJ_SJ_SJ_SJ_SI_', symObjAddr: 0x84F0, symBinAddr: 0x10000C684, symSize: 0x44 }
  - { offsetInCU: 0x15229, offset: 0x15229, size: 0x8, addend: 0x0, symName: '__ZNSt3__124__sort5_maybe_branchlessB7v160006INS_17_ClassicAlgPolicyERZ17normalizeAccountsRNS_6vectorINS2_INS_12basic_stringIcNS_11char_traitsIcEENS_9allocatorIcEEEENS6_IS8_EEEENS6_ISA_EEEEE3$_0PSA_EENS_9enable_ifIXntsr21__use_branchless_sortIT0_T1_EE5valueEvE4typeESJ_SJ_SJ_SJ_SJ_SI_', symObjAddr: 0x8534, symBinAddr: 0x10000C6C8, symSize: 0x4C }
  - { offsetInCU: 0x152BD, offset: 0x152BD, size: 0x8, addend: 0x0, symName: '__ZNSt3__114__partial_sortB7v160006INS_17_ClassicAlgPolicyERZ17normalizeAccountsRNS_6vectorINS2_INS_12basic_stringIcNS_11char_traitsIcEENS_9allocatorIcEEEENS6_IS8_EEEENS6_ISA_EEEEE3$_0PSA_SG_EET1_SH_SH_T2_RT0_', symObjAddr: 0x8708, symBinAddr: 0x10000C89C, symSize: 0x94 }
  - { offsetInCU: 0x15345, offset: 0x15345, size: 0x8, addend: 0x0, symName: '__ZNSt3__119__sort5_wrap_policyB7v160006INS_17_ClassicAlgPolicyERZ17normalizeAccountsRNS_6vectorINS2_INS_12basic_stringIcNS_11char_traitsIcEENS_9allocatorIcEEEENS6_IS8_EEEENS6_ISA_EEEEE3$_0PSA_EEjT1_SH_SH_SH_SH_T0_', symObjAddr: 0x879C, symBinAddr: 0x10000C930, symSize: 0x54 }
  - { offsetInCU: 0x153EB, offset: 0x153EB, size: 0x8, addend: 0x0, symName: '__ZNSt3__17__sort3B7v160006INS_17_ClassicAlgPolicyERZ17normalizeAccountsRNS_6vectorINS2_INS_12basic_stringIcNS_11char_traitsIcEENS_9allocatorIcEEEENS6_IS8_EEEENS6_ISA_EEEEE3$_0PSA_EEjT1_SH_SH_T0_', symObjAddr: 0x87F0, symBinAddr: 0x10000C984, symSize: 0x144 }
  - { offsetInCU: 0x1546A, offset: 0x1546A, size: 0x8, addend: 0x0, symName: __ZNSt3__1eqB7v160006INS_9allocatorIcEEEEbRKNS_12basic_stringIcNS_11char_traitsIcEET_EES9_, symObjAddr: 0x8CC4, symBinAddr: 0x10000CE58, symSize: 0x148 }
  - { offsetInCU: 0x154DD, offset: 0x154DD, size: 0x8, addend: 0x0, symName: __ZNSt3__1ltB7v160006INS_12basic_stringIcNS_11char_traitsIcEENS_9allocatorIcEEEENS4_IS6_EEEEbRKNS_6vectorIT_T0_EESD_, symObjAddr: 0x8E38, symBinAddr: 0x10000CFCC, symSize: 0x68 }
  - { offsetInCU: 0x1552C, offset: 0x1552C, size: 0x8, addend: 0x0, symName: __ZNSt3__123lexicographical_compareB7v160006INS_11__wrap_iterIPKNS_12basic_stringIcNS_11char_traitsIcEENS_9allocatorIcEEEEEESA_EEbT_SB_T0_SC_, symObjAddr: 0x8EA0, symBinAddr: 0x10000D034, symSize: 0x60 }
  - { offsetInCU: 0x15594, offset: 0x15594, size: 0x8, addend: 0x0, symName: __ZNSt3__123lexicographical_compareB7v160006INS_11__wrap_iterIPKNS_12basic_stringIcNS_11char_traitsIcEENS_9allocatorIcEEEEEESA_NS_6__lessIS7_S7_EEEEbT_SD_T0_SE_T1_, symObjAddr: 0x8F60, symBinAddr: 0x10000D0F4, symSize: 0x64 }
  - { offsetInCU: 0x15613, offset: 0x15613, size: 0x8, addend: 0x0, symName: __ZNSt3__125__lexicographical_compareB7v160006IRNS_6__lessINS_12basic_stringIcNS_11char_traitsIcEENS_9allocatorIcEEEES7_EENS_11__wrap_iterIPKS7_EESD_EEbT0_SE_T1_SF_T_, symObjAddr: 0x8FC4, symBinAddr: 0x10000D158, symSize: 0x11C }
  - { offsetInCU: 0x15692, offset: 0x15692, size: 0x8, addend: 0x0, symName: __ZNSt3__1neB7v160006IPKNS_12basic_stringIcNS_11char_traitsIcEENS_9allocatorIcEEEEEEbRKNS_11__wrap_iterIT_EESD_, symObjAddr: 0x90E0, symBinAddr: 0x10000D274, symSize: 0x34 }
  - { offsetInCU: 0x156D5, offset: 0x156D5, size: 0x8, addend: 0x0, symName: __ZNSt3__1eqB7v160006IPKNS_12basic_stringIcNS_11char_traitsIcEENS_9allocatorIcEEEEEEbRKNS_11__wrap_iterIT_EESD_, symObjAddr: 0x9114, symBinAddr: 0x10000D2A8, symSize: 0x48 }
  - { offsetInCU: 0x15718, offset: 0x15718, size: 0x8, addend: 0x0, symName: __ZNSt3__19iter_swapB7v160006IPNS_6vectorINS_12basic_stringIcNS_11char_traitsIcEENS_9allocatorIcEEEENS5_IS7_EEEESA_EEvT_T0_, symObjAddr: 0x9240, symBinAddr: 0x10000D3D4, symSize: 0x2C }
  - { offsetInCU: 0x15760, offset: 0x15760, size: 0x8, addend: 0x0, symName: __ZNSt3__14swapB7v160006INS_12basic_stringIcNS_11char_traitsIcEENS_9allocatorIcEEEENS4_IS6_EEEEvRNS_6vectorIT_T0_EESC_, symObjAddr: 0x926C, symBinAddr: 0x10000D400, symSize: 0x2C }
  - { offsetInCU: 0x157AC, offset: 0x157AC, size: 0x8, addend: 0x0, symName: __ZNSt3__14swapB7v160006IPNS_12basic_stringIcNS_11char_traitsIcEENS_9allocatorIcEEEEEENS_9enable_ifIXaasr21is_move_constructibleIT_EE5valuesr18is_move_assignableIS9_EE5valueEvE4typeERS9_SC_, symObjAddr: 0x9330, symBinAddr: 0x10000D4C4, symSize: 0x3C }
  - { offsetInCU: 0x157FC, offset: 0x157FC, size: 0x8, addend: 0x0, symName: __ZNSt3__116__swap_allocatorB7v160006INS_9allocatorINS_12basic_stringIcNS_11char_traitsIcEENS1_IcEEEEEEEEvRT_S9_NS_17integral_constantIbLb0EEE, symObjAddr: 0x9394, symBinAddr: 0x10000D528, symSize: 0x14 }
  - { offsetInCU: 0x15840, offset: 0x15840, size: 0x8, addend: 0x0, symName: __ZNSt3__115__debug_db_swapB7v160006INS_6vectorINS_12basic_stringIcNS_11char_traitsIcEENS_9allocatorIcEEEENS5_IS7_EEEEEEvPT_SB_, symObjAddr: 0x93D0, symBinAddr: 0x10000D564, symSize: 0x14 }
  - { offsetInCU: 0x1587F, offset: 0x1587F, size: 0x8, addend: 0x0, symName: '__ZNSt3__17__sort4B7v160006INS_17_ClassicAlgPolicyERZ17normalizeAccountsRNS_6vectorINS2_INS_12basic_stringIcNS_11char_traitsIcEENS_9allocatorIcEEEENS6_IS8_EEEENS6_ISA_EEEEE3$_0PSA_EEjT1_SH_SH_SH_T0_', symObjAddr: 0x9454, symBinAddr: 0x10000D5E8, symSize: 0xE4 }
  - { offsetInCU: 0x15930, offset: 0x15930, size: 0x8, addend: 0x0, symName: __ZNSt3__119__debug_db_insert_cB7v160006INS_6vectorINS_12basic_stringIcNS_11char_traitsIcEENS_9allocatorIcEEEENS5_IS7_EEEEEEvPT_, symObjAddr: 0x96E4, symBinAddr: 0x10000D878, symSize: 0x10 }
  - { offsetInCU: 0x15961, offset: 0x15961, size: 0x8, addend: 0x0, symName: __ZNSt3__125__debug_db_invalidate_allB7v160006INS_6vectorINS_12basic_stringIcNS_11char_traitsIcEENS_9allocatorIcEEEENS5_IS7_EEEEEEvPT_, symObjAddr: 0x9A88, symBinAddr: 0x10000DC1C, symSize: 0x10 }
  - { offsetInCU: 0x15992, offset: 0x15992, size: 0x8, addend: 0x0, symName: __ZNSt3__110destroy_atB7v160006INS_12basic_stringIcNS_11char_traitsIcEENS_9allocatorIcEEEELi0EEEvPT_, symObjAddr: 0x9B4C, symBinAddr: 0x10000DCE0, symSize: 0x24 }
  - { offsetInCU: 0x159C9, offset: 0x159C9, size: 0x8, addend: 0x0, symName: __ZNSt3__112__destroy_atB7v160006INS_12basic_stringIcNS_11char_traitsIcEENS_9allocatorIcEEEELi0EEEvPT_, symObjAddr: 0x9B70, symBinAddr: 0x10000DD04, symSize: 0x24 }
  - { offsetInCU: 0x15A00, offset: 0x15A00, size: 0x8, addend: 0x0, symName: __ZNSt3__123__debug_randomize_rangeB7v160006INS_17_ClassicAlgPolicyEPNS_6vectorINS_12basic_stringIcNS_11char_traitsIcEENS_9allocatorIcEEEENS6_IS8_EEEESB_EEvT0_T1_, symObjAddr: 0x9CD0, symBinAddr: 0x10000DE64, symSize: 0x14 }
  - { offsetInCU: 0x15A51, offset: 0x15A51, size: 0x8, addend: 0x0, symName: '__ZNSt3__119__partial_sort_implB7v160006INS_17_ClassicAlgPolicyERZ17normalizeAccountsRNS_6vectorINS2_INS_12basic_stringIcNS_11char_traitsIcEENS_9allocatorIcEEEENS6_IS8_EEEENS6_ISA_EEEEE3$_0PSA_SG_EET1_SH_SH_T2_OT0_', symObjAddr: 0x9CE4, symBinAddr: 0x10000DE78, symSize: 0x110 }
  - { offsetInCU: 0x15AE7, offset: 0x15AE7, size: 0x8, addend: 0x0, symName: '__ZNSt3__111__make_heapB7v160006INS_17_ClassicAlgPolicyERZ17normalizeAccountsRNS_6vectorINS2_INS_12basic_stringIcNS_11char_traitsIcEENS_9allocatorIcEEEENS6_IS8_EEEENS6_ISA_EEEEE3$_0PSA_EEvT1_SH_OT0_', symObjAddr: 0x9DF4, symBinAddr: 0x10000DF88, symSize: 0xC0 }
  - { offsetInCU: 0x15B89, offset: 0x15B89, size: 0x8, addend: 0x0, symName: '__ZNSt3__111__sort_heapB7v160006INS_17_ClassicAlgPolicyERZ17normalizeAccountsRNS_6vectorINS2_INS_12basic_stringIcNS_11char_traitsIcEENS_9allocatorIcEEEENS6_IS8_EEEENS6_ISA_EEEEE3$_0PSA_EEvT1_SH_OT0_', symObjAddr: 0xA120, symBinAddr: 0x10000E2B4, symSize: 0x90 }
  - { offsetInCU: 0x15C1D, offset: 0x15C1D, size: 0x8, addend: 0x0, symName: '__ZNSt3__110__pop_heapB7v160006INS_17_ClassicAlgPolicyEZ17normalizeAccountsRNS_6vectorINS2_INS_12basic_stringIcNS_11char_traitsIcEENS_9allocatorIcEEEENS6_IS8_EEEENS6_ISA_EEEEE3$_0PSA_EEvT1_SG_RT0_NS_15iterator_traitsISG_E15difference_typeE', symObjAddr: 0xA1B0, symBinAddr: 0x10000E344, symSize: 0x138 }
  - { offsetInCU: 0x15CC5, offset: 0x15CC5, size: 0x8, addend: 0x0, symName: '__ZNSt3__19__sift_upB7v160006INS_17_ClassicAlgPolicyERZ17normalizeAccountsRNS_6vectorINS2_INS_12basic_stringIcNS_11char_traitsIcEENS_9allocatorIcEEEENS6_IS8_EEEENS6_ISA_EEEEE3$_0PSA_EEvT1_SH_OT0_NS_15iterator_traitsISH_E15difference_typeE', symObjAddr: 0xA3F0, symBinAddr: 0x10000E584, symSize: 0x170 }
  - { offsetInCU: 0x15D65, offset: 0x15D65, size: 0x8, addend: 0x0, symName: '__ZNSt3__17__sort5IRZ17normalizeAccountsRNS_6vectorINS1_INS_12basic_stringIcNS_11char_traitsIcEENS_9allocatorIcEEEENS5_IS7_EEEENS5_IS9_EEEEE3$_0PS9_EEjT0_SG_SG_SG_SG_T_', symObjAddr: 0xA560, symBinAddr: 0x10000E6F4, symSize: 0x12C }
  - { offsetInCU: 0x15E63, offset: 0x15E63, size: 0x8, addend: 0x0, symName: __ZNSt3__112__to_addressB7v160006INS_11__wrap_iterIPNS_6vectorINS_12basic_stringIcNS_11char_traitsIcEENS_9allocatorIcEEEENS6_IS8_EEEEEEvEENS_5decayIDTclsr19__to_address_helperIT_EE6__callclsr3stdE7declvalIRKSE_EEEEE4typeESG_, symObjAddr: 0xA6B4, symBinAddr: 0x10000E848, symSize: 0x24 }
  - { offsetInCU: 0x15F05, offset: 0x15F05, size: 0x8, addend: 0x0, symName: __ZNSt3__112__to_addressB7v160006INS_6vectorINS_12basic_stringIcNS_11char_traitsIcEENS_9allocatorIcEEEENS5_IS7_EEEEEEPT_SB_, symObjAddr: 0xA734, symBinAddr: 0x10000E8C8, symSize: 0x14 }
  - { offsetInCU: 0x15F39, offset: 0x15F39, size: 0x8, addend: 0x0, symName: __ZNSt3__119__debug_db_insert_cB7v160006INS_13unordered_mapINS_12basic_stringIcNS_11char_traitsIcEENS_9allocatorIcEEEEiNS_4hashIS7_EENS_8equal_toIS7_EENS5_INS_4pairIKS7_iEEEEEEEEvPT_, symObjAddr: 0xA840, symBinAddr: 0x10000E9D4, symSize: 0x10 }
  - { offsetInCU: 0x15F6A, offset: 0x15F6A, size: 0x8, addend: 0x0, symName: __ZNSt3__119__debug_db_insert_cB7v160006INS_6vectorI13nameANDemailsNS_9allocatorIS2_EEEEEEvPT_, symObjAddr: 0xAED8, symBinAddr: 0x10000F06C, symSize: 0x10 }
  - { offsetInCU: 0x169D0, offset: 0x169D0, size: 0x8, addend: 0x0, symName: __ZNSt3__1neB7v160006ERKNS_19__hash_map_iteratorINS_15__hash_iteratorIPNS_11__hash_nodeINS_17__hash_value_typeINS_12basic_stringIcNS_11char_traitsIcEENS_9allocatorIcEEEEiEEPvEEEEEESH_, symObjAddr: 0xB368, symBinAddr: 0x10000F4FC, symSize: 0x30 }
  - { offsetInCU: 0x16A0D, offset: 0x16A0D, size: 0x8, addend: 0x0, symName: __ZNSt3__13getB7v160006ILm0EKNS_12basic_stringIcNS_11char_traitsIcEENS_9allocatorIcEEEEiEERKNS_13tuple_elementIXT_ENS_4pairIT0_T1_EEE4typeERKSC_, symObjAddr: 0xB3C0, symBinAddr: 0x10000F554, symSize: 0x24 }
  - { offsetInCU: 0x16A57, offset: 0x16A57, size: 0x8, addend: 0x0, symName: __ZNSt3__13getB7v160006ILm1EKNS_12basic_stringIcNS_11char_traitsIcEENS_9allocatorIcEEEEiEERKNS_13tuple_elementIXT_ENS_4pairIT0_T1_EEE4typeERKSC_, symObjAddr: 0xB3E4, symBinAddr: 0x10000F578, symSize: 0x24 }
  - { offsetInCU: 0x16AA1, offset: 0x16AA1, size: 0x8, addend: 0x0, symName: __ZNSt3__1neB7v160006ERKNS_19__hash_map_iteratorINS_15__hash_iteratorIPNS_11__hash_nodeINS_17__hash_value_typeIiNS_6vectorINS_12basic_stringIcNS_11char_traitsIcEENS_9allocatorIcEEEENS8_ISA_EEEEEEPvEEEEEESK_, symObjAddr: 0xB5C4, symBinAddr: 0x10000F758, symSize: 0x30 }
  - { offsetInCU: 0x16ADE, offset: 0x16ADE, size: 0x8, addend: 0x0, symName: __ZNSt3__13getB7v160006ILm0EKiNS_6vectorINS_12basic_stringIcNS_11char_traitsIcEENS_9allocatorIcEEEENS6_IS8_EEEEEERNS_13tuple_elementIXT_ENS_4pairIT0_T1_EEE4typeERSF_, symObjAddr: 0xB61C, symBinAddr: 0x10000F7B0, symSize: 0x24 }
  - { offsetInCU: 0x16B28, offset: 0x16B28, size: 0x8, addend: 0x0, symName: __ZNSt3__13getB7v160006ILm1EKiNS_6vectorINS_12basic_stringIcNS_11char_traitsIcEENS_9allocatorIcEEEENS6_IS8_EEEEEERNS_13tuple_elementIXT_ENS_4pairIT0_T1_EEE4typeERSF_, symObjAddr: 0xB640, symBinAddr: 0x10000F7D4, symSize: 0x24 }
  - { offsetInCU: 0x16B72, offset: 0x16B72, size: 0x8, addend: 0x0, symName: __ZNSt3__1neB7v160006IPNS_12basic_stringIcNS_11char_traitsIcEENS_9allocatorIcEEEEEEbRKNS_11__wrap_iterIT_EESC_, symObjAddr: 0xB690, symBinAddr: 0x10000F824, symSize: 0x34 }
  - { offsetInCU: 0x16BB5, offset: 0x16BB5, size: 0x8, addend: 0x0, symName: __ZNSt3__1neB7v160006ERKNS_25__hash_map_const_iteratorINS_21__hash_const_iteratorIPNS_11__hash_nodeINS_17__hash_value_typeINS_12basic_stringIcNS_11char_traitsIcEENS_9allocatorIcEEEEiEEPvEEEEEESH_, symObjAddr: 0xB930, symBinAddr: 0x10000FAC4, symSize: 0x30 }
  - { offsetInCU: 0x16BF2, offset: 0x16BF2, size: 0x8, addend: 0x0, symName: __ZNSt3__1neB7v160006ERKNS_21__hash_const_iteratorIPNS_11__hash_nodeINS_17__hash_value_typeINS_12basic_stringIcNS_11char_traitsIcEENS_9allocatorIcEEEEiEEPvEEEESF_, symObjAddr: 0xB9D8, symBinAddr: 0x10000FB6C, symSize: 0x34 }
  - { offsetInCU: 0x16C30, offset: 0x16C30, size: 0x8, addend: 0x0, symName: __ZNSt3__1eqB7v160006ERKNS_21__hash_const_iteratorIPNS_11__hash_nodeINS_17__hash_value_typeINS_12basic_stringIcNS_11char_traitsIcEENS_9allocatorIcEEEEiEEPvEEEESF_, symObjAddr: 0xBA0C, symBinAddr: 0x10000FBA0, symSize: 0x30 }
  - { offsetInCU: 0x16C6D, offset: 0x16C6D, size: 0x8, addend: 0x0, symName: __ZNSt3__116__constrain_hashB7v160006Emm, symObjAddr: 0xBCA8, symBinAddr: 0x10000FE3C, symSize: 0x98 }
  - { offsetInCU: 0x16CA6, offset: 0x16CA6, size: 0x8, addend: 0x0, symName: __ZNSt3__116__do_string_hashB7v160006IPKcEEmT_S3_, symObjAddr: 0xBF28, symBinAddr: 0x1000100BC, symSize: 0x3C }
  - { offsetInCU: 0x16CED, offset: 0x16CED, size: 0x8, addend: 0x0, symName: __ZNSt3__110__loadwordB7v160006ImEET_PKv, symObjAddr: 0xC91C, symBinAddr: 0x100010AB0, symSize: 0x20 }
  - { offsetInCU: 0x16D30, offset: 0x16D30, size: 0x8, addend: 0x0, symName: __ZNSt3__14swapB7v160006ImEENS_9enable_ifIXaasr21is_move_constructibleIT_EE5valuesr18is_move_assignableIS2_EE5valueEvE4typeERS2_S5_, symObjAddr: 0xCAD8, symBinAddr: 0x100010C6C, symSize: 0x3C }
  - { offsetInCU: 0x16D81, offset: 0x16D81, size: 0x8, addend: 0x0, symName: __ZNSt3__110__loadwordB7v160006IjEET_PKv, symObjAddr: 0xCB68, symBinAddr: 0x100010CFC, symSize: 0x20 }
  - { offsetInCU: 0x16DC3, offset: 0x16DC3, size: 0x8, addend: 0x0, symName: __ZNSt3__17launderB7v160006IKNS_4pairIKNS_12basic_stringIcNS_11char_traitsIcEENS_9allocatorIcEEEEiEEEEPT_SC_, symObjAddr: 0xCE58, symBinAddr: 0x100010FEC, symSize: 0x24 }
  - { offsetInCU: 0x16DFB, offset: 0x16DFB, size: 0x8, addend: 0x0, symName: __ZNSt3__19__launderB7v160006IKNS_4pairIKNS_12basic_stringIcNS_11char_traitsIcEENS_9allocatorIcEEEEiEEEEPT_SC_, symObjAddr: 0xCE7C, symBinAddr: 0x100011010, symSize: 0x14 }
  - { offsetInCU: 0x16E9B, offset: 0x16E9B, size: 0x8, addend: 0x0, symName: __ZNSt3__116forward_as_tupleB7v160006IJRKNS_12basic_stringIcNS_11char_traitsIcEENS_9allocatorIcEEEEEEENS_5tupleIJDpOT_EEESC_, symObjAddr: 0xD388, symBinAddr: 0x10001151C, symSize: 0x2C }
  - { offsetInCU: 0x16ED5, offset: 0x16ED5, size: 0x8, addend: 0x0, symName: __ZNSt3__116forward_as_tupleB7v160006IJEEENS_5tupleIJDpOT_EEES4_, symObjAddr: 0xD3B4, symBinAddr: 0x100011548, symSize: 0x4 }
  - { offsetInCU: 0x16EF8, offset: 0x16EF8, size: 0x8, addend: 0x0, symName: __ZNSt3__13maxB7v160006ImEERKT_S3_S3_, symObjAddr: 0xD628, symBinAddr: 0x1000117BC, symSize: 0x2C }
  - { offsetInCU: 0x16F3C, offset: 0x16F3C, size: 0x8, addend: 0x0, symName: __ZNSt3__116__is_hash_power2B7v160006Em, symObjAddr: 0xD654, symBinAddr: 0x1000117E8, symSize: 0x50 }
  - { offsetInCU: 0x16F85, offset: 0x16F85, size: 0x8, addend: 0x0, symName: __ZNSt3__117__libcpp_allocateB7v160006Emm, symObjAddr: 0xDAFC, symBinAddr: 0x100011C90, symSize: 0x60 }
  - { offsetInCU: 0x16FDF, offset: 0x16FDF, size: 0x8, addend: 0x0, symName: __ZNSt3__121__libcpp_operator_newB7v160006IJmSt11align_val_tEEEPvDpT_, symObjAddr: 0xDB78, symBinAddr: 0x100011D0C, symSize: 0x2C }
  - { offsetInCU: 0x1702C, offset: 0x1702C, size: 0x8, addend: 0x0, symName: __ZNSt3__121__libcpp_operator_newB7v160006IJmEEEPvDpT_, symObjAddr: 0xDBA4, symBinAddr: 0x100011D38, symSize: 0x24 }
  - { offsetInCU: 0x1708C, offset: 0x1708C, size: 0x8, addend: 0x0, symName: __ZNSt3__112construct_atB7v160006INS_4pairIKNS_12basic_stringIcNS_11char_traitsIcEENS_9allocatorIcEEEEiEEJRKNS_21piecewise_construct_tENS_5tupleIJRS8_EEENSD_IJEEEEPS9_EEPT_SJ_DpOT0_, symObjAddr: 0xDD14, symBinAddr: 0x100011EA8, symSize: 0x50 }
  - { offsetInCU: 0x17130, offset: 0x17130, size: 0x8, addend: 0x0, symName: __ZNSt3__13getB7v160006ILm0EJRKNS_12basic_stringIcNS_11char_traitsIcEENS_9allocatorIcEEEEEEERNS_13tuple_elementIXT_ENS_5tupleIJDpT0_EEEE4typeERSD_, symObjAddr: 0xDE24, symBinAddr: 0x100011FB8, symSize: 0x24 }
  - { offsetInCU: 0x17173, offset: 0x17173, size: 0x8, addend: 0x0, symName: __ZNSt3__116__next_hash_pow2B7v160006Em, symObjAddr: 0xE344, symBinAddr: 0x1000124D8, symSize: 0x6C }
  - { offsetInCU: 0x1719F, offset: 0x1719F, size: 0x8, addend: 0x0, symName: __ZNSt3__125__debug_db_invalidate_allB7v160006INS_12__hash_tableINS_17__hash_value_typeINS_12basic_stringIcNS_11char_traitsIcEENS_9allocatorIcEEEEiEENS_22__unordered_map_hasherIS8_S9_NS_4hashIS8_EENS_8equal_toIS8_EELb1EEENS_21__unordered_map_equalIS8_S9_SE_SC_Lb1EEENS6_IS9_EEEEEEvPT_, symObjAddr: 0xE3B0, symBinAddr: 0x100012544, symSize: 0x10 }
  - { offsetInCU: 0x171D0, offset: 0x171D0, size: 0x8, addend: 0x0, symName: __ZNSt3__13maxB7v160006ImNS_6__lessImmEEEERKT_S5_S5_T0_, symObjAddr: 0xE6EC, symBinAddr: 0x100012880, symSize: 0x54 }
  - { offsetInCU: 0x1722A, offset: 0x1722A, size: 0x8, addend: 0x0, symName: __ZNSt3__110destroy_atB7v160006INS_4pairIKNS_12basic_stringIcNS_11char_traitsIcEENS_9allocatorIcEEEEiEELi0EEEvPT_, symObjAddr: 0xE960, symBinAddr: 0x100012AF4, symSize: 0x24 }
  - { offsetInCU: 0x17261, offset: 0x17261, size: 0x8, addend: 0x0, symName: __ZNSt3__112__destroy_atB7v160006INS_4pairIKNS_12basic_stringIcNS_11char_traitsIcEENS_9allocatorIcEEEEiEELi0EEEvPT_, symObjAddr: 0xE984, symBinAddr: 0x100012B18, symSize: 0x24 }
  - { offsetInCU: 0x172EF, offset: 0x172EF, size: 0x8, addend: 0x0, symName: __ZNSt3__17launderB7v160006INS_4pairIKNS_12basic_stringIcNS_11char_traitsIcEENS_9allocatorIcEEEEiEEEEPT_SB_, symObjAddr: 0xEBA4, symBinAddr: 0x100012D38, symSize: 0x24 }
  - { offsetInCU: 0x17327, offset: 0x17327, size: 0x8, addend: 0x0, symName: __ZNSt3__19__launderB7v160006INS_4pairIKNS_12basic_stringIcNS_11char_traitsIcEENS_9allocatorIcEEEEiEEEEPT_SB_, symObjAddr: 0xEBC8, symBinAddr: 0x100012D5C, symSize: 0x14 }
  - { offsetInCU: 0x17384, offset: 0x17384, size: 0x8, addend: 0x0, symName: __ZNSt3__112construct_atB7v160006INS_12basic_stringIcNS_11char_traitsIcEENS_9allocatorIcEEEEJRKS6_EPS6_EEPT_SB_DpOT0_, symObjAddr: 0xEE28, symBinAddr: 0x100012FBC, symSize: 0x3C }
  - { offsetInCU: 0x175E1, offset: 0x175E1, size: 0x8, addend: 0x0, symName: __ZNSt3__120__throw_length_errorB7v160006EPKc, symObjAddr: 0xF1E0, symBinAddr: 0x100013374, symSize: 0x64 }
  - { offsetInCU: 0x17609, offset: 0x17609, size: 0x8, addend: 0x0, symName: __ZNSt3__119__allocate_at_leastB7v160006INS_9allocatorINS_12basic_stringIcNS_11char_traitsIcEENS1_IcEEEEEEEENS_19__allocation_resultINS_16allocator_traitsIT_E7pointerEEERSA_m, symObjAddr: 0xF3E0, symBinAddr: 0x100013574, symSize: 0x40 }
  - { offsetInCU: 0x1764C, offset: 0x1764C, size: 0x8, addend: 0x0, symName: __ZNSt3__142__uninitialized_allocator_move_if_noexceptB7v160006INS_9allocatorINS_12basic_stringIcNS_11char_traitsIcEENS1_IcEEEEEENS_16reverse_iteratorIPS6_EESA_SA_EET2_RT_T0_T1_SB_, symObjAddr: 0xF66C, symBinAddr: 0x100013800, symSize: 0x12C }
  - { offsetInCU: 0x176EC, offset: 0x176EC, size: 0x8, addend: 0x0, symName: __ZNSt3__122__make_exception_guardB7v160006INS_29_AllocatorDestroyRangeReverseINS_9allocatorINS_12basic_stringIcNS_11char_traitsIcEENS2_IcEEEEEENS_16reverse_iteratorIPS7_EEEEEENS_28__exception_guard_exceptionsIT_EESE_, symObjAddr: 0xF8AC, symBinAddr: 0x100013A40, symSize: 0x4C }
  - { offsetInCU: 0x17722, offset: 0x17722, size: 0x8, addend: 0x0, symName: __ZNSt3__1neB7v160006IPNS_12basic_stringIcNS_11char_traitsIcEENS_9allocatorIcEEEES7_EEbRKNS_16reverse_iteratorIT_EERKNS8_IT0_EE, symObjAddr: 0xF93C, symBinAddr: 0x100013AD0, symSize: 0x48 }
  - { offsetInCU: 0x1776E, offset: 0x1776E, size: 0x8, addend: 0x0, symName: __ZNSt3__112__to_addressB7v160006INS_16reverse_iteratorIPNS_12basic_stringIcNS_11char_traitsIcEENS_9allocatorIcEEEEEEvEENS_5decayIDTclsr19__to_address_helperIT_EE6__callclsr3stdE7declvalIRKSB_EEEEE4typeESD_, symObjAddr: 0xF9B4, symBinAddr: 0x100013B48, symSize: 0x24 }
  - { offsetInCU: 0x177A4, offset: 0x177A4, size: 0x8, addend: 0x0, symName: __ZNSt3__112construct_atB7v160006INS_12basic_stringIcNS_11char_traitsIcEENS_9allocatorIcEEEEJS6_EPS6_EEPT_S9_DpOT0_, symObjAddr: 0xFB04, symBinAddr: 0x100013C98, symSize: 0x3C }
  - { offsetInCU: 0x1783F, offset: 0x1783F, size: 0x8, addend: 0x0, symName: __ZNSt3__14prevB7v160006IPNS_12basic_stringIcNS_11char_traitsIcEENS_9allocatorIcEEEEEENS_9enable_ifIXsr25__is_cpp17_input_iteratorIT_EE5valueES9_E4typeES9_NS_15iterator_traitsIS9_E15difference_typeE, symObjAddr: 0xFBA4, symBinAddr: 0x100013D38, symSize: 0x50 }
  - { offsetInCU: 0x17883, offset: 0x17883, size: 0x8, addend: 0x0, symName: __ZNSt3__121__convert_to_integralB7v160006El, symObjAddr: 0xFC44, symBinAddr: 0x100013DD8, symSize: 0x14 }
  - { offsetInCU: 0x178AE, offset: 0x178AE, size: 0x8, addend: 0x0, symName: __ZNSt3__19__advanceB7v160006IPNS_12basic_stringIcNS_11char_traitsIcEENS_9allocatorIcEEEEEEvRT_NS_15iterator_traitsIS8_E15difference_typeENS_26random_access_iterator_tagE, symObjAddr: 0xFC58, symBinAddr: 0x100013DEC, symSize: 0x30 }
  - { offsetInCU: 0x178F8, offset: 0x178F8, size: 0x8, addend: 0x0, symName: __ZNSt3__119__allocator_destroyB7v160006INS_9allocatorINS_12basic_stringIcNS_11char_traitsIcEENS1_IcEEEEEENS_16reverse_iteratorINS8_IPS6_EEEESB_EEvRT_T0_T1_, symObjAddr: 0xFD8C, symBinAddr: 0x100013F20, symSize: 0x70 }
  - { offsetInCU: 0x1795D, offset: 0x1795D, size: 0x8, addend: 0x0, symName: __ZNSt3__1neB7v160006INS_16reverse_iteratorIPNS_12basic_stringIcNS_11char_traitsIcEENS_9allocatorIcEEEEEES9_EEbRKNS1_IT_EERKNS1_IT0_EE, symObjAddr: 0xFE38, symBinAddr: 0x100013FCC, symSize: 0x60 }
  - { offsetInCU: 0x179A9, offset: 0x179A9, size: 0x8, addend: 0x0, symName: __ZNSt3__112__to_addressB7v160006INS_16reverse_iteratorINS1_IPNS_12basic_stringIcNS_11char_traitsIcEENS_9allocatorIcEEEEEEEEvEENS_5decayIDTclsr19__to_address_helperIT_EE6__callclsr3stdE7declvalIRKSC_EEEEE4typeESE_, symObjAddr: 0xFE98, symBinAddr: 0x10001402C, symSize: 0x24 }
  - { offsetInCU: 0x17A08, offset: 0x17A08, size: 0x8, addend: 0x0, symName: __ZNSt3__14prevB7v160006INS_16reverse_iteratorIPNS_12basic_stringIcNS_11char_traitsIcEENS_9allocatorIcEEEEEEEENS_9enable_ifIXsr25__is_cpp17_input_iteratorIT_EE5valueESB_E4typeESB_NS_15iterator_traitsISB_E15difference_typeE, symObjAddr: 0xFF94, symBinAddr: 0x100014128, symSize: 0x60 }
  - { offsetInCU: 0x17A4B, offset: 0x17A4B, size: 0x8, addend: 0x0, symName: __ZNSt3__19__advanceB7v160006INS_16reverse_iteratorIPNS_12basic_stringIcNS_11char_traitsIcEENS_9allocatorIcEEEEEEEEvRT_NS_15iterator_traitsISA_E15difference_typeENS_26random_access_iterator_tagE, symObjAddr: 0x10044, symBinAddr: 0x1000141D8, symSize: 0x2C }
  - { offsetInCU: 0x17A96, offset: 0x17A96, size: 0x8, addend: 0x0, symName: __ZNSt3__112__to_addressB7v160006I13nameANDemailsEEPT_S3_, symObjAddr: 0x10578, symBinAddr: 0x10001470C, symSize: 0x14 }
  - { offsetInCU: 0x17AF1, offset: 0x17AF1, size: 0x8, addend: 0x0, symName: __ZNSt3__112construct_atB7v160006I13nameANDemailsJRS1_EPS1_EEPT_S5_DpOT0_, symObjAddr: 0x10604, symBinAddr: 0x100014798, symSize: 0x3C }
  - { offsetInCU: 0x17B63, offset: 0x17B63, size: 0x8, addend: 0x0, symName: __ZNSt3__122__make_exception_guardB7v160006INS_6vectorINS_12basic_stringIcNS_11char_traitsIcEENS_9allocatorIcEEEENS5_IS7_EEE16__destroy_vectorEEENS_28__exception_guard_exceptionsIT_EESC_, symObjAddr: 0x10838, symBinAddr: 0x1000149CC, symSize: 0x40 }
  - { offsetInCU: 0x17B98, offset: 0x17B98, size: 0x8, addend: 0x0, symName: __ZNSt3__130__uninitialized_allocator_copyB7v160006INS_9allocatorINS_12basic_stringIcNS_11char_traitsIcEENS1_IcEEEEEEPS6_S8_S8_EET2_RT_T0_T1_S9_, symObjAddr: 0x10AAC, symBinAddr: 0x100014C40, symSize: 0xF4 }
  - { offsetInCU: 0x17C36, offset: 0x17C36, size: 0x8, addend: 0x0, symName: __ZNSt3__122__make_exception_guardB7v160006INS_29_AllocatorDestroyRangeReverseINS_9allocatorINS_12basic_stringIcNS_11char_traitsIcEENS2_IcEEEEEEPS7_EEEENS_28__exception_guard_exceptionsIT_EESC_, symObjAddr: 0x10BA0, symBinAddr: 0x100014D34, symSize: 0x4C }
  - { offsetInCU: 0x17C6C, offset: 0x17C6C, size: 0x8, addend: 0x0, symName: __ZNSt3__112construct_atB7v160006INS_12basic_stringIcNS_11char_traitsIcEENS_9allocatorIcEEEEJRS6_EPS6_EEPT_SA_DpOT0_, symObjAddr: 0x10D44, symBinAddr: 0x100014ED8, symSize: 0x3C }
  - { offsetInCU: 0x17CDE, offset: 0x17CDE, size: 0x8, addend: 0x0, symName: __ZNSt3__119__allocator_destroyB7v160006INS_9allocatorINS_12basic_stringIcNS_11char_traitsIcEENS1_IcEEEEEENS_16reverse_iteratorIPS6_EESA_EEvRT_T0_T1_, symObjAddr: 0x10E38, symBinAddr: 0x100014FCC, symSize: 0x70 }
  - { offsetInCU: 0x17D41, offset: 0x17D41, size: 0x8, addend: 0x0, symName: __ZNSt3__118__debug_db_erase_cB7v160006INS_6vectorINS_12basic_stringIcNS_11char_traitsIcEENS_9allocatorIcEEEENS5_IS7_EEEEEEvPT_, symObjAddr: 0x10F94, symBinAddr: 0x100015128, symSize: 0x10 }
  - { offsetInCU: 0x17D72, offset: 0x17D72, size: 0x8, addend: 0x0, symName: __ZNSt3__119__allocate_at_leastB7v160006INS_9allocatorI13nameANDemailsEEEENS_19__allocation_resultINS_16allocator_traitsIT_E7pointerEEERS6_m, symObjAddr: 0x114F8, symBinAddr: 0x10001568C, symSize: 0x40 }
  - { offsetInCU: 0x17DB5, offset: 0x17DB5, size: 0x8, addend: 0x0, symName: __ZNSt3__142__uninitialized_allocator_move_if_noexceptB7v160006INS_9allocatorI13nameANDemailsEENS_16reverse_iteratorIPS2_EES6_S6_EET2_RT_T0_T1_S7_, symObjAddr: 0x11784, symBinAddr: 0x100015918, symSize: 0x12C }
  - { offsetInCU: 0x17E56, offset: 0x17E56, size: 0x8, addend: 0x0, symName: __ZNSt3__14swapB7v160006IP13nameANDemailsEENS_9enable_ifIXaasr21is_move_constructibleIT_EE5valuesr18is_move_assignableIS4_EE5valueEvE4typeERS4_S7_, symObjAddr: 0x118FC, symBinAddr: 0x100015A90, symSize: 0x3C }
  - { offsetInCU: 0x17EA6, offset: 0x17EA6, size: 0x8, addend: 0x0, symName: __ZNSt3__125__debug_db_invalidate_allB7v160006INS_6vectorI13nameANDemailsNS_9allocatorIS2_EEEEEEvPT_, symObjAddr: 0x11A00, symBinAddr: 0x100015B94, symSize: 0x10 }
  - { offsetInCU: 0x17ED7, offset: 0x17ED7, size: 0x8, addend: 0x0, symName: __ZNSt3__122__make_exception_guardB7v160006INS_29_AllocatorDestroyRangeReverseINS_9allocatorI13nameANDemailsEENS_16reverse_iteratorIPS3_EEEEEENS_28__exception_guard_exceptionsIT_EESA_, symObjAddr: 0x11A58, symBinAddr: 0x100015BEC, symSize: 0x4C }
  - { offsetInCU: 0x17F0D, offset: 0x17F0D, size: 0x8, addend: 0x0, symName: __ZNSt3__1neB7v160006IP13nameANDemailsS2_EEbRKNS_16reverse_iteratorIT_EERKNS3_IT0_EE, symObjAddr: 0x11AE8, symBinAddr: 0x100015C7C, symSize: 0x48 }
  - { offsetInCU: 0x17F59, offset: 0x17F59, size: 0x8, addend: 0x0, symName: __ZNSt3__112__to_addressB7v160006INS_16reverse_iteratorIP13nameANDemailsEEvEENS_5decayIDTclsr19__to_address_helperIT_EE6__callclsr3stdE7declvalIRKS6_EEEEE4typeES8_, symObjAddr: 0x11B60, symBinAddr: 0x100015CF4, symSize: 0x24 }
  - { offsetInCU: 0x17F8F, offset: 0x17F8F, size: 0x8, addend: 0x0, symName: __ZNSt3__112construct_atB7v160006I13nameANDemailsJS1_EPS1_EEPT_S4_DpOT0_, symObjAddr: 0x11CB0, symBinAddr: 0x100015E44, symSize: 0x3C }
  - { offsetInCU: 0x1802A, offset: 0x1802A, size: 0x8, addend: 0x0, symName: __ZNSt3__14prevB7v160006IP13nameANDemailsEENS_9enable_ifIXsr25__is_cpp17_input_iteratorIT_EE5valueES4_E4typeES4_NS_15iterator_traitsIS4_E15difference_typeE, symObjAddr: 0x11DCC, symBinAddr: 0x100015F60, symSize: 0x50 }
  - { offsetInCU: 0x1806D, offset: 0x1806D, size: 0x8, addend: 0x0, symName: __ZNSt3__19__advanceB7v160006IP13nameANDemailsEEvRT_NS_15iterator_traitsIS3_E15difference_typeENS_26random_access_iterator_tagE, symObjAddr: 0x11E6C, symBinAddr: 0x100016000, symSize: 0x30 }
  - { offsetInCU: 0x180B7, offset: 0x180B7, size: 0x8, addend: 0x0, symName: __ZNSt3__119__allocator_destroyB7v160006INS_9allocatorI13nameANDemailsEENS_16reverse_iteratorINS4_IPS2_EEEES7_EEvRT_T0_T1_, symObjAddr: 0x11FA0, symBinAddr: 0x100016134, symSize: 0x70 }
  - { offsetInCU: 0x1811C, offset: 0x1811C, size: 0x8, addend: 0x0, symName: __ZNSt3__1neB7v160006INS_16reverse_iteratorIP13nameANDemailsEES4_EEbRKNS1_IT_EERKNS1_IT0_EE, symObjAddr: 0x1204C, symBinAddr: 0x1000161E0, symSize: 0x60 }
  - { offsetInCU: 0x18168, offset: 0x18168, size: 0x8, addend: 0x0, symName: __ZNSt3__112__to_addressB7v160006INS_16reverse_iteratorINS1_IP13nameANDemailsEEEEvEENS_5decayIDTclsr19__to_address_helperIT_EE6__callclsr3stdE7declvalIRKS7_EEEEE4typeES9_, symObjAddr: 0x120D4, symBinAddr: 0x100016268, symSize: 0x24 }
  - { offsetInCU: 0x1819E, offset: 0x1819E, size: 0x8, addend: 0x0, symName: __ZNSt3__110destroy_atB7v160006I13nameANDemailsLi0EEEvPT_, symObjAddr: 0x1214C, symBinAddr: 0x1000162E0, symSize: 0x24 }
  - { offsetInCU: 0x181D5, offset: 0x181D5, size: 0x8, addend: 0x0, symName: __ZNSt3__112__destroy_atB7v160006I13nameANDemailsLi0EEEvPT_, symObjAddr: 0x12170, symBinAddr: 0x100016304, symSize: 0x24 }
  - { offsetInCU: 0x18235, offset: 0x18235, size: 0x8, addend: 0x0, symName: __ZNSt3__14prevB7v160006INS_16reverse_iteratorIP13nameANDemailsEEEENS_9enable_ifIXsr25__is_cpp17_input_iteratorIT_EE5valueES6_E4typeES6_NS_15iterator_traitsIS6_E15difference_typeE, symObjAddr: 0x12218, symBinAddr: 0x1000163AC, symSize: 0x60 }
  - { offsetInCU: 0x18278, offset: 0x18278, size: 0x8, addend: 0x0, symName: __ZNSt3__19__advanceB7v160006INS_16reverse_iteratorIP13nameANDemailsEEEEvRT_NS_15iterator_traitsIS5_E15difference_typeENS_26random_access_iterator_tagE, symObjAddr: 0x122C8, symBinAddr: 0x10001645C, symSize: 0x2C }
  - { offsetInCU: 0x182C2, offset: 0x182C2, size: 0x8, addend: 0x0, symName: __ZNSt3__14iotaB7v160006INS_11__wrap_iterIPiEEiEEvT_S4_T0_, symObjAddr: 0x12740, symBinAddr: 0x1000168D4, symSize: 0x70 }
  - { offsetInCU: 0x18318, offset: 0x18318, size: 0x8, addend: 0x0, symName: __ZNSt3__122__make_exception_guardB7v160006INS_6vectorIiNS_9allocatorIiEEE16__destroy_vectorEEENS_28__exception_guard_exceptionsIT_EES7_, symObjAddr: 0x12958, symBinAddr: 0x100016AEC, symSize: 0x40 }
  - { offsetInCU: 0x1834D, offset: 0x1834D, size: 0x8, addend: 0x0, symName: __ZNSt3__119__debug_db_insert_cB7v160006INS_6vectorIiNS_9allocatorIiEEEEEEvPT_, symObjAddr: 0x129CC, symBinAddr: 0x100016B60, symSize: 0x10 }
  - { offsetInCU: 0x1837E, offset: 0x1837E, size: 0x8, addend: 0x0, symName: __ZNSt3__119__allocate_at_leastB7v160006INS_9allocatorIiEEEENS_19__allocation_resultINS_16allocator_traitsIT_E7pointerEEERS5_m, symObjAddr: 0x12D54, symBinAddr: 0x100016EE8, symSize: 0x40 }
  - { offsetInCU: 0x183C2, offset: 0x183C2, size: 0x8, addend: 0x0, symName: __ZNSt3__112__to_addressB7v160006IiEEPT_S2_, symObjAddr: 0x13068, symBinAddr: 0x1000171FC, symSize: 0x14 }
  - { offsetInCU: 0x1841E, offset: 0x1841E, size: 0x8, addend: 0x0, symName: __ZNSt3__112construct_atB7v160006IiJEPiEEPT_S3_DpOT0_, symObjAddr: 0x131B0, symBinAddr: 0x100017344, symSize: 0x20 }
  - { offsetInCU: 0x1847B, offset: 0x1847B, size: 0x8, addend: 0x0, symName: __ZNSt3__118__debug_db_erase_cB7v160006INS_6vectorIiNS_9allocatorIiEEEEEEvPT_, symObjAddr: 0x13394, symBinAddr: 0x100017528, symSize: 0x10 }
  - { offsetInCU: 0x184AC, offset: 0x184AC, size: 0x8, addend: 0x0, symName: __ZNSt3__110destroy_atB7v160006IiLi0EEEvPT_, symObjAddr: 0x134DC, symBinAddr: 0x100017670, symSize: 0x24 }
  - { offsetInCU: 0x184E3, offset: 0x184E3, size: 0x8, addend: 0x0, symName: __ZNSt3__112__destroy_atB7v160006IiLi0EEEvPT_, symObjAddr: 0x13500, symBinAddr: 0x100017694, symSize: 0x10 }
  - { offsetInCU: 0x1851A, offset: 0x1851A, size: 0x8, addend: 0x0, symName: __ZNSt3__1neB7v160006IPiEEbRKNS_11__wrap_iterIT_EES6_, symObjAddr: 0x13550, symBinAddr: 0x1000176E4, symSize: 0x34 }
  - { offsetInCU: 0x1855D, offset: 0x1855D, size: 0x8, addend: 0x0, symName: __ZNSt3__1eqB7v160006IPiEEbRKNS_11__wrap_iterIT_EES6_, symObjAddr: 0x135BC, symBinAddr: 0x100017750, symSize: 0x48 }
  - { offsetInCU: 0x185A0, offset: 0x185A0, size: 0x8, addend: 0x0, symName: __ZNSt3__119__debug_db_insert_cB7v160006INS_13unordered_mapIiNS_6vectorINS_12basic_stringIcNS_11char_traitsIcEENS_9allocatorIcEEEENS6_IS8_EEEENS_4hashIiEENS_8equal_toIiEENS6_INS_4pairIKiSA_EEEEEEEEvPT_, symObjAddr: 0x13780, symBinAddr: 0x100017914, symSize: 0x10 }
  - { offsetInCU: 0x185D1, offset: 0x185D1, size: 0x8, addend: 0x0, symName: __ZNSt3__1neB7v160006ERKNS_15__hash_iteratorIPNS_11__hash_nodeINS_17__hash_value_typeINS_12basic_stringIcNS_11char_traitsIcEENS_9allocatorIcEEEEiEEPvEEEESF_, symObjAddr: 0x13E00, symBinAddr: 0x100017F94, symSize: 0x34 }
  - { offsetInCU: 0x1860F, offset: 0x1860F, size: 0x8, addend: 0x0, symName: __ZNSt3__1eqB7v160006ERKNS_15__hash_iteratorIPNS_11__hash_nodeINS_17__hash_value_typeINS_12basic_stringIcNS_11char_traitsIcEENS_9allocatorIcEEEEiEEPvEEEESF_, symObjAddr: 0x13E34, symBinAddr: 0x100017FC8, symSize: 0x30 }
  - { offsetInCU: 0x18715, offset: 0x18715, size: 0x8, addend: 0x0, symName: __ZNSt3__116forward_as_tupleB7v160006IJiEEENS_5tupleIJDpOT_EEES4_, symObjAddr: 0x14344, symBinAddr: 0x1000184D8, symSize: 0x2C }
  - { offsetInCU: 0x1874E, offset: 0x1874E, size: 0x8, addend: 0x0, symName: __ZNSt3__17launderB7v160006IKNS_4pairIKiNS_6vectorINS_12basic_stringIcNS_11char_traitsIcEENS_9allocatorIcEEEENS7_IS9_EEEEEEEEPT_SF_, symObjAddr: 0x14A34, symBinAddr: 0x100018BC8, symSize: 0x24 }
  - { offsetInCU: 0x18786, offset: 0x18786, size: 0x8, addend: 0x0, symName: __ZNSt3__19__launderB7v160006IKNS_4pairIKiNS_6vectorINS_12basic_stringIcNS_11char_traitsIcEENS_9allocatorIcEEEENS7_IS9_EEEEEEEEPT_SF_, symObjAddr: 0x14A58, symBinAddr: 0x100018BEC, symSize: 0x14 }
  - { offsetInCU: 0x18834, offset: 0x18834, size: 0x8, addend: 0x0, symName: __ZNSt3__112construct_atB7v160006INS_4pairIKiNS_6vectorINS_12basic_stringIcNS_11char_traitsIcEENS_9allocatorIcEEEENS7_IS9_EEEEEEJRKNS_21piecewise_construct_tENS_5tupleIJOiEEENSG_IJEEEEPSC_EEPT_SM_DpOT0_, symObjAddr: 0x14DE8, symBinAddr: 0x100018F7C, symSize: 0x50 }
  - { offsetInCU: 0x188CC, offset: 0x188CC, size: 0x8, addend: 0x0, symName: __ZNSt3__13getB7v160006ILm0EJOiEEERNS_13tuple_elementIXT_ENS_5tupleIJDpT0_EEEE4typeERS6_, symObjAddr: 0x14F04, symBinAddr: 0x100019098, symSize: 0x24 }
  - { offsetInCU: 0x1890F, offset: 0x1890F, size: 0x8, addend: 0x0, symName: __ZNSt3__125__debug_db_invalidate_allB7v160006INS_12__hash_tableINS_17__hash_value_typeIiNS_6vectorINS_12basic_stringIcNS_11char_traitsIcEENS_9allocatorIcEEEENS7_IS9_EEEEEENS_22__unordered_map_hasherIiSC_NS_4hashIiEENS_8equal_toIiEELb1EEENS_21__unordered_map_equalIiSC_SH_SF_Lb1EEENS7_ISC_EEEEEEvPT_, symObjAddr: 0x153FC, symBinAddr: 0x100019590, symSize: 0x10 }
  - { offsetInCU: 0x18940, offset: 0x18940, size: 0x8, addend: 0x0, symName: __ZNSt3__110destroy_atB7v160006INS_4pairIKiNS_6vectorINS_12basic_stringIcNS_11char_traitsIcEENS_9allocatorIcEEEENS7_IS9_EEEEEELi0EEEvPT_, symObjAddr: 0x15958, symBinAddr: 0x100019AEC, symSize: 0x24 }
  - { offsetInCU: 0x18977, offset: 0x18977, size: 0x8, addend: 0x0, symName: __ZNSt3__112__destroy_atB7v160006INS_4pairIKiNS_6vectorINS_12basic_stringIcNS_11char_traitsIcEENS_9allocatorIcEEEENS7_IS9_EEEEEELi0EEEvPT_, symObjAddr: 0x1597C, symBinAddr: 0x100019B10, symSize: 0x24 }
  - { offsetInCU: 0x189F6, offset: 0x189F6, size: 0x8, addend: 0x0, symName: __ZNSt3__17launderB7v160006INS_4pairIKiNS_6vectorINS_12basic_stringIcNS_11char_traitsIcEENS_9allocatorIcEEEENS7_IS9_EEEEEEEEPT_SE_, symObjAddr: 0x15BA0, symBinAddr: 0x100019D34, symSize: 0x24 }
  - { offsetInCU: 0x18A2E, offset: 0x18A2E, size: 0x8, addend: 0x0, symName: __ZNSt3__19__launderB7v160006INS_4pairIKiNS_6vectorINS_12basic_stringIcNS_11char_traitsIcEENS_9allocatorIcEEEENS7_IS9_EEEEEEEEPT_SE_, symObjAddr: 0x15BC4, symBinAddr: 0x100019D58, symSize: 0x14 }
  - { offsetInCU: 0x18A64, offset: 0x18A64, size: 0x8, addend: 0x0, symName: __ZNSt3__1neB7v160006ERKNS_15__hash_iteratorIPNS_11__hash_nodeINS_17__hash_value_typeIiNS_6vectorINS_12basic_stringIcNS_11char_traitsIcEENS_9allocatorIcEEEENS7_IS9_EEEEEEPvEEEESI_, symObjAddr: 0x15CBC, symBinAddr: 0x100019E50, symSize: 0x34 }
  - { offsetInCU: 0x18AA2, offset: 0x18AA2, size: 0x8, addend: 0x0, symName: __ZNSt3__1eqB7v160006ERKNS_15__hash_iteratorIPNS_11__hash_nodeINS_17__hash_value_typeIiNS_6vectorINS_12basic_stringIcNS_11char_traitsIcEENS_9allocatorIcEEEENS7_IS9_EEEEEEPvEEEESI_, symObjAddr: 0x15CF0, symBinAddr: 0x100019E84, symSize: 0x30 }
  - { offsetInCU: 0x18ADE, offset: 0x18ADE, size: 0x8, addend: 0x0, symName: __ZNSt3__1eqB7v160006IPNS_12basic_stringIcNS_11char_traitsIcEENS_9allocatorIcEEEEEEbRKNS_11__wrap_iterIT_EESC_, symObjAddr: 0x15D4C, symBinAddr: 0x100019EE0, symSize: 0x48 }
  - { offsetInCU: 0x18B48, offset: 0x18B48, size: 0x8, addend: 0x0, symName: __ZNSt3__112construct_atB7v160006INS_6vectorINS_12basic_stringIcNS_11char_traitsIcEENS_9allocatorIcEEEENS5_IS7_EEEEJS9_EPS9_EEPT_SC_DpOT0_, symObjAddr: 0x16084, symBinAddr: 0x10001A218, symSize: 0x3C }
  - { offsetInCU: 0x18BBA, offset: 0x18BBA, size: 0x8, addend: 0x0, symName: __ZNSt3__119__allocate_at_leastB7v160006INS_9allocatorINS_6vectorINS_12basic_stringIcNS_11char_traitsIcEENS1_IcEEEENS1_IS7_EEEEEEEENS_19__allocation_resultINS_16allocator_traitsIT_E7pointerEEERSD_m, symObjAddr: 0x16614, symBinAddr: 0x10001A7A8, symSize: 0x40 }
  - { offsetInCU: 0x18BFD, offset: 0x18BFD, size: 0x8, addend: 0x0, symName: __ZNSt3__142__uninitialized_allocator_move_if_noexceptB7v160006INS_9allocatorINS_6vectorINS_12basic_stringIcNS_11char_traitsIcEENS1_IcEEEENS1_IS7_EEEEEENS_16reverse_iteratorIPS9_EESD_SD_EET2_RT_T0_T1_SE_, symObjAddr: 0x168BC, symBinAddr: 0x10001AA50, symSize: 0x12C }
  - { offsetInCU: 0x18C9E, offset: 0x18C9E, size: 0x8, addend: 0x0, symName: __ZNSt3__14swapB7v160006IPNS_6vectorINS_12basic_stringIcNS_11char_traitsIcEENS_9allocatorIcEEEENS5_IS7_EEEEEENS_9enable_ifIXaasr21is_move_constructibleIT_EE5valuesr18is_move_assignableISC_EE5valueEvE4typeERSC_SF_, symObjAddr: 0x16A34, symBinAddr: 0x10001ABC8, symSize: 0x3C }
  - { offsetInCU: 0x18CEE, offset: 0x18CEE, size: 0x8, addend: 0x0, symName: __ZNSt3__125__debug_db_invalidate_allB7v160006INS_6vectorINS1_INS_12basic_stringIcNS_11char_traitsIcEENS_9allocatorIcEEEENS5_IS7_EEEENS5_IS9_EEEEEEvPT_, symObjAddr: 0x16B38, symBinAddr: 0x10001ACCC, symSize: 0x10 }
  - { offsetInCU: 0x18D1F, offset: 0x18D1F, size: 0x8, addend: 0x0, symName: __ZNSt3__122__make_exception_guardB7v160006INS_29_AllocatorDestroyRangeReverseINS_9allocatorINS_6vectorINS_12basic_stringIcNS_11char_traitsIcEENS2_IcEEEENS2_IS8_EEEEEENS_16reverse_iteratorIPSA_EEEEEENS_28__exception_guard_exceptionsIT_EESH_, symObjAddr: 0x16B90, symBinAddr: 0x10001AD24, symSize: 0x4C }
  - { offsetInCU: 0x18D55, offset: 0x18D55, size: 0x8, addend: 0x0, symName: __ZNSt3__1neB7v160006IPNS_6vectorINS_12basic_stringIcNS_11char_traitsIcEENS_9allocatorIcEEEENS5_IS7_EEEESA_EEbRKNS_16reverse_iteratorIT_EERKNSB_IT0_EE, symObjAddr: 0x16C20, symBinAddr: 0x10001ADB4, symSize: 0x48 }
  - { offsetInCU: 0x18DA1, offset: 0x18DA1, size: 0x8, addend: 0x0, symName: __ZNSt3__112__to_addressB7v160006INS_16reverse_iteratorIPNS_6vectorINS_12basic_stringIcNS_11char_traitsIcEENS_9allocatorIcEEEENS6_IS8_EEEEEEvEENS_5decayIDTclsr19__to_address_helperIT_EE6__callclsr3stdE7declvalIRKSE_EEEEE4typeESG_, symObjAddr: 0x16C68, symBinAddr: 0x10001ADFC, symSize: 0x24 }
  - { offsetInCU: 0x18E00, offset: 0x18E00, size: 0x8, addend: 0x0, symName: __ZNSt3__14prevB7v160006IPNS_6vectorINS_12basic_stringIcNS_11char_traitsIcEENS_9allocatorIcEEEENS5_IS7_EEEEEENS_9enable_ifIXsr25__is_cpp17_input_iteratorIT_EE5valueESC_E4typeESC_NS_15iterator_traitsISC_E15difference_typeE, symObjAddr: 0x16E1C, symBinAddr: 0x10001AFB0, symSize: 0x50 }
  - { offsetInCU: 0x18E43, offset: 0x18E43, size: 0x8, addend: 0x0, symName: __ZNSt3__19__advanceB7v160006IPNS_6vectorINS_12basic_stringIcNS_11char_traitsIcEENS_9allocatorIcEEEENS5_IS7_EEEEEEvRT_NS_15iterator_traitsISB_E15difference_typeENS_26random_access_iterator_tagE, symObjAddr: 0x16EBC, symBinAddr: 0x10001B050, symSize: 0x30 }
  - { offsetInCU: 0x18E8D, offset: 0x18E8D, size: 0x8, addend: 0x0, symName: __ZNSt3__119__allocator_destroyB7v160006INS_9allocatorINS_6vectorINS_12basic_stringIcNS_11char_traitsIcEENS1_IcEEEENS1_IS7_EEEEEENS_16reverse_iteratorINSB_IPS9_EEEESE_EEvRT_T0_T1_, symObjAddr: 0x16FF0, symBinAddr: 0x10001B184, symSize: 0x70 }
  - { offsetInCU: 0x18EF2, offset: 0x18EF2, size: 0x8, addend: 0x0, symName: __ZNSt3__1neB7v160006INS_16reverse_iteratorIPNS_6vectorINS_12basic_stringIcNS_11char_traitsIcEENS_9allocatorIcEEEENS6_IS8_EEEEEESC_EEbRKNS1_IT_EERKNS1_IT0_EE, symObjAddr: 0x1709C, symBinAddr: 0x10001B230, symSize: 0x60 }
  - { offsetInCU: 0x18F3E, offset: 0x18F3E, size: 0x8, addend: 0x0, symName: __ZNSt3__112__to_addressB7v160006INS_16reverse_iteratorINS1_IPNS_6vectorINS_12basic_stringIcNS_11char_traitsIcEENS_9allocatorIcEEEENS6_IS8_EEEEEEEEvEENS_5decayIDTclsr19__to_address_helperIT_EE6__callclsr3stdE7declvalIRKSF_EEEEE4typeESH_, symObjAddr: 0x17124, symBinAddr: 0x10001B2B8, symSize: 0x24 }
  - { offsetInCU: 0x18F74, offset: 0x18F74, size: 0x8, addend: 0x0, symName: __ZNSt3__110destroy_atB7v160006INS_6vectorINS_12basic_stringIcNS_11char_traitsIcEENS_9allocatorIcEEEENS5_IS7_EEEELi0EEEvPT_, symObjAddr: 0x1719C, symBinAddr: 0x10001B330, symSize: 0x24 }
  - { offsetInCU: 0x18FAB, offset: 0x18FAB, size: 0x8, addend: 0x0, symName: __ZNSt3__112__destroy_atB7v160006INS_6vectorINS_12basic_stringIcNS_11char_traitsIcEENS_9allocatorIcEEEENS5_IS7_EEEELi0EEEvPT_, symObjAddr: 0x171C0, symBinAddr: 0x10001B354, symSize: 0x24 }
  - { offsetInCU: 0x1900B, offset: 0x1900B, size: 0x8, addend: 0x0, symName: __ZNSt3__14prevB7v160006INS_16reverse_iteratorIPNS_6vectorINS_12basic_stringIcNS_11char_traitsIcEENS_9allocatorIcEEEENS6_IS8_EEEEEEEENS_9enable_ifIXsr25__is_cpp17_input_iteratorIT_EE5valueESE_E4typeESE_NS_15iterator_traitsISE_E15difference_typeE, symObjAddr: 0x17268, symBinAddr: 0x10001B3FC, symSize: 0x60 }
  - { offsetInCU: 0x1904E, offset: 0x1904E, size: 0x8, addend: 0x0, symName: __ZNSt3__19__advanceB7v160006INS_16reverse_iteratorIPNS_6vectorINS_12basic_stringIcNS_11char_traitsIcEENS_9allocatorIcEEEENS6_IS8_EEEEEEEEvRT_NS_15iterator_traitsISD_E15difference_typeENS_26random_access_iterator_tagE, symObjAddr: 0x17318, symBinAddr: 0x10001B4AC, symSize: 0x2C }
  - { offsetInCU: 0x19098, offset: 0x19098, size: 0x8, addend: 0x0, symName: __ZNSt3__118__debug_db_erase_cB7v160006INS_12__hash_tableINS_17__hash_value_typeIiNS_6vectorINS_12basic_stringIcNS_11char_traitsIcEENS_9allocatorIcEEEENS7_IS9_EEEEEENS_22__unordered_map_hasherIiSC_NS_4hashIiEENS_8equal_toIiEELb1EEENS_21__unordered_map_equalIiSC_SH_SF_Lb1EEENS7_ISC_EEEEEEvPT_, symObjAddr: 0x177C4, symBinAddr: 0x10001B958, symSize: 0x10 }
  - { offsetInCU: 0x190C9, offset: 0x190C9, size: 0x8, addend: 0x0, symName: __ZNSt3__15equalB7v160006INS_11__wrap_iterIPKNS_6vectorINS_12basic_stringIcNS_11char_traitsIcEENS_9allocatorIcEEEENS6_IS8_EEEEEESD_EEbT_SE_T0_, symObjAddr: 0x178C8, symBinAddr: 0x10001BA5C, symSize: 0x50 }
  - { offsetInCU: 0x19123, offset: 0x19123, size: 0x8, addend: 0x0, symName: __ZNSt3__15equalB7v160006INS_11__wrap_iterIPKNS_6vectorINS_12basic_stringIcNS_11char_traitsIcEENS_9allocatorIcEEEENS6_IS8_EEEEEESD_NS_10__equal_toEEEbT_SF_T0_T1_, symObjAddr: 0x17978, symBinAddr: 0x10001BB0C, symSize: 0xB0 }
  - { offsetInCU: 0x19194, offset: 0x19194, size: 0x8, addend: 0x0, symName: __ZNSt3__1neB7v160006IPKNS_6vectorINS_12basic_stringIcNS_11char_traitsIcEENS_9allocatorIcEEEENS5_IS7_EEEEEEbRKNS_11__wrap_iterIT_EESG_, symObjAddr: 0x17A28, symBinAddr: 0x10001BBBC, symSize: 0x34 }
  - { offsetInCU: 0x19243, offset: 0x19243, size: 0x8, addend: 0x0, symName: __ZNSt3__1eqB7v160006IPKNS_6vectorINS_12basic_stringIcNS_11char_traitsIcEENS_9allocatorIcEEEENS5_IS7_EEEEEEbRKNS_11__wrap_iterIT_EESG_, symObjAddr: 0x17AC8, symBinAddr: 0x10001BC5C, symSize: 0x48 }
  - { offsetInCU: 0x19286, offset: 0x19286, size: 0x8, addend: 0x0, symName: __ZNSt3__1eqB7v160006INS_12basic_stringIcNS_11char_traitsIcEENS_9allocatorIcEEEENS4_IS6_EEEEbRKNS_6vectorIT_T0_EESD_, symObjAddr: 0x17B28, symBinAddr: 0x10001BCBC, symSize: 0x9C }
  - { offsetInCU: 0x192E4, offset: 0x192E4, size: 0x8, addend: 0x0, symName: __ZNSt3__15equalB7v160006INS_11__wrap_iterIPKNS_12basic_stringIcNS_11char_traitsIcEENS_9allocatorIcEEEEEESA_EEbT_SB_T0_, symObjAddr: 0x17BC4, symBinAddr: 0x10001BD58, symSize: 0x50 }
  - { offsetInCU: 0x1933E, offset: 0x1933E, size: 0x8, addend: 0x0, symName: __ZNSt3__15equalB7v160006INS_11__wrap_iterIPKNS_12basic_stringIcNS_11char_traitsIcEENS_9allocatorIcEEEEEESA_NS_10__equal_toEEEbT_SC_T0_T1_, symObjAddr: 0x17C14, symBinAddr: 0x10001BDA8, symSize: 0xB0 }
  - { offsetInCU: 0x193AF, offset: 0x193AF, size: 0x8, addend: 0x0, symName: __ZNSt3__118__debug_db_erase_cB7v160006INS_6vectorINS1_INS_12basic_stringIcNS_11char_traitsIcEENS_9allocatorIcEEEENS5_IS7_EEEENS5_IS9_EEEEEEvPT_, symObjAddr: 0x17EC0, symBinAddr: 0x10001C054, symSize: 0x10 }
  - { offsetInCU: 0x193E0, offset: 0x193E0, size: 0x8, addend: 0x0, symName: __ZNSt3__118__debug_db_erase_cB7v160006INS_6vectorI13nameANDemailsNS_9allocatorIS2_EEEEEEvPT_, symObjAddr: 0x18148, symBinAddr: 0x10001C2DC, symSize: 0x10 }
  - { offsetInCU: 0x19411, offset: 0x19411, size: 0x8, addend: 0x0, symName: __ZNSt3__118__debug_db_erase_cB7v160006INS_12__hash_tableINS_17__hash_value_typeINS_12basic_stringIcNS_11char_traitsIcEENS_9allocatorIcEEEEiEENS_22__unordered_map_hasherIS8_S9_NS_4hashIS8_EENS_8equal_toIS8_EELb1EEENS_21__unordered_map_equalIS8_S9_SE_SC_Lb1EEENS6_IS9_EEEEEEvPT_, symObjAddr: 0x18364, symBinAddr: 0x10001C4F8, symSize: 0x10 }
  - { offsetInCU: 0x19442, offset: 0x19442, size: 0x8, addend: 0x0, symName: __ZNSt3__118__constexpr_strlenB7v160006EPKc, symObjAddr: 0x185C8, symBinAddr: 0x10001C75C, symSize: 0x24 }
  - { offsetInCU: 0x1946E, offset: 0x1946E, size: 0x8, addend: 0x0, symName: __ZNSt3__130__uninitialized_allocator_copyB7v160006INS_9allocatorINS_12basic_stringIcNS_11char_traitsIcEENS1_IcEEEEEEPKS6_S9_PS6_EET2_RT_T0_T1_SB_, symObjAddr: 0x187F8, symBinAddr: 0x10001C98C, symSize: 0xF4 }
  - { offsetInCU: 0x1950C, offset: 0x1950C, size: 0x8, addend: 0x0, symName: __ZNSt3__122__make_exception_guardB7v160006INS_6vectorINS1_INS_12basic_stringIcNS_11char_traitsIcEENS_9allocatorIcEEEENS5_IS7_EEEENS5_IS9_EEE16__destroy_vectorEEENS_28__exception_guard_exceptionsIT_EESE_, symObjAddr: 0x18A4C, symBinAddr: 0x10001CBE0, symSize: 0x40 }
  - { offsetInCU: 0x19541, offset: 0x19541, size: 0x8, addend: 0x0, symName: __ZNSt3__119__debug_db_insert_cB7v160006INS_6vectorINS1_INS_12basic_stringIcNS_11char_traitsIcEENS_9allocatorIcEEEENS5_IS7_EEEENS5_IS9_EEEEEEvPT_, symObjAddr: 0x18A8C, symBinAddr: 0x10001CC20, symSize: 0x10 }
  - { offsetInCU: 0x19572, offset: 0x19572, size: 0x8, addend: 0x0, symName: __ZNSt3__130__uninitialized_allocator_copyB7v160006INS_9allocatorINS_6vectorINS_12basic_stringIcNS_11char_traitsIcEENS1_IcEEEENS1_IS7_EEEEEEPKS9_SC_PS9_EET2_RT_T0_T1_SE_, symObjAddr: 0x18D80, symBinAddr: 0x10001CF14, symSize: 0xF4 }
  - { offsetInCU: 0x19610, offset: 0x19610, size: 0x8, addend: 0x0, symName: __ZNSt3__122__make_exception_guardB7v160006INS_29_AllocatorDestroyRangeReverseINS_9allocatorINS_6vectorINS_12basic_stringIcNS_11char_traitsIcEENS2_IcEEEENS2_IS8_EEEEEEPSA_EEEENS_28__exception_guard_exceptionsIT_EESF_, symObjAddr: 0x18E74, symBinAddr: 0x10001D008, symSize: 0x4C }
  - { offsetInCU: 0x19646, offset: 0x19646, size: 0x8, addend: 0x0, symName: __ZNSt3__112construct_atB7v160006INS_6vectorINS_12basic_stringIcNS_11char_traitsIcEENS_9allocatorIcEEEENS5_IS7_EEEEJRKS9_EPS9_EEPT_SE_DpOT0_, symObjAddr: 0x19018, symBinAddr: 0x10001D1AC, symSize: 0x3C }
  - { offsetInCU: 0x196B8, offset: 0x196B8, size: 0x8, addend: 0x0, symName: __ZNSt3__119__allocator_destroyB7v160006INS_9allocatorINS_6vectorINS_12basic_stringIcNS_11char_traitsIcEENS1_IcEEEENS1_IS7_EEEEEENS_16reverse_iteratorIPS9_EESD_EEvRT_T0_T1_, symObjAddr: 0x1910C, symBinAddr: 0x10001D2A0, symSize: 0x70 }
  - { offsetInCU: 0x1971B, offset: 0x1971B, size: 0x8, addend: 0x0, symName: __ZNSt3__116__pad_and_outputB7v160006IcNS_11char_traitsIcEEEENS_19ostreambuf_iteratorIT_T0_EES6_PKS4_S8_S8_RNS_8ios_baseES4_, symObjAddr: 0x1977C, symBinAddr: 0x10001D910, symSize: 0x240 }
  - { offsetInCU: 0x197EB, offset: 0x197EB, size: 0x8, addend: 0x0, symName: __ZNSt3__112__to_addressB7v160006IcEEPT_S2_, symObjAddr: 0x19BF4, symBinAddr: 0x10001DD88, symSize: 0x14 }
  - { offsetInCU: 0x1981F, offset: 0x1981F, size: 0x8, addend: 0x0, symName: __ZNSt3__19use_facetB7v160006INS_5ctypeIcEEEERKT_RKNS_6localeE, symObjAddr: 0x19DA0, symBinAddr: 0x10001DF34, symSize: 0x2C }
  - { offsetInCU: 0x1A357, offset: 0x1A357, size: 0x8, addend: 0x0, symName: __ZSt28__throw_bad_array_new_lengthB7v160006v, symObjAddr: 0xDAC8, symBinAddr: 0x100011C5C, symSize: 0x34 }
  - { offsetInCU: 0x1B2CF, offset: 0x1B2CF, size: 0x8, addend: 0x0, symName: __ZNSt3__16vectorINS_12basic_stringIcNS_11char_traitsIcEENS_9allocatorIcEEEENS4_IS6_EEE26__swap_out_circular_bufferERNS_14__split_bufferIS6_RS7_EE, symObjAddr: 0xEF7C, symBinAddr: 0x100013110, symSize: 0x118 }
  - { offsetInCU: 0x1B3C5, offset: 0x1B3C5, size: 0x8, addend: 0x0, symName: __ZNSt3__16vectorI13nameANDemailsNS_9allocatorIS1_EEE26__swap_out_circular_bufferERNS_14__split_bufferIS1_RS3_EE, symObjAddr: 0x110F4, symBinAddr: 0x100015288, symSize: 0x118 }
  - { offsetInCU: 0x1BAA6, offset: 0x1BAA6, size: 0x8, addend: 0x0, symName: __ZNSt3__16vectorINS0_INS_12basic_stringIcNS_11char_traitsIcEENS_9allocatorIcEEEENS4_IS6_EEEENS4_IS8_EEE26__swap_out_circular_bufferERNS_14__split_bufferIS8_RS9_EE, symObjAddr: 0x16210, symBinAddr: 0x10001A3A4, symSize: 0x118 }
  - { offsetInCU: 0x1BBD6, offset: 0x1BBD6, size: 0x8, addend: 0x0, symName: __ZNKSt3__16chrono15__duration_castINS0_8durationIxNS_5ratioILl1ELl1000000000EEEEENS2_IdNS3_ILl1ELl1EEEEES4_Lb1ELb0EEclB7v160006ERKS5_, symObjAddr: 0x194C0, symBinAddr: 0x10001D654, symSize: 0x50 }
  - { offsetInCU: 0x1E31F, offset: 0x1E31F, size: 0x8, addend: 0x0, symName: __Z17normalizeAccountsRNSt3__16vectorINS0_INS_12basic_stringIcNS_11char_traitsIcEENS_9allocatorIcEEEENS4_IS6_EEEENS4_IS8_EEEE, symObjAddr: 0x0, symBinAddr: 0x100004194, symSize: 0xCC }
  - { offsetInCU: 0x1E3CF, offset: 0x1E3CF, size: 0x8, addend: 0x0, symName: __ZNSt3__16vectorINS0_INS_12basic_stringIcNS_11char_traitsIcEENS_9allocatorIcEEEENS4_IS6_EEEENS4_IS8_EEE5beginB7v160006Ev, symObjAddr: 0xCC, symBinAddr: 0x100004260, symSize: 0x30 }
  - { offsetInCU: 0x1E3F7, offset: 0x1E3F7, size: 0x8, addend: 0x0, symName: __ZNSt3__16vectorINS0_INS_12basic_stringIcNS_11char_traitsIcEENS_9allocatorIcEEEENS4_IS6_EEEENS4_IS8_EEE3endB7v160006Ev, symObjAddr: 0xFC, symBinAddr: 0x100004290, symSize: 0x30 }
  - { offsetInCU: 0x1E41F, offset: 0x1E41F, size: 0x8, addend: 0x0, symName: __ZNKSt3__111__wrap_iterIPNS_6vectorINS_12basic_stringIcNS_11char_traitsIcEENS_9allocatorIcEEEENS5_IS7_EEEEEdeB7v160006Ev, symObjAddr: 0x160, symBinAddr: 0x1000042F4, symSize: 0x18 }
  - { offsetInCU: 0x1E445, offset: 0x1E445, size: 0x8, addend: 0x0, symName: __ZNSt3__16vectorINS_12basic_stringIcNS_11char_traitsIcEENS_9allocatorIcEEEENS4_IS6_EEE5beginB7v160006Ev, symObjAddr: 0x1B4, symBinAddr: 0x100004348, symSize: 0x30 }
  - { offsetInCU: 0x1E46D, offset: 0x1E46D, size: 0x8, addend: 0x0, symName: __ZNKSt3__111__wrap_iterIPNS_12basic_stringIcNS_11char_traitsIcEENS_9allocatorIcEEEEEplB7v160006El, symObjAddr: 0x1E4, symBinAddr: 0x100004378, symSize: 0x3C }
  - { offsetInCU: 0x1E4AF, offset: 0x1E4AF, size: 0x8, addend: 0x0, symName: __ZNSt3__16vectorINS_12basic_stringIcNS_11char_traitsIcEENS_9allocatorIcEEEENS4_IS6_EEE3endB7v160006Ev, symObjAddr: 0x220, symBinAddr: 0x1000043B4, symSize: 0x30 }
  - { offsetInCU: 0x1E4D7, offset: 0x1E4D7, size: 0x8, addend: 0x0, symName: __ZNSt3__111__wrap_iterIPNS_6vectorINS_12basic_stringIcNS_11char_traitsIcEENS_9allocatorIcEEEENS5_IS7_EEEEEppB7v160006Ev, symObjAddr: 0x250, symBinAddr: 0x1000043E4, symSize: 0x20 }
  - { offsetInCU: 0x1E4FC, offset: 0x1E4FC, size: 0x8, addend: 0x0, symName: __Z13printAccountsRKNSt3__16vectorINS0_INS_12basic_stringIcNS_11char_traitsIcEENS_9allocatorIcEEEENS4_IS6_EEEENS4_IS8_EEEE, symObjAddr: 0x2B0, symBinAddr: 0x100004444, symSize: 0x1D0 }
  - { offsetInCU: 0x1E55D, offset: 0x1E55D, size: 0x8, addend: 0x0, symName: __ZNKSt3__16vectorINS0_INS_12basic_stringIcNS_11char_traitsIcEENS_9allocatorIcEEEENS4_IS6_EEEENS4_IS8_EEE4sizeB7v160006Ev, symObjAddr: 0x4C8, symBinAddr: 0x10000465C, symSize: 0x28 }
  - { offsetInCU: 0x1E583, offset: 0x1E583, size: 0x8, addend: 0x0, symName: __ZNKSt3__16vectorINS0_INS_12basic_stringIcNS_11char_traitsIcEENS_9allocatorIcEEEENS4_IS6_EEEENS4_IS8_EEEixB7v160006Em, symObjAddr: 0x4F0, symBinAddr: 0x100004684, symSize: 0x2C }
  - { offsetInCU: 0x1E5BA, offset: 0x1E5BA, size: 0x8, addend: 0x0, symName: __ZNKSt3__16vectorINS_12basic_stringIcNS_11char_traitsIcEENS_9allocatorIcEEEENS4_IS6_EEE4sizeB7v160006Ev, symObjAddr: 0x51C, symBinAddr: 0x1000046B0, symSize: 0x28 }
  - { offsetInCU: 0x1E5E0, offset: 0x1E5E0, size: 0x8, addend: 0x0, symName: __ZNKSt3__16vectorINS_12basic_stringIcNS_11char_traitsIcEENS_9allocatorIcEEEENS4_IS6_EEEixB7v160006Em, symObjAddr: 0x590, symBinAddr: 0x100004724, symSize: 0x2C }
  - { offsetInCU: 0x1E616, offset: 0x1E616, size: 0x8, addend: 0x0, symName: __Z7runTestiNSt3__16vectorINS0_INS_12basic_stringIcNS_11char_traitsIcEENS_9allocatorIcEEEENS4_IS6_EEEENS4_IS8_EEEESA_, symObjAddr: 0x5BC, symBinAddr: 0x100004750, symSize: 0x1C8 }
  - { offsetInCU: 0x1E7BB, offset: 0x1E7BB, size: 0x8, addend: 0x0, symName: __ZN8SolutionC1Ev, symObjAddr: 0x784, symBinAddr: 0x100004918, symSize: 0x2C }
  - { offsetInCU: 0x1E7E7, offset: 0x1E7E7, size: 0x8, addend: 0x0, symName: __ZN8Solution13accountsMergeERNSt3__16vectorINS1_INS0_12basic_stringIcNS0_11char_traitsIcEENS0_9allocatorIcEEEENS5_IS7_EEEENS5_IS9_EEEE, symObjAddr: 0x7B0, symBinAddr: 0x100004944, symSize: 0x5C4 }
  - { offsetInCU: 0x1EAA5, offset: 0x1EAA5, size: 0x8, addend: 0x0, symName: __ZNSt3__16vectorINS0_INS_12basic_stringIcNS_11char_traitsIcEENS_9allocatorIcEEEENS4_IS6_EEEENS4_IS8_EEED1B7v160006Ev, symObjAddr: 0xE10, symBinAddr: 0x100004FA4, symSize: 0x2C }
  - { offsetInCU: 0x1EACF, offset: 0x1EACF, size: 0x8, addend: 0x0, symName: __ZN8SolutionD1Ev, symObjAddr: 0xE3C, symBinAddr: 0x100004FD0, symSize: 0x2C }
  - { offsetInCU: 0x1EAFB, offset: 0x1EAFB, size: 0x8, addend: 0x0, symName: _main, symObjAddr: 0xE68, symBinAddr: 0x100004FFC, symSize: 0x3C60 }
  - { offsetInCU: 0x1EB8B, offset: 0x1EB8B, size: 0x8, addend: 0x0, symName: __ZNSt3__112basic_stringIcNS_11char_traitsIcEENS_9allocatorIcEEEC1B7v160006IDnEEPKc, symObjAddr: 0x4AC8, symBinAddr: 0x100008C5C, symSize: 0x34 }
  - { offsetInCU: 0x1EBC9, offset: 0x1EBC9, size: 0x8, addend: 0x0, symName: __ZNSt3__16vectorINS_12basic_stringIcNS_11char_traitsIcEENS_9allocatorIcEEEENS4_IS6_EEEC1B7v160006ESt16initializer_listIS6_E, symObjAddr: 0x4AFC, symBinAddr: 0x100008C90, symSize: 0x3C }
  - { offsetInCU: 0x1EC04, offset: 0x1EC04, size: 0x8, addend: 0x0, symName: __ZNSt3__16vectorINS0_INS_12basic_stringIcNS_11char_traitsIcEENS_9allocatorIcEEEENS4_IS6_EEEENS4_IS8_EEEC1B7v160006ESt16initializer_listIS8_E, symObjAddr: 0x4B38, symBinAddr: 0x100008CCC, symSize: 0x3C }
  - { offsetInCU: 0x1EC3F, offset: 0x1EC3F, size: 0x8, addend: 0x0, symName: __ZNSt3__16vectorINS_12basic_stringIcNS_11char_traitsIcEENS_9allocatorIcEEEENS4_IS6_EEED1B7v160006Ev, symObjAddr: 0x4B74, symBinAddr: 0x100008D08, symSize: 0x2C }
  - { offsetInCU: 0x1EC69, offset: 0x1EC69, size: 0x8, addend: 0x0, symName: __ZNSt3__16vectorINS0_INS_12basic_stringIcNS_11char_traitsIcEENS_9allocatorIcEEEENS4_IS6_EEEENS4_IS8_EEEC1B7v160006Ev, symObjAddr: 0x4BA0, symBinAddr: 0x100008D34, symSize: 0x2C }
  - { offsetInCU: 0x1EC93, offset: 0x1EC93, size: 0x8, addend: 0x0, symName: __ZNSt3__16vectorINS0_INS_12basic_stringIcNS_11char_traitsIcEENS_9allocatorIcEEEENS4_IS6_EEEENS4_IS8_EEE7reserveEm, symObjAddr: 0x4BCC, symBinAddr: 0x100008D60, symSize: 0xE8 }
  - { offsetInCU: 0x1ECEF, offset: 0x1ECEF, size: 0x8, addend: 0x0, symName: __ZNSt3__16vectorINS0_INS_12basic_stringIcNS_11char_traitsIcEENS_9allocatorIcEEEENS4_IS6_EEEENS4_IS8_EEE9push_backB7v160006EOS8_, symObjAddr: 0x4CB4, symBinAddr: 0x100008E48, symSize: 0x6C }
  - { offsetInCU: 0x1ED2C, offset: 0x1ED2C, size: 0x8, addend: 0x0, symName: __ZNSt3__16chrono8durationIdNS_5ratioILl1ELl1EEEEC1B7v160006IxNS2_ILl1ELl1000000000EEEEERKNS1_IT_T0_EEPNS_9enable_ifIXaasr13__no_overflowIS8_S3_EE5valueooL_ZNS_17integral_constantIbLb1EE5valueEEaaeqsr13__no_overflowIS8_S3_E4typeE3denLi1Entsr23treat_as_floating_pointIS7_EE5valueEvE4typeE, symObjAddr: 0x4DFC, symBinAddr: 0x100008F90, symSize: 0x3C }
  - { offsetInCU: 0x1ED82, offset: 0x1ED82, size: 0x8, addend: 0x0, symName: __ZNKSt3__16chrono8durationIdNS_5ratioILl1ELl1EEEE5countB7v160006Ev, symObjAddr: 0x4E38, symBinAddr: 0x100008FCC, symSize: 0x18 }
  - { offsetInCU: 0x1EDA8, offset: 0x1EDA8, size: 0x8, addend: 0x0, symName: __ZNSt3__16vectorINS0_INS_12basic_stringIcNS_11char_traitsIcEENS_9allocatorIcEEEENS4_IS6_EEEENS4_IS8_EEE11__make_iterB7v160006EPS8_, symObjAddr: 0x4E50, symBinAddr: 0x100008FE4, symSize: 0x34 }
  - { offsetInCU: 0x1EDDD, offset: 0x1EDDD, size: 0x8, addend: 0x0, symName: __ZNSt3__111__wrap_iterIPNS_6vectorINS_12basic_stringIcNS_11char_traitsIcEENS_9allocatorIcEEEENS5_IS7_EEEEEC1B7v160006EPKvSA_, symObjAddr: 0x4E84, symBinAddr: 0x100009018, symSize: 0x3C }
  - { offsetInCU: 0x1EE23, offset: 0x1EE23, size: 0x8, addend: 0x0, symName: __ZNSt3__111__wrap_iterIPNS_6vectorINS_12basic_stringIcNS_11char_traitsIcEENS_9allocatorIcEEEENS5_IS7_EEEEEC2B7v160006EPKvSA_, symObjAddr: 0x4EC0, symBinAddr: 0x100009054, symSize: 0x24 }
  - { offsetInCU: 0x1EE69, offset: 0x1EE69, size: 0x8, addend: 0x0, symName: __ZNKSt3__111__wrap_iterIPNS_6vectorINS_12basic_stringIcNS_11char_traitsIcEENS_9allocatorIcEEEENS5_IS7_EEEEE4baseB7v160006Ev, symObjAddr: 0x4F2C, symBinAddr: 0x1000090C0, symSize: 0x18 }
  - { offsetInCU: 0x1EEA0, offset: 0x1EEA0, size: 0x8, addend: 0x0, symName: __ZNSt3__116_UnwrapAlgPolicyIRNS_6__lessINS_12basic_stringIcNS_11char_traitsIcEENS_9allocatorIcEEEES7_EEE10__get_compB7v160006ES9_, symObjAddr: 0x5104, symBinAddr: 0x100009298, symSize: 0x14 }
  - { offsetInCU: 0x1EEC3, offset: 0x1EEC3, size: 0x8, addend: 0x0, symName: __ZNKSt3__16__lessINS_12basic_stringIcNS_11char_traitsIcEENS_9allocatorIcEEEES6_EclB7v160006ERKS6_S9_, symObjAddr: 0x581C, symBinAddr: 0x1000099B0, symSize: 0x50 }
  - { offsetInCU: 0x1EF05, offset: 0x1EF05, size: 0x8, addend: 0x0, symName: __ZNSt3__18_IterOpsINS_17_ClassicAlgPolicyEE9iter_swapB7v160006IRPNS_12basic_stringIcNS_11char_traitsIcEENS_9allocatorIcEEEESB_EEvOT_OT0_, symObjAddr: 0x586C, symBinAddr: 0x100009A00, symSize: 0x34 }
  - { offsetInCU: 0x1EF58, offset: 0x1EF58, size: 0x8, addend: 0x0, symName: __ZNSt3__120_CmpUnspecifiedParamC1B7v160006EMS0_i, symObjAddr: 0x6118, symBinAddr: 0x10000A2AC, symSize: 0x34 }
  - { offsetInCU: 0x1EF8D, offset: 0x1EF8D, size: 0x8, addend: 0x0, symName: __ZNKSt3__112basic_stringIcNS_11char_traitsIcEENS_9allocatorIcEEEcvNS_17basic_string_viewIcS2_EEB7v160006Ev, symObjAddr: 0x61C8, symBinAddr: 0x10000A35C, symSize: 0x50 }
  - { offsetInCU: 0x1EFB3, offset: 0x1EFB3, size: 0x8, addend: 0x0, symName: __ZNKSt3__117basic_string_viewIcNS_11char_traitsIcEEE7compareES3_, symObjAddr: 0x6218, symBinAddr: 0x10000A3AC, symSize: 0x13C }
  - { offsetInCU: 0x1F006, offset: 0x1F006, size: 0x8, addend: 0x0, symName: __ZNKSt3__117basic_string_viewIcNS_11char_traitsIcEEE4sizeB7v160006Ev, symObjAddr: 0x6380, symBinAddr: 0x10000A514, symSize: 0x18 }
  - { offsetInCU: 0x1F02C, offset: 0x1F02C, size: 0x8, addend: 0x0, symName: __ZNSt3__111char_traitsIcE7compareEPKcS3_m, symObjAddr: 0x63A4, symBinAddr: 0x10000A538, symSize: 0x6C }
  - { offsetInCU: 0x1F06B, offset: 0x1F06B, size: 0x8, addend: 0x0, symName: __ZNKSt3__117basic_string_viewIcNS_11char_traitsIcEEE4dataB7v160006Ev, symObjAddr: 0x6410, symBinAddr: 0x10000A5A4, symSize: 0x18 }
  - { offsetInCU: 0x1F09C, offset: 0x1F09C, size: 0x8, addend: 0x0, symName: __ZNKSt3__16__lessImmEclB7v160006ERKmS3_, symObjAddr: 0x647C, symBinAddr: 0x10000A610, symSize: 0x34 }
  - { offsetInCU: 0x1F0DE, offset: 0x1F0DE, size: 0x8, addend: 0x0, symName: __ZNKSt3__112basic_stringIcNS_11char_traitsIcEENS_9allocatorIcEEE4dataB7v160006Ev, symObjAddr: 0x64E4, symBinAddr: 0x10000A678, symSize: 0x28 }
  - { offsetInCU: 0x1F104, offset: 0x1F104, size: 0x8, addend: 0x0, symName: __ZNKSt3__112basic_stringIcNS_11char_traitsIcEENS_9allocatorIcEEE4sizeB7v160006Ev, symObjAddr: 0x650C, symBinAddr: 0x10000A6A0, symSize: 0x54 }
  - { offsetInCU: 0x1F12A, offset: 0x1F12A, size: 0x8, addend: 0x0, symName: __ZNSt3__117basic_string_viewIcNS_11char_traitsIcEEEC1B7v160006EPKcm, symObjAddr: 0x6560, symBinAddr: 0x10000A6F4, symSize: 0x3C }
  - { offsetInCU: 0x1F172, offset: 0x1F172, size: 0x8, addend: 0x0, symName: __ZNKSt3__112basic_stringIcNS_11char_traitsIcEENS_9allocatorIcEEE13__get_pointerB7v160006Ev, symObjAddr: 0x65B0, symBinAddr: 0x10000A744, symSize: 0x54 }
  - { offsetInCU: 0x1F198, offset: 0x1F198, size: 0x8, addend: 0x0, symName: __ZNKSt3__112basic_stringIcNS_11char_traitsIcEENS_9allocatorIcEEE9__is_longB7v160006Ev, symObjAddr: 0x6604, symBinAddr: 0x10000A798, symSize: 0x38 }
  - { offsetInCU: 0x1F1BE, offset: 0x1F1BE, size: 0x8, addend: 0x0, symName: __ZNKSt3__112basic_stringIcNS_11char_traitsIcEENS_9allocatorIcEEE18__get_long_pointerB7v160006Ev, symObjAddr: 0x663C, symBinAddr: 0x10000A7D0, symSize: 0x28 }
  - { offsetInCU: 0x1F1E4, offset: 0x1F1E4, size: 0x8, addend: 0x0, symName: __ZNKSt3__112basic_stringIcNS_11char_traitsIcEENS_9allocatorIcEEE19__get_short_pointerB7v160006Ev, symObjAddr: 0x6664, symBinAddr: 0x10000A7F8, symSize: 0x28 }
  - { offsetInCU: 0x1F20A, offset: 0x1F20A, size: 0x8, addend: 0x0, symName: __ZNKSt3__117__compressed_pairINS_12basic_stringIcNS_11char_traitsIcEENS_9allocatorIcEEE5__repES5_E5firstB7v160006Ev, symObjAddr: 0x668C, symBinAddr: 0x10000A820, symSize: 0x24 }
  - { offsetInCU: 0x1F230, offset: 0x1F230, size: 0x8, addend: 0x0, symName: __ZNKSt3__122__compressed_pair_elemINS_12basic_stringIcNS_11char_traitsIcEENS_9allocatorIcEEE5__repELi0ELb0EE5__getB7v160006Ev, symObjAddr: 0x66B0, symBinAddr: 0x10000A844, symSize: 0x14 }
  - { offsetInCU: 0x1F256, offset: 0x1F256, size: 0x8, addend: 0x0, symName: __ZNSt3__114pointer_traitsIPKcE10pointer_toB7v160006ERS1_, symObjAddr: 0x66C4, symBinAddr: 0x10000A858, symSize: 0x14 }
  - { offsetInCU: 0x1F279, offset: 0x1F279, size: 0x8, addend: 0x0, symName: __ZNKSt3__112basic_stringIcNS_11char_traitsIcEENS_9allocatorIcEEE15__get_long_sizeB7v160006Ev, symObjAddr: 0x66D8, symBinAddr: 0x10000A86C, symSize: 0x28 }
  - { offsetInCU: 0x1F29F, offset: 0x1F29F, size: 0x8, addend: 0x0, symName: __ZNKSt3__112basic_stringIcNS_11char_traitsIcEENS_9allocatorIcEEE16__get_short_sizeB7v160006Ev, symObjAddr: 0x6700, symBinAddr: 0x10000A894, symSize: 0x34 }
  - { offsetInCU: 0x1F2C5, offset: 0x1F2C5, size: 0x8, addend: 0x0, symName: __ZNSt3__117basic_string_viewIcNS_11char_traitsIcEEEC2B7v160006EPKcm, symObjAddr: 0x6734, symBinAddr: 0x10000A8C8, symSize: 0x50 }
  - { offsetInCU: 0x1F30D, offset: 0x1F30D, size: 0x8, addend: 0x0, symName: __ZNSt3__120_CmpUnspecifiedParamC2B7v160006EMS0_i, symObjAddr: 0x6784, symBinAddr: 0x10000A918, symSize: 0x18 }
  - { offsetInCU: 0x1F342, offset: 0x1F342, size: 0x8, addend: 0x0, symName: __ZNSt3__112basic_stringIcNS_11char_traitsIcEENS_9allocatorIcEEE4swapB7v160006ERS5_, symObjAddr: 0x67F4, symBinAddr: 0x10000A988, symSize: 0xB8 }
  - { offsetInCU: 0x1F379, offset: 0x1F379, size: 0x8, addend: 0x0, symName: __ZNSt3__117__compressed_pairINS_12basic_stringIcNS_11char_traitsIcEENS_9allocatorIcEEE5__repES5_E5firstB7v160006Ev, symObjAddr: 0x6924, symBinAddr: 0x10000AAB8, symSize: 0x24 }
  - { offsetInCU: 0x1F39F, offset: 0x1F39F, size: 0x8, addend: 0x0, symName: __ZNSt3__112basic_stringIcNS_11char_traitsIcEENS_9allocatorIcEEE7__allocB7v160006Ev, symObjAddr: 0x6974, symBinAddr: 0x10000AB08, symSize: 0x24 }
  - { offsetInCU: 0x1F3C5, offset: 0x1F3C5, size: 0x8, addend: 0x0, symName: __ZNSt3__122__compressed_pair_elemINS_12basic_stringIcNS_11char_traitsIcEENS_9allocatorIcEEE5__repELi0ELb0EE5__getB7v160006Ev, symObjAddr: 0x6998, symBinAddr: 0x10000AB2C, symSize: 0x14 }
  - { offsetInCU: 0x1F3EB, offset: 0x1F3EB, size: 0x8, addend: 0x0, symName: __ZNSt3__117__compressed_pairINS_12basic_stringIcNS_11char_traitsIcEENS_9allocatorIcEEE5__repES5_E6secondB7v160006Ev, symObjAddr: 0x69C0, symBinAddr: 0x10000AB54, symSize: 0x24 }
  - { offsetInCU: 0x1F411, offset: 0x1F411, size: 0x8, addend: 0x0, symName: __ZNSt3__122__compressed_pair_elemINS_9allocatorIcEELi1ELb1EE5__getB7v160006Ev, symObjAddr: 0x69E4, symBinAddr: 0x10000AB78, symSize: 0x14 }
  - { offsetInCU: 0x1F43D, offset: 0x1F43D, size: 0x8, addend: 0x0, symName: __ZNSt3__18_IterOpsINS_17_ClassicAlgPolicyEE11__iter_moveB7v160006IRPNS_12basic_stringIcNS_11char_traitsIcEENS_9allocatorIcEEEEEENS_9enable_ifIXsr12is_referenceIDTdeclsr3stdE7declvalIRT_EEEEE5valueEDTclsr3stdE4movedeclsr3stdE7declvalISE_EEEEE4typeEOSD_, symObjAddr: 0x6ADC, symBinAddr: 0x10000AC70, symSize: 0x28 }
  - { offsetInCU: 0x1F469, offset: 0x1F469, size: 0x8, addend: 0x0, symName: __ZNSt3__112basic_stringIcNS_11char_traitsIcEENS_9allocatorIcEEEC1B7v160006EOS5_, symObjAddr: 0x6B04, symBinAddr: 0x10000AC98, symSize: 0x34 }
  - { offsetInCU: 0x1F4A2, offset: 0x1F4A2, size: 0x8, addend: 0x0, symName: __ZNSt3__112basic_stringIcNS_11char_traitsIcEENS_9allocatorIcEEEaSB7v160006EOS5_, symObjAddr: 0x6B38, symBinAddr: 0x10000ACCC, symSize: 0x34 }
  - { offsetInCU: 0x1F4D7, offset: 0x1F4D7, size: 0x8, addend: 0x0, symName: __ZNSt3__18_IterOpsINS_17_ClassicAlgPolicyEE25__validate_iter_referenceB7v160006IRPNS_12basic_stringIcNS_11char_traitsIcEENS_9allocatorIcEEEEEEvv, symObjAddr: 0x6B6C, symBinAddr: 0x10000AD00, symSize: 0x4 }
  - { offsetInCU: 0x1F4F5, offset: 0x1F4F5, size: 0x8, addend: 0x0, symName: __ZNSt3__112basic_stringIcNS_11char_traitsIcEENS_9allocatorIcEEEC2B7v160006EOS5_, symObjAddr: 0x6B70, symBinAddr: 0x10000AD04, symSize: 0x84 }
  - { offsetInCU: 0x1F52E, offset: 0x1F52E, size: 0x8, addend: 0x0, symName: __ZNSt3__112basic_stringIcNS_11char_traitsIcEENS_9allocatorIcEEE14__default_initB7v160006Ev, symObjAddr: 0x6BF4, symBinAddr: 0x10000AD88, symSize: 0x40 }
  - { offsetInCU: 0x1F554, offset: 0x1F554, size: 0x8, addend: 0x0, symName: __ZNSt3__112basic_stringIcNS_11char_traitsIcEENS_9allocatorIcEEE13__move_assignB7v160006ERS5_NS_17integral_constantIbLb1EEE, symObjAddr: 0x6C44, symBinAddr: 0x10000ADD8, symSize: 0xC8 }
  - { offsetInCU: 0x1F596, offset: 0x1F596, size: 0x8, addend: 0x0, symName: __ZNSt3__116allocator_traitsINS_9allocatorIcEEE10deallocateB7v160006ERS2_Pcm, symObjAddr: 0x6D0C, symBinAddr: 0x10000AEA0, symSize: 0x34 }
  - { offsetInCU: 0x1F5D8, offset: 0x1F5D8, size: 0x8, addend: 0x0, symName: __ZNSt3__112basic_stringIcNS_11char_traitsIcEENS_9allocatorIcEEE18__get_long_pointerB7v160006Ev, symObjAddr: 0x6D40, symBinAddr: 0x10000AED4, symSize: 0x28 }
  - { offsetInCU: 0x1F5FE, offset: 0x1F5FE, size: 0x8, addend: 0x0, symName: __ZNKSt3__112basic_stringIcNS_11char_traitsIcEENS_9allocatorIcEEE14__get_long_capB7v160006Ev, symObjAddr: 0x6D68, symBinAddr: 0x10000AEFC, symSize: 0x30 }
  - { offsetInCU: 0x1F624, offset: 0x1F624, size: 0x8, addend: 0x0, symName: __ZNSt3__112basic_stringIcNS_11char_traitsIcEENS_9allocatorIcEEE19__move_assign_allocB7v160006ERS5_, symObjAddr: 0x6D98, symBinAddr: 0x10000AF2C, symSize: 0x2C }
  - { offsetInCU: 0x1F659, offset: 0x1F659, size: 0x8, addend: 0x0, symName: __ZNSt3__112basic_stringIcNS_11char_traitsIcEENS_9allocatorIcEEE16__set_short_sizeB7v160006Em, symObjAddr: 0x6DC4, symBinAddr: 0x10000AF58, symSize: 0x78 }
  - { offsetInCU: 0x1F68E, offset: 0x1F68E, size: 0x8, addend: 0x0, symName: __ZNSt3__111char_traitsIcE6assignERcRKc, symObjAddr: 0x6E3C, symBinAddr: 0x10000AFD0, symSize: 0x24 }
  - { offsetInCU: 0x1F6BF, offset: 0x1F6BF, size: 0x8, addend: 0x0, symName: __ZNSt3__112basic_stringIcNS_11char_traitsIcEENS_9allocatorIcEEE19__get_short_pointerB7v160006Ev, symObjAddr: 0x6E60, symBinAddr: 0x10000AFF4, symSize: 0x28 }
  - { offsetInCU: 0x1F6E5, offset: 0x1F6E5, size: 0x8, addend: 0x0, symName: __ZNSt3__19allocatorIcE10deallocateB7v160006EPcm, symObjAddr: 0x6E88, symBinAddr: 0x10000B01C, symSize: 0x40 }
  - { offsetInCU: 0x1F727, offset: 0x1F727, size: 0x8, addend: 0x0, symName: __ZNSt3__112basic_stringIcNS_11char_traitsIcEENS_9allocatorIcEEE19__move_assign_allocB7v160006ERS5_NS_17integral_constantIbLb1EEE, symObjAddr: 0x6FF0, symBinAddr: 0x10000B184, symSize: 0x38 }
  - { offsetInCU: 0x1F767, offset: 0x1F767, size: 0x8, addend: 0x0, symName: __ZNSt3__114pointer_traitsIPcE10pointer_toB7v160006ERc, symObjAddr: 0x7028, symBinAddr: 0x10000B1BC, symSize: 0x14 }
  - { offsetInCU: 0x1F78A, offset: 0x1F78A, size: 0x8, addend: 0x0, symName: __ZNSt3__18_IterOpsINS_17_ClassicAlgPolicyEE4nextB7v160006IPNS_12basic_stringIcNS_11char_traitsIcEENS_9allocatorIcEEEEEET_SB_SB_, symObjAddr: 0x703C, symBinAddr: 0x10000B1D0, symSize: 0x18 }
  - { offsetInCU: 0x1F7C1, offset: 0x1F7C1, size: 0x8, addend: 0x0, symName: __ZNSt3__118__unwrap_iter_implINS_11__wrap_iterIPNS_12basic_stringIcNS_11char_traitsIcEENS_9allocatorIcEEEEEELb1EE8__unwrapB7v160006ES9_, symObjAddr: 0x79EC, symBinAddr: 0x10000BB80, symSize: 0x28 }
  - { offsetInCU: 0x1F7F0, offset: 0x1F7F0, size: 0x8, addend: 0x0, symName: __ZNSt3__119__to_address_helperINS_11__wrap_iterIPNS_12basic_stringIcNS_11char_traitsIcEENS_9allocatorIcEEEEEEvE6__callB7v160006ERKS9_, symObjAddr: 0x7A38, symBinAddr: 0x10000BBCC, symSize: 0x30 }
  - { offsetInCU: 0x1F813, offset: 0x1F813, size: 0x8, addend: 0x0, symName: __ZNSt3__114pointer_traitsINS_11__wrap_iterIPNS_12basic_stringIcNS_11char_traitsIcEENS_9allocatorIcEEEEEEE10to_addressB7v160006ES9_, symObjAddr: 0x7A68, symBinAddr: 0x10000BBFC, symSize: 0x2C }
  - { offsetInCU: 0x1F837, offset: 0x1F837, size: 0x8, addend: 0x0, symName: __ZNKSt3__111__wrap_iterIPNS_12basic_stringIcNS_11char_traitsIcEENS_9allocatorIcEEEEE4baseB7v160006Ev, symObjAddr: 0x7AA8, symBinAddr: 0x10000BC3C, symSize: 0x18 }
  - { offsetInCU: 0x1F85D, offset: 0x1F85D, size: 0x8, addend: 0x0, symName: __ZNSt3__16vectorINS_12basic_stringIcNS_11char_traitsIcEENS_9allocatorIcEEEENS4_IS6_EEE11__make_iterB7v160006EPS6_, symObjAddr: 0x7AC0, symBinAddr: 0x10000BC54, symSize: 0x34 }
  - { offsetInCU: 0x1F892, offset: 0x1F892, size: 0x8, addend: 0x0, symName: __ZNSt3__111__wrap_iterIPNS_12basic_stringIcNS_11char_traitsIcEENS_9allocatorIcEEEEEC1B7v160006EPKvS7_, symObjAddr: 0x7AF4, symBinAddr: 0x10000BC88, symSize: 0x3C }
  - { offsetInCU: 0x1F8D8, offset: 0x1F8D8, size: 0x8, addend: 0x0, symName: __ZNSt3__111__wrap_iterIPNS_12basic_stringIcNS_11char_traitsIcEENS_9allocatorIcEEEEEC2B7v160006EPKvS7_, symObjAddr: 0x7B30, symBinAddr: 0x10000BCC4, symSize: 0x24 }
  - { offsetInCU: 0x1F91E, offset: 0x1F91E, size: 0x8, addend: 0x0, symName: __ZNSt3__111__wrap_iterIPNS_12basic_stringIcNS_11char_traitsIcEENS_9allocatorIcEEEEEpLB7v160006El, symObjAddr: 0x7B54, symBinAddr: 0x10000BCE8, symSize: 0x30 }
  - { offsetInCU: 0x1F958, offset: 0x1F958, size: 0x8, addend: 0x0, symName: '__ZNSt3__116_UnwrapAlgPolicyIRZ17normalizeAccountsRNS_6vectorINS1_INS_12basic_stringIcNS_11char_traitsIcEENS_9allocatorIcEEEENS5_IS7_EEEENS5_IS9_EEEEE3$_0E10__get_compB7v160006ESE_', symObjAddr: 0x7CB0, symBinAddr: 0x10000BE44, symSize: 0x14 }
  - { offsetInCU: 0x1F986, offset: 0x1F986, size: 0x8, addend: 0x0, symName: '__ZZ17normalizeAccountsRNSt3__16vectorINS0_INS_12basic_stringIcNS_11char_traitsIcEENS_9allocatorIcEEEENS4_IS6_EEEENS4_IS8_EEEEENK3$_0clIS8_S8_EEDaRT_RT0_', symObjAddr: 0x83AC, symBinAddr: 0x10000C540, symSize: 0xD4 }
  - { offsetInCU: 0x1F9DE, offset: 0x1F9DE, size: 0x8, addend: 0x0, symName: __ZNSt3__18_IterOpsINS_17_ClassicAlgPolicyEE9iter_swapB7v160006IRPNS_6vectorINS_12basic_stringIcNS_11char_traitsIcEENS_9allocatorIcEEEENS8_ISA_EEEESE_EEvOT_OT0_, symObjAddr: 0x8480, symBinAddr: 0x10000C614, symSize: 0x34 }
  - { offsetInCU: 0x1FA21, offset: 0x1FA21, size: 0x8, addend: 0x0, symName: __ZNSt3__16vectorINS_12basic_stringIcNS_11char_traitsIcEENS_9allocatorIcEEEENS4_IS6_EEEixB7v160006Em, symObjAddr: 0x8E0C, symBinAddr: 0x10000CFA0, symSize: 0x2C }
  - { offsetInCU: 0x1FA58, offset: 0x1FA58, size: 0x8, addend: 0x0, symName: __ZNKSt3__16vectorINS_12basic_stringIcNS_11char_traitsIcEENS_9allocatorIcEEEENS4_IS6_EEE5beginB7v160006Ev, symObjAddr: 0x8F00, symBinAddr: 0x10000D094, symSize: 0x30 }
  - { offsetInCU: 0x1FA80, offset: 0x1FA80, size: 0x8, addend: 0x0, symName: __ZNKSt3__16vectorINS_12basic_stringIcNS_11char_traitsIcEENS_9allocatorIcEEEENS4_IS6_EEE3endB7v160006Ev, symObjAddr: 0x8F30, symBinAddr: 0x10000D0C4, symSize: 0x30 }
  - { offsetInCU: 0x1FAA8, offset: 0x1FAA8, size: 0x8, addend: 0x0, symName: __ZNKSt3__111__wrap_iterIPKNS_12basic_stringIcNS_11char_traitsIcEENS_9allocatorIcEEEEEdeB7v160006Ev, symObjAddr: 0x915C, symBinAddr: 0x10000D2F0, symSize: 0x18 }
  - { offsetInCU: 0x1FACE, offset: 0x1FACE, size: 0x8, addend: 0x0, symName: __ZNSt3__111__wrap_iterIPKNS_12basic_stringIcNS_11char_traitsIcEENS_9allocatorIcEEEEEppB7v160006Ev, symObjAddr: 0x9174, symBinAddr: 0x10000D308, symSize: 0x20 }
  - { offsetInCU: 0x1FAF4, offset: 0x1FAF4, size: 0x8, addend: 0x0, symName: __ZNKSt3__111__wrap_iterIPKNS_12basic_stringIcNS_11char_traitsIcEENS_9allocatorIcEEEEE4baseB7v160006Ev, symObjAddr: 0x9194, symBinAddr: 0x10000D328, symSize: 0x18 }
  - { offsetInCU: 0x1FB1A, offset: 0x1FB1A, size: 0x8, addend: 0x0, symName: __ZNKSt3__16vectorINS_12basic_stringIcNS_11char_traitsIcEENS_9allocatorIcEEEENS4_IS6_EEE11__make_iterB7v160006EPKS6_, symObjAddr: 0x91AC, symBinAddr: 0x10000D340, symSize: 0x34 }
  - { offsetInCU: 0x1FB4F, offset: 0x1FB4F, size: 0x8, addend: 0x0, symName: __ZNSt3__111__wrap_iterIPKNS_12basic_stringIcNS_11char_traitsIcEENS_9allocatorIcEEEEEC1B7v160006EPKvS8_, symObjAddr: 0x91E0, symBinAddr: 0x10000D374, symSize: 0x3C }
  - { offsetInCU: 0x1FB95, offset: 0x1FB95, size: 0x8, addend: 0x0, symName: __ZNSt3__111__wrap_iterIPKNS_12basic_stringIcNS_11char_traitsIcEENS_9allocatorIcEEEEEC2B7v160006EPKvS8_, symObjAddr: 0x921C, symBinAddr: 0x10000D3B0, symSize: 0x24 }
  - { offsetInCU: 0x1FBDB, offset: 0x1FBDB, size: 0x8, addend: 0x0, symName: __ZNSt3__16vectorINS_12basic_stringIcNS_11char_traitsIcEENS_9allocatorIcEEEENS4_IS6_EEE4swapERS8_, symObjAddr: 0x9298, symBinAddr: 0x10000D42C, symSize: 0x98 }
  - { offsetInCU: 0x1FC12, offset: 0x1FC12, size: 0x8, addend: 0x0, symName: __ZNSt3__16vectorINS_12basic_stringIcNS_11char_traitsIcEENS_9allocatorIcEEEENS4_IS6_EEE9__end_capB7v160006Ev, symObjAddr: 0x936C, symBinAddr: 0x10000D500, symSize: 0x28 }
  - { offsetInCU: 0x1FC38, offset: 0x1FC38, size: 0x8, addend: 0x0, symName: __ZNSt3__16vectorINS_12basic_stringIcNS_11char_traitsIcEENS_9allocatorIcEEEENS4_IS6_EEE7__allocB7v160006Ev, symObjAddr: 0x93A8, symBinAddr: 0x10000D53C, symSize: 0x28 }
  - { offsetInCU: 0x1FC5E, offset: 0x1FC5E, size: 0x8, addend: 0x0, symName: __ZNSt3__117__compressed_pairIPNS_12basic_stringIcNS_11char_traitsIcEENS_9allocatorIcEEEENS4_IS6_EEE5firstB7v160006Ev, symObjAddr: 0x93E4, symBinAddr: 0x10000D578, symSize: 0x24 }
  - { offsetInCU: 0x1FC84, offset: 0x1FC84, size: 0x8, addend: 0x0, symName: __ZNSt3__122__compressed_pair_elemIPNS_12basic_stringIcNS_11char_traitsIcEENS_9allocatorIcEEEELi0ELb0EE5__getB7v160006Ev, symObjAddr: 0x9408, symBinAddr: 0x10000D59C, symSize: 0x14 }
  - { offsetInCU: 0x1FCAA, offset: 0x1FCAA, size: 0x8, addend: 0x0, symName: __ZNSt3__117__compressed_pairIPNS_12basic_stringIcNS_11char_traitsIcEENS_9allocatorIcEEEENS4_IS6_EEE6secondB7v160006Ev, symObjAddr: 0x941C, symBinAddr: 0x10000D5B0, symSize: 0x24 }
  - { offsetInCU: 0x1FCD0, offset: 0x1FCD0, size: 0x8, addend: 0x0, symName: __ZNSt3__122__compressed_pair_elemINS_9allocatorINS_12basic_stringIcNS_11char_traitsIcEENS1_IcEEEEEELi1ELb1EE5__getB7v160006Ev, symObjAddr: 0x9440, symBinAddr: 0x10000D5D4, symSize: 0x14 }
  - { offsetInCU: 0x1FCF6, offset: 0x1FCF6, size: 0x8, addend: 0x0, symName: __ZNSt3__18_IterOpsINS_17_ClassicAlgPolicyEE11__iter_moveB7v160006IRPNS_6vectorINS_12basic_stringIcNS_11char_traitsIcEENS_9allocatorIcEEEENS8_ISA_EEEEEENS_9enable_ifIXsr12is_referenceIDTdeclsr3stdE7declvalIRT_EEEEE5valueEDTclsr3stdE4movedeclsr3stdE7declvalISH_EEEEE4typeEOSG_, symObjAddr: 0x9538, symBinAddr: 0x10000D6CC, symSize: 0x28 }
  - { offsetInCU: 0x1FD22, offset: 0x1FD22, size: 0x8, addend: 0x0, symName: __ZNSt3__16vectorINS_12basic_stringIcNS_11char_traitsIcEENS_9allocatorIcEEEENS4_IS6_EEEC1B7v160006EOS8_, symObjAddr: 0x9560, symBinAddr: 0x10000D6F4, symSize: 0x34 }
  - { offsetInCU: 0x1FD5D, offset: 0x1FD5D, size: 0x8, addend: 0x0, symName: __ZNSt3__16vectorINS_12basic_stringIcNS_11char_traitsIcEENS_9allocatorIcEEEENS4_IS6_EEEaSB7v160006EOS8_, symObjAddr: 0x9594, symBinAddr: 0x10000D728, symSize: 0x34 }
  - { offsetInCU: 0x1FD94, offset: 0x1FD94, size: 0x8, addend: 0x0, symName: __ZNSt3__18_IterOpsINS_17_ClassicAlgPolicyEE25__validate_iter_referenceB7v160006IRPNS_6vectorINS_12basic_stringIcNS_11char_traitsIcEENS_9allocatorIcEEEENS8_ISA_EEEEEEvv, symObjAddr: 0x95C8, symBinAddr: 0x10000D75C, symSize: 0x4 }
  - { offsetInCU: 0x1FDB2, offset: 0x1FDB2, size: 0x8, addend: 0x0, symName: __ZNSt3__16vectorINS_12basic_stringIcNS_11char_traitsIcEENS_9allocatorIcEEEENS4_IS6_EEEC2B7v160006EOS8_, symObjAddr: 0x95CC, symBinAddr: 0x10000D760, symSize: 0xDC }
  - { offsetInCU: 0x1FDF9, offset: 0x1FDF9, size: 0x8, addend: 0x0, symName: __ZNSt3__117__compressed_pairIPNS_12basic_stringIcNS_11char_traitsIcEENS_9allocatorIcEEEENS4_IS6_EEEC1B7v160006IDnS8_EEOT_OT0_, symObjAddr: 0x96A8, symBinAddr: 0x10000D83C, symSize: 0x3C }
  - { offsetInCU: 0x1FE51, offset: 0x1FE51, size: 0x8, addend: 0x0, symName: __ZNSt3__117__compressed_pairIPNS_12basic_stringIcNS_11char_traitsIcEENS_9allocatorIcEEEENS4_IS6_EEEC2B7v160006IDnS8_EEOT_OT0_, symObjAddr: 0x96F4, symBinAddr: 0x10000D888, symSize: 0x44 }
  - { offsetInCU: 0x1FEA9, offset: 0x1FEA9, size: 0x8, addend: 0x0, symName: __ZNSt3__122__compressed_pair_elemIPNS_12basic_stringIcNS_11char_traitsIcEENS_9allocatorIcEEEELi0ELb0EEC2B7v160006IDnvEEOT_, symObjAddr: 0x9738, symBinAddr: 0x10000D8CC, symSize: 0x1C }
  - { offsetInCU: 0x1FEEB, offset: 0x1FEEB, size: 0x8, addend: 0x0, symName: __ZNSt3__122__compressed_pair_elemINS_9allocatorINS_12basic_stringIcNS_11char_traitsIcEENS1_IcEEEEEELi1ELb1EEC2B7v160006IS7_vEEOT_, symObjAddr: 0x9754, symBinAddr: 0x10000D8E8, symSize: 0x18 }
  - { offsetInCU: 0x1FF2D, offset: 0x1FF2D, size: 0x8, addend: 0x0, symName: __ZNSt3__16vectorINS_12basic_stringIcNS_11char_traitsIcEENS_9allocatorIcEEEENS4_IS6_EEE13__move_assignERS8_NS_17integral_constantIbLb1EEE, symObjAddr: 0x976C, symBinAddr: 0x10000D900, symSize: 0xA4 }
  - { offsetInCU: 0x1FF6F, offset: 0x1FF6F, size: 0x8, addend: 0x0, symName: __ZNSt3__16vectorINS_12basic_stringIcNS_11char_traitsIcEENS_9allocatorIcEEEENS4_IS6_EEE13__vdeallocateEv, symObjAddr: 0x9810, symBinAddr: 0x10000D9A4, symSize: 0x8C }
  - { offsetInCU: 0x1FF97, offset: 0x1FF97, size: 0x8, addend: 0x0, symName: __ZNSt3__16vectorINS_12basic_stringIcNS_11char_traitsIcEENS_9allocatorIcEEEENS4_IS6_EEE19__move_assign_allocB7v160006ERS8_, symObjAddr: 0x989C, symBinAddr: 0x10000DA30, symSize: 0x2C }
  - { offsetInCU: 0x1FFCC, offset: 0x1FFCC, size: 0x8, addend: 0x0, symName: __ZNSt3__16vectorINS_12basic_stringIcNS_11char_traitsIcEENS_9allocatorIcEEEENS4_IS6_EEE5clearB7v160006Ev, symObjAddr: 0x98C8, symBinAddr: 0x10000DA5C, symSize: 0x54 }
  - { offsetInCU: 0x20001, offset: 0x20001, size: 0x8, addend: 0x0, symName: __ZNSt3__116allocator_traitsINS_9allocatorINS_12basic_stringIcNS_11char_traitsIcEENS1_IcEEEEEEE10deallocateB7v160006ERS7_PS6_m, symObjAddr: 0x991C, symBinAddr: 0x10000DAB0, symSize: 0x34 }
  - { offsetInCU: 0x20043, offset: 0x20043, size: 0x8, addend: 0x0, symName: __ZNKSt3__16vectorINS_12basic_stringIcNS_11char_traitsIcEENS_9allocatorIcEEEENS4_IS6_EEE8capacityB7v160006Ev, symObjAddr: 0x9950, symBinAddr: 0x10000DAE4, symSize: 0x40 }
  - { offsetInCU: 0x20069, offset: 0x20069, size: 0x8, addend: 0x0, symName: __ZNSt3__16vectorINS_12basic_stringIcNS_11char_traitsIcEENS_9allocatorIcEEEENS4_IS6_EEE7__clearB7v160006Ev, symObjAddr: 0x9990, symBinAddr: 0x10000DB24, symSize: 0x28 }
  - { offsetInCU: 0x2008F, offset: 0x2008F, size: 0x8, addend: 0x0, symName: __ZNKSt3__16vectorINS_12basic_stringIcNS_11char_traitsIcEENS_9allocatorIcEEEENS4_IS6_EEE17__annotate_shrinkB7v160006Em, symObjAddr: 0x99B8, symBinAddr: 0x10000DB4C, symSize: 0xD0 }
  - { offsetInCU: 0x200C4, offset: 0x200C4, size: 0x8, addend: 0x0, symName: __ZNSt3__16vectorINS_12basic_stringIcNS_11char_traitsIcEENS_9allocatorIcEEEENS4_IS6_EEE22__base_destruct_at_endB7v160006EPS6_, symObjAddr: 0x9A98, symBinAddr: 0x10000DC2C, symSize: 0x8C }
  - { offsetInCU: 0x20108, offset: 0x20108, size: 0x8, addend: 0x0, symName: __ZNSt3__116allocator_traitsINS_9allocatorINS_12basic_stringIcNS_11char_traitsIcEENS1_IcEEEEEEE7destroyB7v160006IS6_vvEEvRS7_PT_, symObjAddr: 0x9B24, symBinAddr: 0x10000DCB8, symSize: 0x28 }
  - { offsetInCU: 0x20142, offset: 0x20142, size: 0x8, addend: 0x0, symName: __ZNKSt3__16vectorINS_12basic_stringIcNS_11char_traitsIcEENS_9allocatorIcEEEENS4_IS6_EEE31__annotate_contiguous_containerB7v160006EPKvSA_SA_SA_, symObjAddr: 0x9B94, symBinAddr: 0x10000DD28, symSize: 0x20 }
  - { offsetInCU: 0x20194, offset: 0x20194, size: 0x8, addend: 0x0, symName: __ZNKSt3__16vectorINS_12basic_stringIcNS_11char_traitsIcEENS_9allocatorIcEEEENS4_IS6_EEE4dataB7v160006Ev, symObjAddr: 0x9BB4, symBinAddr: 0x10000DD48, symSize: 0x28 }
  - { offsetInCU: 0x201BA, offset: 0x201BA, size: 0x8, addend: 0x0, symName: __ZNSt3__19allocatorINS_12basic_stringIcNS_11char_traitsIcEENS0_IcEEEEE10deallocateB7v160006EPS5_m, symObjAddr: 0x9BDC, symBinAddr: 0x10000DD70, symSize: 0x44 }
  - { offsetInCU: 0x201FC, offset: 0x201FC, size: 0x8, addend: 0x0, symName: __ZNKSt3__16vectorINS_12basic_stringIcNS_11char_traitsIcEENS_9allocatorIcEEEENS4_IS6_EEE9__end_capB7v160006Ev, symObjAddr: 0x9C20, symBinAddr: 0x10000DDB4, symSize: 0x28 }
  - { offsetInCU: 0x20222, offset: 0x20222, size: 0x8, addend: 0x0, symName: __ZNKSt3__117__compressed_pairIPNS_12basic_stringIcNS_11char_traitsIcEENS_9allocatorIcEEEENS4_IS6_EEE5firstB7v160006Ev, symObjAddr: 0x9C48, symBinAddr: 0x10000DDDC, symSize: 0x24 }
  - { offsetInCU: 0x20248, offset: 0x20248, size: 0x8, addend: 0x0, symName: __ZNKSt3__122__compressed_pair_elemIPNS_12basic_stringIcNS_11char_traitsIcEENS_9allocatorIcEEEELi0ELb0EE5__getB7v160006Ev, symObjAddr: 0x9C6C, symBinAddr: 0x10000DE00, symSize: 0x14 }
  - { offsetInCU: 0x2026E, offset: 0x2026E, size: 0x8, addend: 0x0, symName: __ZNSt3__16vectorINS_12basic_stringIcNS_11char_traitsIcEENS_9allocatorIcEEEENS4_IS6_EEE19__move_assign_allocB7v160006ERS8_NS_17integral_constantIbLb1EEE, symObjAddr: 0x9C80, symBinAddr: 0x10000DE14, symSize: 0x38 }
  - { offsetInCU: 0x202AE, offset: 0x202AE, size: 0x8, addend: 0x0, symName: __ZNSt3__18_IterOpsINS_17_ClassicAlgPolicyEE4nextB7v160006IPNS_6vectorINS_12basic_stringIcNS_11char_traitsIcEENS_9allocatorIcEEEENS8_ISA_EEEEEET_SE_SE_, symObjAddr: 0x9CB8, symBinAddr: 0x10000DE4C, symSize: 0x18 }
  - { offsetInCU: 0x202E5, offset: 0x202E5, size: 0x8, addend: 0x0, symName: __ZNSt3__118__unwrap_iter_implINS_11__wrap_iterIPNS_6vectorINS_12basic_stringIcNS_11char_traitsIcEENS_9allocatorIcEEEENS6_IS8_EEEEEELb1EE8__unwrapB7v160006ESC_, symObjAddr: 0xA68C, symBinAddr: 0x10000E820, symSize: 0x28 }
  - { offsetInCU: 0x20314, offset: 0x20314, size: 0x8, addend: 0x0, symName: __ZNSt3__119__to_address_helperINS_11__wrap_iterIPNS_6vectorINS_12basic_stringIcNS_11char_traitsIcEENS_9allocatorIcEEEENS6_IS8_EEEEEEvE6__callB7v160006ERKSC_, symObjAddr: 0xA6D8, symBinAddr: 0x10000E86C, symSize: 0x30 }
  - { offsetInCU: 0x20337, offset: 0x20337, size: 0x8, addend: 0x0, symName: __ZNSt3__114pointer_traitsINS_11__wrap_iterIPNS_6vectorINS_12basic_stringIcNS_11char_traitsIcEENS_9allocatorIcEEEENS6_IS8_EEEEEEE10to_addressB7v160006ESC_, symObjAddr: 0xA708, symBinAddr: 0x10000E89C, symSize: 0x2C }
  - { offsetInCU: 0x2035B, offset: 0x2035B, size: 0x8, addend: 0x0, symName: __ZN8SolutionC2Ev, symObjAddr: 0xA748, symBinAddr: 0x10000E8DC, symSize: 0x38 }
  - { offsetInCU: 0x20387, offset: 0x20387, size: 0x8, addend: 0x0, symName: __ZNSt3__113unordered_mapINS_12basic_stringIcNS_11char_traitsIcEENS_9allocatorIcEEEEiNS_4hashIS6_EENS_8equal_toIS6_EENS4_INS_4pairIKS6_iEEEEEC1B7v160006Ev, symObjAddr: 0xA780, symBinAddr: 0x10000E914, symSize: 0x2C }
  - { offsetInCU: 0x203B1, offset: 0x203B1, size: 0x8, addend: 0x0, symName: __ZNSt3__16vectorI13nameANDemailsNS_9allocatorIS1_EEEC1B7v160006Ev, symObjAddr: 0xA7AC, symBinAddr: 0x10000E940, symSize: 0x2C }
  - { offsetInCU: 0x203DB, offset: 0x203DB, size: 0x8, addend: 0x0, symName: __ZNSt3__113unordered_mapINS_12basic_stringIcNS_11char_traitsIcEENS_9allocatorIcEEEEiNS_4hashIS6_EENS_8equal_toIS6_EENS4_INS_4pairIKS6_iEEEEEC2B7v160006Ev, symObjAddr: 0xA7D8, symBinAddr: 0x10000E96C, symSize: 0x3C }
  - { offsetInCU: 0x20405, offset: 0x20405, size: 0x8, addend: 0x0, symName: __ZNSt3__112__hash_tableINS_17__hash_value_typeINS_12basic_stringIcNS_11char_traitsIcEENS_9allocatorIcEEEEiEENS_22__unordered_map_hasherIS7_S8_NS_4hashIS7_EENS_8equal_toIS7_EELb1EEENS_21__unordered_map_equalIS7_S8_SD_SB_Lb1EEENS5_IS8_EEEC1Ev, symObjAddr: 0xA814, symBinAddr: 0x10000E9A8, symSize: 0x2C }
  - { offsetInCU: 0x20431, offset: 0x20431, size: 0x8, addend: 0x0, symName: __ZNSt3__112__hash_tableINS_17__hash_value_typeINS_12basic_stringIcNS_11char_traitsIcEENS_9allocatorIcEEEEiEENS_22__unordered_map_hasherIS7_S8_NS_4hashIS7_EENS_8equal_toIS7_EELb1EEENS_21__unordered_map_equalIS7_S8_SD_SB_Lb1EEENS5_IS8_EEEC2Ev, symObjAddr: 0xA850, symBinAddr: 0x10000E9E4, symSize: 0x7C }
  - { offsetInCU: 0x2045D, offset: 0x2045D, size: 0x8, addend: 0x0, symName: __ZNSt3__110unique_ptrIA_PNS_16__hash_node_baseIPNS_11__hash_nodeINS_17__hash_value_typeINS_12basic_stringIcNS_11char_traitsIcEENS_9allocatorIcEEEEiEEPvEEEENS_25__bucket_list_deallocatorINS7_ISF_EEEEEC1B7v160006ILb1EvEEv, symObjAddr: 0xA8CC, symBinAddr: 0x10000EA60, symSize: 0x2C }
  - { offsetInCU: 0x20492, offset: 0x20492, size: 0x8, addend: 0x0, symName: __ZNSt3__117__compressed_pairINS_16__hash_node_baseIPNS_11__hash_nodeINS_17__hash_value_typeINS_12basic_stringIcNS_11char_traitsIcEENS_9allocatorIcEEEEiEEPvEEEENS7_ISC_EEEC1B7v160006ILb1EvEEv, symObjAddr: 0xA8F8, symBinAddr: 0x10000EA8C, symSize: 0x2C }
  - { offsetInCU: 0x204CD, offset: 0x204CD, size: 0x8, addend: 0x0, symName: __ZNSt3__117__compressed_pairImNS_22__unordered_map_hasherINS_12basic_stringIcNS_11char_traitsIcEENS_9allocatorIcEEEENS_17__hash_value_typeIS7_iEENS_4hashIS7_EENS_8equal_toIS7_EELb1EEEEC1B7v160006IiNS_18__default_init_tagEEEOT_OT0_, symObjAddr: 0xA924, symBinAddr: 0x10000EAB8, symSize: 0x3C }
  - { offsetInCU: 0x2052B, offset: 0x2052B, size: 0x8, addend: 0x0, symName: __ZNSt3__117__compressed_pairIfNS_21__unordered_map_equalINS_12basic_stringIcNS_11char_traitsIcEENS_9allocatorIcEEEENS_17__hash_value_typeIS7_iEENS_8equal_toIS7_EENS_4hashIS7_EELb1EEEEC1B7v160006IfNS_18__default_init_tagEEEOT_OT0_, symObjAddr: 0xA960, symBinAddr: 0x10000EAF4, symSize: 0x3C }
  - { offsetInCU: 0x20583, offset: 0x20583, size: 0x8, addend: 0x0, symName: __ZNSt3__110unique_ptrIA_PNS_16__hash_node_baseIPNS_11__hash_nodeINS_17__hash_value_typeINS_12basic_stringIcNS_11char_traitsIcEENS_9allocatorIcEEEEiEEPvEEEENS_25__bucket_list_deallocatorINS7_ISF_EEEEEC2B7v160006ILb1EvEEv, symObjAddr: 0xA99C, symBinAddr: 0x10000EB30, symSize: 0x3C }
  - { offsetInCU: 0x205BE, offset: 0x205BE, size: 0x8, addend: 0x0, symName: __ZNSt3__117__compressed_pairIPPNS_16__hash_node_baseIPNS_11__hash_nodeINS_17__hash_value_typeINS_12basic_stringIcNS_11char_traitsIcEENS_9allocatorIcEEEEiEEPvEEEENS_25__bucket_list_deallocatorINS7_ISF_EEEEEC1B7v160006INS_16__value_init_tagESM_EEOT_OT0_, symObjAddr: 0xA9D8, symBinAddr: 0x10000EB6C, symSize: 0x3C }
  - { offsetInCU: 0x20616, offset: 0x20616, size: 0x8, addend: 0x0, symName: __ZNSt3__117__compressed_pairIPPNS_16__hash_node_baseIPNS_11__hash_nodeINS_17__hash_value_typeINS_12basic_stringIcNS_11char_traitsIcEENS_9allocatorIcEEEEiEEPvEEEENS_25__bucket_list_deallocatorINS7_ISF_EEEEEC2B7v160006INS_16__value_init_tagESM_EEOT_OT0_, symObjAddr: 0xAA14, symBinAddr: 0x10000EBA8, symSize: 0x40 }
  - { offsetInCU: 0x2066E, offset: 0x2066E, size: 0x8, addend: 0x0, symName: __ZNSt3__122__compressed_pair_elemIPPNS_16__hash_node_baseIPNS_11__hash_nodeINS_17__hash_value_typeINS_12basic_stringIcNS_11char_traitsIcEENS_9allocatorIcEEEEiEEPvEEEELi0ELb0EEC2B7v160006ENS_16__value_init_tagE, symObjAddr: 0xAA54, symBinAddr: 0x10000EBE8, symSize: 0x18 }
  - { offsetInCU: 0x206A3, offset: 0x206A3, size: 0x8, addend: 0x0, symName: __ZNSt3__122__compressed_pair_elemINS_25__bucket_list_deallocatorINS_9allocatorIPNS_16__hash_node_baseIPNS_11__hash_nodeINS_17__hash_value_typeINS_12basic_stringIcNS_11char_traitsIcEENS2_IcEEEEiEEPvEEEEEEEELi1ELb0EEC2B7v160006ENS_16__value_init_tagE, symObjAddr: 0xAA6C, symBinAddr: 0x10000EC00, symSize: 0x2C }
  - { offsetInCU: 0x206D8, offset: 0x206D8, size: 0x8, addend: 0x0, symName: __ZNSt3__125__bucket_list_deallocatorINS_9allocatorIPNS_16__hash_node_baseIPNS_11__hash_nodeINS_17__hash_value_typeINS_12basic_stringIcNS_11char_traitsIcEENS1_IcEEEEiEEPvEEEEEEEC1B7v160006Ev, symObjAddr: 0xAA98, symBinAddr: 0x10000EC2C, symSize: 0x2C }
  - { offsetInCU: 0x20702, offset: 0x20702, size: 0x8, addend: 0x0, symName: __ZNSt3__125__bucket_list_deallocatorINS_9allocatorIPNS_16__hash_node_baseIPNS_11__hash_nodeINS_17__hash_value_typeINS_12basic_stringIcNS_11char_traitsIcEENS1_IcEEEEiEEPvEEEEEEEC2B7v160006Ev, symObjAddr: 0xAAC4, symBinAddr: 0x10000EC58, symSize: 0x40 }
  - { offsetInCU: 0x2072C, offset: 0x2072C, size: 0x8, addend: 0x0, symName: __ZNSt3__117__compressed_pairImNS_9allocatorIPNS_16__hash_node_baseIPNS_11__hash_nodeINS_17__hash_value_typeINS_12basic_stringIcNS_11char_traitsIcEENS1_IcEEEEiEEPvEEEEEEEC1B7v160006IiNS_18__default_init_tagEEEOT_OT0_, symObjAddr: 0xAB04, symBinAddr: 0x10000EC98, symSize: 0x3C }
  - { offsetInCU: 0x20784, offset: 0x20784, size: 0x8, addend: 0x0, symName: __ZNSt3__117__compressed_pairImNS_9allocatorIPNS_16__hash_node_baseIPNS_11__hash_nodeINS_17__hash_value_typeINS_12basic_stringIcNS_11char_traitsIcEENS1_IcEEEEiEEPvEEEEEEEC2B7v160006IiNS_18__default_init_tagEEEOT_OT0_, symObjAddr: 0xAB40, symBinAddr: 0x10000ECD4, symSize: 0x40 }
  - { offsetInCU: 0x207DC, offset: 0x207DC, size: 0x8, addend: 0x0, symName: __ZNSt3__122__compressed_pair_elemImLi0ELb0EEC2B7v160006IivEEOT_, symObjAddr: 0xAB80, symBinAddr: 0x10000ED14, symSize: 0x24 }
  - { offsetInCU: 0x2081E, offset: 0x2081E, size: 0x8, addend: 0x0, symName: __ZNSt3__122__compressed_pair_elemINS_9allocatorIPNS_16__hash_node_baseIPNS_11__hash_nodeINS_17__hash_value_typeINS_12basic_stringIcNS_11char_traitsIcEENS1_IcEEEEiEEPvEEEEEELi1ELb1EEC2B7v160006ENS_18__default_init_tagE, symObjAddr: 0xABA4, symBinAddr: 0x10000ED38, symSize: 0x2C }
  - { offsetInCU: 0x20853, offset: 0x20853, size: 0x8, addend: 0x0, symName: __ZNSt3__19allocatorIPNS_16__hash_node_baseIPNS_11__hash_nodeINS_17__hash_value_typeINS_12basic_stringIcNS_11char_traitsIcEENS0_IcEEEEiEEPvEEEEEC2B7v160006Ev, symObjAddr: 0xABD0, symBinAddr: 0x10000ED64, symSize: 0x2C }
  - { offsetInCU: 0x2087D, offset: 0x2087D, size: 0x8, addend: 0x0, symName: __ZNSt3__116__non_trivial_ifILb1ENS_9allocatorIPNS_16__hash_node_baseIPNS_11__hash_nodeINS_17__hash_value_typeINS_12basic_stringIcNS_11char_traitsIcEENS1_IcEEEEiEEPvEEEEEEEC2B7v160006Ev, symObjAddr: 0xABFC, symBinAddr: 0x10000ED90, symSize: 0x14 }
  - { offsetInCU: 0x208A7, offset: 0x208A7, size: 0x8, addend: 0x0, symName: __ZNSt3__117__compressed_pairINS_16__hash_node_baseIPNS_11__hash_nodeINS_17__hash_value_typeINS_12basic_stringIcNS_11char_traitsIcEENS_9allocatorIcEEEEiEEPvEEEENS7_ISC_EEEC2B7v160006ILb1EvEEv, symObjAddr: 0xAC10, symBinAddr: 0x10000EDA4, symSize: 0x34 }
  - { offsetInCU: 0x208DC, offset: 0x208DC, size: 0x8, addend: 0x0, symName: __ZNSt3__122__compressed_pair_elemINS_16__hash_node_baseIPNS_11__hash_nodeINS_17__hash_value_typeINS_12basic_stringIcNS_11char_traitsIcEENS_9allocatorIcEEEEiEEPvEEEELi0ELb0EEC2B7v160006ENS_16__value_init_tagE, symObjAddr: 0xAC44, symBinAddr: 0x10000EDD8, symSize: 0x2C }
  - { offsetInCU: 0x20911, offset: 0x20911, size: 0x8, addend: 0x0, symName: __ZNSt3__122__compressed_pair_elemINS_9allocatorINS_11__hash_nodeINS_17__hash_value_typeINS_12basic_stringIcNS_11char_traitsIcEENS1_IcEEEEiEEPvEEEELi1ELb1EEC2B7v160006ENS_16__value_init_tagE, symObjAddr: 0xAC70, symBinAddr: 0x10000EE04, symSize: 0x2C }
  - { offsetInCU: 0x20946, offset: 0x20946, size: 0x8, addend: 0x0, symName: __ZNSt3__116__hash_node_baseIPNS_11__hash_nodeINS_17__hash_value_typeINS_12basic_stringIcNS_11char_traitsIcEENS_9allocatorIcEEEEiEEPvEEEC1B7v160006Ev, symObjAddr: 0xAC9C, symBinAddr: 0x10000EE30, symSize: 0x2C }
  - { offsetInCU: 0x20970, offset: 0x20970, size: 0x8, addend: 0x0, symName: __ZNSt3__116__hash_node_baseIPNS_11__hash_nodeINS_17__hash_value_typeINS_12basic_stringIcNS_11char_traitsIcEENS_9allocatorIcEEEEiEEPvEEEC2B7v160006Ev, symObjAddr: 0xACC8, symBinAddr: 0x10000EE5C, symSize: 0x18 }
  - { offsetInCU: 0x2099A, offset: 0x2099A, size: 0x8, addend: 0x0, symName: __ZNSt3__19allocatorINS_11__hash_nodeINS_17__hash_value_typeINS_12basic_stringIcNS_11char_traitsIcEENS0_IcEEEEiEEPvEEEC2B7v160006Ev, symObjAddr: 0xACE0, symBinAddr: 0x10000EE74, symSize: 0x2C }
  - { offsetInCU: 0x209C4, offset: 0x209C4, size: 0x8, addend: 0x0, symName: __ZNSt3__116__non_trivial_ifILb1ENS_9allocatorINS_11__hash_nodeINS_17__hash_value_typeINS_12basic_stringIcNS_11char_traitsIcEENS1_IcEEEEiEEPvEEEEEC2B7v160006Ev, symObjAddr: 0xAD0C, symBinAddr: 0x10000EEA0, symSize: 0x14 }
  - { offsetInCU: 0x209EE, offset: 0x209EE, size: 0x8, addend: 0x0, symName: __ZNSt3__117__compressed_pairImNS_22__unordered_map_hasherINS_12basic_stringIcNS_11char_traitsIcEENS_9allocatorIcEEEENS_17__hash_value_typeIS7_iEENS_4hashIS7_EENS_8equal_toIS7_EELb1EEEEC2B7v160006IiNS_18__default_init_tagEEEOT_OT0_, symObjAddr: 0xAD20, symBinAddr: 0x10000EEB4, symSize: 0x40 }
  - { offsetInCU: 0x20A46, offset: 0x20A46, size: 0x8, addend: 0x0, symName: __ZNSt3__122__compressed_pair_elemINS_22__unordered_map_hasherINS_12basic_stringIcNS_11char_traitsIcEENS_9allocatorIcEEEENS_17__hash_value_typeIS7_iEENS_4hashIS7_EENS_8equal_toIS7_EELb1EEELi1ELb1EEC2B7v160006ENS_18__default_init_tagE, symObjAddr: 0xAD60, symBinAddr: 0x10000EEF4, symSize: 0x2C }
  - { offsetInCU: 0x20A7B, offset: 0x20A7B, size: 0x8, addend: 0x0, symName: __ZNSt3__122__unordered_map_hasherINS_12basic_stringIcNS_11char_traitsIcEENS_9allocatorIcEEEENS_17__hash_value_typeIS6_iEENS_4hashIS6_EENS_8equal_toIS6_EELb1EEC2B7v160006Ev, symObjAddr: 0xAD8C, symBinAddr: 0x10000EF20, symSize: 0x14 }
  - { offsetInCU: 0x20AA5, offset: 0x20AA5, size: 0x8, addend: 0x0, symName: __ZNSt3__117__compressed_pairIfNS_21__unordered_map_equalINS_12basic_stringIcNS_11char_traitsIcEENS_9allocatorIcEEEENS_17__hash_value_typeIS7_iEENS_8equal_toIS7_EENS_4hashIS7_EELb1EEEEC2B7v160006IfNS_18__default_init_tagEEEOT_OT0_, symObjAddr: 0xADA0, symBinAddr: 0x10000EF34, symSize: 0x40 }
  - { offsetInCU: 0x20AFD, offset: 0x20AFD, size: 0x8, addend: 0x0, symName: __ZNSt3__122__compressed_pair_elemIfLi0ELb0EEC2B7v160006IfvEEOT_, symObjAddr: 0xADE0, symBinAddr: 0x10000EF74, symSize: 0x24 }
  - { offsetInCU: 0x20B3F, offset: 0x20B3F, size: 0x8, addend: 0x0, symName: __ZNSt3__122__compressed_pair_elemINS_21__unordered_map_equalINS_12basic_stringIcNS_11char_traitsIcEENS_9allocatorIcEEEENS_17__hash_value_typeIS7_iEENS_8equal_toIS7_EENS_4hashIS7_EELb1EEELi1ELb1EEC2B7v160006ENS_18__default_init_tagE, symObjAddr: 0xAE04, symBinAddr: 0x10000EF98, symSize: 0x2C }
  - { offsetInCU: 0x20B74, offset: 0x20B74, size: 0x8, addend: 0x0, symName: __ZNSt3__121__unordered_map_equalINS_12basic_stringIcNS_11char_traitsIcEENS_9allocatorIcEEEENS_17__hash_value_typeIS6_iEENS_8equal_toIS6_EENS_4hashIS6_EELb1EEC2B7v160006Ev, symObjAddr: 0xAE30, symBinAddr: 0x10000EFC4, symSize: 0x14 }
  - { offsetInCU: 0x20B9E, offset: 0x20B9E, size: 0x8, addend: 0x0, symName: __ZNSt3__16vectorI13nameANDemailsNS_9allocatorIS1_EEEC2B7v160006Ev, symObjAddr: 0xAE44, symBinAddr: 0x10000EFD8, symSize: 0x58 }
  - { offsetInCU: 0x20BC8, offset: 0x20BC8, size: 0x8, addend: 0x0, symName: __ZNSt3__117__compressed_pairIP13nameANDemailsNS_9allocatorIS1_EEEC1B7v160006IDnNS_18__default_init_tagEEEOT_OT0_, symObjAddr: 0xAE9C, symBinAddr: 0x10000F030, symSize: 0x3C }
  - { offsetInCU: 0x20C20, offset: 0x20C20, size: 0x8, addend: 0x0, symName: __ZNSt3__117__compressed_pairIP13nameANDemailsNS_9allocatorIS1_EEEC2B7v160006IDnNS_18__default_init_tagEEEOT_OT0_, symObjAddr: 0xAEE8, symBinAddr: 0x10000F07C, symSize: 0x40 }
  - { offsetInCU: 0x20C78, offset: 0x20C78, size: 0x8, addend: 0x0, symName: __ZNSt3__122__compressed_pair_elemIP13nameANDemailsLi0ELb0EEC2B7v160006IDnvEEOT_, symObjAddr: 0xAF28, symBinAddr: 0x10000F0BC, symSize: 0x1C }
  - { offsetInCU: 0x20CBA, offset: 0x20CBA, size: 0x8, addend: 0x0, symName: __ZNSt3__122__compressed_pair_elemINS_9allocatorI13nameANDemailsEELi1ELb1EEC2B7v160006ENS_18__default_init_tagE, symObjAddr: 0xAF44, symBinAddr: 0x10000F0D8, symSize: 0x2C }
  - { offsetInCU: 0x20CEF, offset: 0x20CEF, size: 0x8, addend: 0x0, symName: __ZNSt3__19allocatorI13nameANDemailsEC2B7v160006Ev, symObjAddr: 0xAF70, symBinAddr: 0x10000F104, symSize: 0x2C }
  - { offsetInCU: 0x20D19, offset: 0x20D19, size: 0x8, addend: 0x0, symName: __ZNSt3__116__non_trivial_ifILb1ENS_9allocatorI13nameANDemailsEEEC2B7v160006Ev, symObjAddr: 0xAF9C, symBinAddr: 0x10000F130, symSize: 0x14 }
  - { offsetInCU: 0x20D43, offset: 0x20D43, size: 0x8, addend: 0x0, symName: __ZNSt3__16vectorINS_12basic_stringIcNS_11char_traitsIcEENS_9allocatorIcEEEENS4_IS6_EEEC1B7v160006Ev, symObjAddr: 0xAFB0, symBinAddr: 0x10000F144, symSize: 0x2C }
  - { offsetInCU: 0x20D6D, offset: 0x20D6D, size: 0x8, addend: 0x0, symName: __ZNKSt3__113unordered_mapINS_12basic_stringIcNS_11char_traitsIcEENS_9allocatorIcEEEEiNS_4hashIS6_EENS_8equal_toIS6_EENS4_INS_4pairIKS6_iEEEEE8containsB7v160006ERSC_, symObjAddr: 0xAFDC, symBinAddr: 0x10000F170, symSize: 0x60 }
  - { offsetInCU: 0x20DA2, offset: 0x20DA2, size: 0x8, addend: 0x0, symName: __ZNKSt3__16vectorI13nameANDemailsNS_9allocatorIS1_EEE4sizeB7v160006Ev, symObjAddr: 0xB03C, symBinAddr: 0x10000F1D0, symSize: 0x28 }
  - { offsetInCU: 0x20DC8, offset: 0x20DC8, size: 0x8, addend: 0x0, symName: __ZNSt3__113unordered_mapINS_12basic_stringIcNS_11char_traitsIcEENS_9allocatorIcEEEEiNS_4hashIS6_EENS_8equal_toIS6_EENS4_INS_4pairIKS6_iEEEEEixERSC_, symObjAddr: 0xB064, symBinAddr: 0x10000F1F8, symSize: 0x80 }
  - { offsetInCU: 0x20DFF, offset: 0x20DFF, size: 0x8, addend: 0x0, symName: __ZNSt3__16vectorINS_12basic_stringIcNS_11char_traitsIcEENS_9allocatorIcEEEENS4_IS6_EEE9push_backB7v160006ERKS6_, symObjAddr: 0xB0E4, symBinAddr: 0x10000F278, symSize: 0x6C }
  - { offsetInCU: 0x20E36, offset: 0x20E36, size: 0x8, addend: 0x0, symName: __ZNSt3__16vectorI13nameANDemailsNS_9allocatorIS1_EEE12emplace_backIJRS1_EEES6_DpOT_, symObjAddr: 0xB150, symBinAddr: 0x10000F2E4, symSize: 0x74 }
  - { offsetInCU: 0x20E7E, offset: 0x20E7E, size: 0x8, addend: 0x0, symName: __ZN13nameANDemailsD1Ev, symObjAddr: 0xB1C4, symBinAddr: 0x10000F358, symSize: 0x2C }
  - { offsetInCU: 0x20EAA, offset: 0x20EAA, size: 0x8, addend: 0x0, symName: __ZNKSt3__113unordered_mapINS_12basic_stringIcNS_11char_traitsIcEENS_9allocatorIcEEEEiNS_4hashIS6_EENS_8equal_toIS6_EENS4_INS_4pairIKS6_iEEEEE4sizeB7v160006Ev, symObjAddr: 0xB1F0, symBinAddr: 0x10000F384, symSize: 0x24 }
  - { offsetInCU: 0x20F43, offset: 0x20F43, size: 0x8, addend: 0x0, symName: __ZN9UnionFindC1Ei, symObjAddr: 0xB214, symBinAddr: 0x10000F3A8, symSize: 0x34 }
  - { offsetInCU: 0x20F7B, offset: 0x20F7B, size: 0x8, addend: 0x0, symName: __ZN9UnionFind5uniteEii, symObjAddr: 0xB248, symBinAddr: 0x10000F3DC, symSize: 0x84 }
  - { offsetInCU: 0x21085, offset: 0x21085, size: 0x8, addend: 0x0, symName: __ZNSt3__113unordered_mapIiNS_6vectorINS_12basic_stringIcNS_11char_traitsIcEENS_9allocatorIcEEEENS5_IS7_EEEENS_4hashIiEENS_8equal_toIiEENS5_INS_4pairIKiS9_EEEEEC1B7v160006Ev, symObjAddr: 0xB2CC, symBinAddr: 0x10000F460, symSize: 0x2C }
  - { offsetInCU: 0x210AF, offset: 0x210AF, size: 0x8, addend: 0x0, symName: __ZNSt3__113unordered_mapINS_12basic_stringIcNS_11char_traitsIcEENS_9allocatorIcEEEEiNS_4hashIS6_EENS_8equal_toIS6_EENS4_INS_4pairIKS6_iEEEEE5beginB7v160006Ev, symObjAddr: 0xB2F8, symBinAddr: 0x10000F48C, symSize: 0x38 }
  - { offsetInCU: 0x210D5, offset: 0x210D5, size: 0x8, addend: 0x0, symName: __ZNSt3__113unordered_mapINS_12basic_stringIcNS_11char_traitsIcEENS_9allocatorIcEEEEiNS_4hashIS6_EENS_8equal_toIS6_EENS4_INS_4pairIKS6_iEEEEE3endB7v160006Ev, symObjAddr: 0xB330, symBinAddr: 0x10000F4C4, symSize: 0x38 }
  - { offsetInCU: 0x210FB, offset: 0x210FB, size: 0x8, addend: 0x0, symName: __ZNKSt3__119__hash_map_iteratorINS_15__hash_iteratorIPNS_11__hash_nodeINS_17__hash_value_typeINS_12basic_stringIcNS_11char_traitsIcEENS_9allocatorIcEEEEiEEPvEEEEEdeB7v160006Ev, symObjAddr: 0xB398, symBinAddr: 0x10000F52C, symSize: 0x28 }
  - { offsetInCU: 0x21121, offset: 0x21121, size: 0x8, addend: 0x0, symName: __ZNSt3__113unordered_mapIiNS_6vectorINS_12basic_stringIcNS_11char_traitsIcEENS_9allocatorIcEEEENS5_IS7_EEEENS_4hashIiEENS_8equal_toIiEENS5_INS_4pairIKiS9_EEEEEixEOi, symObjAddr: 0xB408, symBinAddr: 0x10000F59C, symSize: 0x80 }
  - { offsetInCU: 0x21158, offset: 0x21158, size: 0x8, addend: 0x0, symName: __ZN9UnionFind11find_parentEi, symObjAddr: 0xB488, symBinAddr: 0x10000F61C, symSize: 0xA0 }
  - { offsetInCU: 0x2118C, offset: 0x2118C, size: 0x8, addend: 0x0, symName: __ZNSt3__119__hash_map_iteratorINS_15__hash_iteratorIPNS_11__hash_nodeINS_17__hash_value_typeINS_12basic_stringIcNS_11char_traitsIcEENS_9allocatorIcEEEEiEEPvEEEEEppB7v160006Ev, symObjAddr: 0xB528, symBinAddr: 0x10000F6BC, symSize: 0x2C }
  - { offsetInCU: 0x211B2, offset: 0x211B2, size: 0x8, addend: 0x0, symName: __ZNSt3__113unordered_mapIiNS_6vectorINS_12basic_stringIcNS_11char_traitsIcEENS_9allocatorIcEEEENS5_IS7_EEEENS_4hashIiEENS_8equal_toIiEENS5_INS_4pairIKiS9_EEEEE5beginB7v160006Ev, symObjAddr: 0xB554, symBinAddr: 0x10000F6E8, symSize: 0x38 }
  - { offsetInCU: 0x211D8, offset: 0x211D8, size: 0x8, addend: 0x0, symName: __ZNSt3__113unordered_mapIiNS_6vectorINS_12basic_stringIcNS_11char_traitsIcEENS_9allocatorIcEEEENS5_IS7_EEEENS_4hashIiEENS_8equal_toIiEENS5_INS_4pairIKiS9_EEEEE3endB7v160006Ev, symObjAddr: 0xB58C, symBinAddr: 0x10000F720, symSize: 0x38 }
  - { offsetInCU: 0x211FE, offset: 0x211FE, size: 0x8, addend: 0x0, symName: __ZNKSt3__119__hash_map_iteratorINS_15__hash_iteratorIPNS_11__hash_nodeINS_17__hash_value_typeIiNS_6vectorINS_12basic_stringIcNS_11char_traitsIcEENS_9allocatorIcEEEENS8_ISA_EEEEEEPvEEEEEdeB7v160006Ev, symObjAddr: 0xB5F4, symBinAddr: 0x10000F788, symSize: 0x28 }
  - { offsetInCU: 0x21224, offset: 0x21224, size: 0x8, addend: 0x0, symName: __ZNSt3__16vectorI13nameANDemailsNS_9allocatorIS1_EEEixB7v160006Em, symObjAddr: 0xB664, symBinAddr: 0x10000F7F8, symSize: 0x2C }
  - { offsetInCU: 0x2125B, offset: 0x2125B, size: 0x8, addend: 0x0, symName: __ZNKSt3__111__wrap_iterIPNS_12basic_stringIcNS_11char_traitsIcEENS_9allocatorIcEEEEEdeB7v160006Ev, symObjAddr: 0xB6C4, symBinAddr: 0x10000F858, symSize: 0x18 }
  - { offsetInCU: 0x21281, offset: 0x21281, size: 0x8, addend: 0x0, symName: __ZNSt3__111__wrap_iterIPNS_12basic_stringIcNS_11char_traitsIcEENS_9allocatorIcEEEEEppB7v160006Ev, symObjAddr: 0xB6DC, symBinAddr: 0x10000F870, symSize: 0x20 }
  - { offsetInCU: 0x212A7, offset: 0x212A7, size: 0x8, addend: 0x0, symName: __ZNSt3__16vectorINS0_INS_12basic_stringIcNS_11char_traitsIcEENS_9allocatorIcEEEENS4_IS6_EEEENS4_IS8_EEE12emplace_backIJS8_EEERS8_DpOT_, symObjAddr: 0xB6FC, symBinAddr: 0x10000F890, symSize: 0x74 }
  - { offsetInCU: 0x212E9, offset: 0x212E9, size: 0x8, addend: 0x0, symName: __ZNSt3__119__hash_map_iteratorINS_15__hash_iteratorIPNS_11__hash_nodeINS_17__hash_value_typeIiNS_6vectorINS_12basic_stringIcNS_11char_traitsIcEENS_9allocatorIcEEEENS8_ISA_EEEEEEPvEEEEEppB7v160006Ev, symObjAddr: 0xB770, symBinAddr: 0x10000F904, symSize: 0x2C }
  - { offsetInCU: 0x2130F, offset: 0x2130F, size: 0x8, addend: 0x0, symName: __ZNSt3__113unordered_mapIiNS_6vectorINS_12basic_stringIcNS_11char_traitsIcEENS_9allocatorIcEEEENS5_IS7_EEEENS_4hashIiEENS_8equal_toIiEENS5_INS_4pairIKiS9_EEEEED1B7v160006Ev, symObjAddr: 0xB79C, symBinAddr: 0x10000F930, symSize: 0x2C }
  - { offsetInCU: 0x21339, offset: 0x21339, size: 0x8, addend: 0x0, symName: __ZN9UnionFindD1Ev, symObjAddr: 0xB7C8, symBinAddr: 0x10000F95C, symSize: 0x2C }
  - { offsetInCU: 0x21365, offset: 0x21365, size: 0x8, addend: 0x0, symName: __ZNSt3__16vectorINS_12basic_stringIcNS_11char_traitsIcEENS_9allocatorIcEEEENS4_IS6_EEEC2B7v160006Ev, symObjAddr: 0xB7F4, symBinAddr: 0x10000F988, symSize: 0x54 }
  - { offsetInCU: 0x2138F, offset: 0x2138F, size: 0x8, addend: 0x0, symName: __ZNSt3__117__compressed_pairIPNS_12basic_stringIcNS_11char_traitsIcEENS_9allocatorIcEEEENS4_IS6_EEEC1B7v160006IDnNS_18__default_init_tagEEEOT_OT0_, symObjAddr: 0xB848, symBinAddr: 0x10000F9DC, symSize: 0x3C }
  - { offsetInCU: 0x213E7, offset: 0x213E7, size: 0x8, addend: 0x0, symName: __ZNSt3__117__compressed_pairIPNS_12basic_stringIcNS_11char_traitsIcEENS_9allocatorIcEEEENS4_IS6_EEEC2B7v160006IDnNS_18__default_init_tagEEEOT_OT0_, symObjAddr: 0xB884, symBinAddr: 0x10000FA18, symSize: 0x40 }
  - { offsetInCU: 0x2143F, offset: 0x2143F, size: 0x8, addend: 0x0, symName: __ZNSt3__122__compressed_pair_elemINS_9allocatorINS_12basic_stringIcNS_11char_traitsIcEENS1_IcEEEEEELi1ELb1EEC2B7v160006ENS_18__default_init_tagE, symObjAddr: 0xB8C4, symBinAddr: 0x10000FA58, symSize: 0x2C }
  - { offsetInCU: 0x21474, offset: 0x21474, size: 0x8, addend: 0x0, symName: __ZNSt3__19allocatorINS_12basic_stringIcNS_11char_traitsIcEENS0_IcEEEEEC2B7v160006Ev, symObjAddr: 0xB8F0, symBinAddr: 0x10000FA84, symSize: 0x2C }
  - { offsetInCU: 0x2149E, offset: 0x2149E, size: 0x8, addend: 0x0, symName: __ZNSt3__116__non_trivial_ifILb1ENS_9allocatorINS_12basic_stringIcNS_11char_traitsIcEENS1_IcEEEEEEEC2B7v160006Ev, symObjAddr: 0xB91C, symBinAddr: 0x10000FAB0, symSize: 0x14 }
  - { offsetInCU: 0x214C8, offset: 0x214C8, size: 0x8, addend: 0x0, symName: __ZNKSt3__113unordered_mapINS_12basic_stringIcNS_11char_traitsIcEENS_9allocatorIcEEEEiNS_4hashIS6_EENS_8equal_toIS6_EENS4_INS_4pairIKS6_iEEEEE4findB7v160006ERSC_, symObjAddr: 0xB960, symBinAddr: 0x10000FAF4, symSize: 0x40 }
  - { offsetInCU: 0x214FD, offset: 0x214FD, size: 0x8, addend: 0x0, symName: __ZNKSt3__113unordered_mapINS_12basic_stringIcNS_11char_traitsIcEENS_9allocatorIcEEEEiNS_4hashIS6_EENS_8equal_toIS6_EENS4_INS_4pairIKS6_iEEEEE3endB7v160006Ev, symObjAddr: 0xB9A0, symBinAddr: 0x10000FB34, symSize: 0x38 }
  - { offsetInCU: 0x21523, offset: 0x21523, size: 0x8, addend: 0x0, symName: __ZNKSt3__112__hash_tableINS_17__hash_value_typeINS_12basic_stringIcNS_11char_traitsIcEENS_9allocatorIcEEEEiEENS_22__unordered_map_hasherIS7_S8_NS_4hashIS7_EENS_8equal_toIS7_EELb1EEENS_21__unordered_map_equalIS7_S8_SD_SB_Lb1EEENS5_IS8_EEE4findIS7_EENS_21__hash_const_iteratorIPNS_11__hash_nodeIS8_PvEEEERKT_, symObjAddr: 0xBA3C, symBinAddr: 0x10000FBD0, symSize: 0x1BC }
  - { offsetInCU: 0x215AD, offset: 0x215AD, size: 0x8, addend: 0x0, symName: __ZNSt3__125__hash_map_const_iteratorINS_21__hash_const_iteratorIPNS_11__hash_nodeINS_17__hash_value_typeINS_12basic_stringIcNS_11char_traitsIcEENS_9allocatorIcEEEEiEEPvEEEEEC1B7v160006ESE_, symObjAddr: 0xBBF8, symBinAddr: 0x10000FD8C, symSize: 0x34 }
  - { offsetInCU: 0x215E6, offset: 0x215E6, size: 0x8, addend: 0x0, symName: __ZNKSt3__112__hash_tableINS_17__hash_value_typeINS_12basic_stringIcNS_11char_traitsIcEENS_9allocatorIcEEEEiEENS_22__unordered_map_hasherIS7_S8_NS_4hashIS7_EENS_8equal_toIS7_EELb1EEENS_21__unordered_map_equalIS7_S8_SD_SB_Lb1EEENS5_IS8_EEE13hash_functionB7v160006Ev, symObjAddr: 0xBC2C, symBinAddr: 0x10000FDC0, symSize: 0x28 }
  - { offsetInCU: 0x2160C, offset: 0x2160C, size: 0x8, addend: 0x0, symName: __ZNKSt3__122__unordered_map_hasherINS_12basic_stringIcNS_11char_traitsIcEENS_9allocatorIcEEEENS_17__hash_value_typeIS6_iEENS_4hashIS6_EENS_8equal_toIS6_EELb1EEclB7v160006ERKS6_, symObjAddr: 0xBC54, symBinAddr: 0x10000FDE8, symSize: 0x2C }
  - { offsetInCU: 0x21641, offset: 0x21641, size: 0x8, addend: 0x0, symName: __ZNKSt3__112__hash_tableINS_17__hash_value_typeINS_12basic_stringIcNS_11char_traitsIcEENS_9allocatorIcEEEEiEENS_22__unordered_map_hasherIS7_S8_NS_4hashIS7_EENS_8equal_toIS7_EELb1EEENS_21__unordered_map_equalIS7_S8_SD_SB_Lb1EEENS5_IS8_EEE12bucket_countB7v160006Ev, symObjAddr: 0xBC80, symBinAddr: 0x10000FE14, symSize: 0x28 }
  - { offsetInCU: 0x21667, offset: 0x21667, size: 0x8, addend: 0x0, symName: __ZNKSt3__110unique_ptrIA_PNS_16__hash_node_baseIPNS_11__hash_nodeINS_17__hash_value_typeINS_12basic_stringIcNS_11char_traitsIcEENS_9allocatorIcEEEEiEEPvEEEENS_25__bucket_list_deallocatorINS7_ISF_EEEEEixB7v160006Em, symObjAddr: 0xBD40, symBinAddr: 0x10000FED4, symSize: 0x34 }
  - { offsetInCU: 0x2169C, offset: 0x2169C, size: 0x8, addend: 0x0, symName: __ZNKSt3__116__hash_node_baseIPNS_11__hash_nodeINS_17__hash_value_typeINS_12basic_stringIcNS_11char_traitsIcEENS_9allocatorIcEEEEiEEPvEEE6__hashB7v160006Ev, symObjAddr: 0xBD74, symBinAddr: 0x10000FF08, symSize: 0x18 }
  - { offsetInCU: 0x216C2, offset: 0x216C2, size: 0x8, addend: 0x0, symName: __ZNKSt3__112__hash_tableINS_17__hash_value_typeINS_12basic_stringIcNS_11char_traitsIcEENS_9allocatorIcEEEEiEENS_22__unordered_map_hasherIS7_S8_NS_4hashIS7_EENS_8equal_toIS7_EELb1EEENS_21__unordered_map_equalIS7_S8_SD_SB_Lb1EEENS5_IS8_EEE6key_eqB7v160006Ev, symObjAddr: 0xBD8C, symBinAddr: 0x10000FF20, symSize: 0x28 }
  - { offsetInCU: 0x216E8, offset: 0x216E8, size: 0x8, addend: 0x0, symName: __ZNKSt3__121__unordered_map_equalINS_12basic_stringIcNS_11char_traitsIcEENS_9allocatorIcEEEENS_17__hash_value_typeIS6_iEENS_8equal_toIS6_EENS_4hashIS6_EELb1EEclB7v160006ERKS8_RKS6_, symObjAddr: 0xBDB4, symBinAddr: 0x10000FF48, symSize: 0x48 }
  - { offsetInCU: 0x2172C, offset: 0x2172C, size: 0x8, addend: 0x0, symName: __ZNSt3__116__hash_node_baseIPNS_11__hash_nodeINS_17__hash_value_typeINS_12basic_stringIcNS_11char_traitsIcEENS_9allocatorIcEEEEiEEPvEEE8__upcastB7v160006Ev, symObjAddr: 0xBDFC, symBinAddr: 0x10000FF90, symSize: 0x24 }
  - { offsetInCU: 0x21752, offset: 0x21752, size: 0x8, addend: 0x0, symName: __ZNSt3__121__hash_const_iteratorIPNS_11__hash_nodeINS_17__hash_value_typeINS_12basic_stringIcNS_11char_traitsIcEENS_9allocatorIcEEEEiEEPvEEEC1B7v160006EPNS_16__hash_node_baseISC_EEPKv, symObjAddr: 0xBE20, symBinAddr: 0x10000FFB4, symSize: 0x3C }
  - { offsetInCU: 0x2179A, offset: 0x2179A, size: 0x8, addend: 0x0, symName: __ZNKSt3__112__hash_tableINS_17__hash_value_typeINS_12basic_stringIcNS_11char_traitsIcEENS_9allocatorIcEEEEiEENS_22__unordered_map_hasherIS7_S8_NS_4hashIS7_EENS_8equal_toIS7_EELb1EEENS_21__unordered_map_equalIS7_S8_SD_SB_Lb1EEENS5_IS8_EEE3endEv, symObjAddr: 0xBE5C, symBinAddr: 0x10000FFF0, symSize: 0x30 }
  - { offsetInCU: 0x217C2, offset: 0x217C2, size: 0x8, addend: 0x0, symName: __ZNKSt3__117__compressed_pairImNS_22__unordered_map_hasherINS_12basic_stringIcNS_11char_traitsIcEENS_9allocatorIcEEEENS_17__hash_value_typeIS7_iEENS_4hashIS7_EENS_8equal_toIS7_EELb1EEEE6secondB7v160006Ev, symObjAddr: 0xBE8C, symBinAddr: 0x100010020, symSize: 0x24 }
  - { offsetInCU: 0x217E8, offset: 0x217E8, size: 0x8, addend: 0x0, symName: __ZNKSt3__122__compressed_pair_elemINS_22__unordered_map_hasherINS_12basic_stringIcNS_11char_traitsIcEENS_9allocatorIcEEEENS_17__hash_value_typeIS7_iEENS_4hashIS7_EENS_8equal_toIS7_EELb1EEELi1ELb1EE5__getB7v160006Ev, symObjAddr: 0xBEB0, symBinAddr: 0x100010044, symSize: 0x14 }
  - { offsetInCU: 0x2180E, offset: 0x2180E, size: 0x8, addend: 0x0, symName: __ZNKSt3__113__string_hashIcNS_9allocatorIcEEEclERKNS_12basic_stringIcNS_11char_traitsIcEES2_EE, symObjAddr: 0xBEC4, symBinAddr: 0x100010058, symSize: 0x64 }
  - { offsetInCU: 0x21843, offset: 0x21843, size: 0x8, addend: 0x0, symName: __ZNSt3__121__murmur2_or_cityhashImLm64EEclEPKvm, symObjAddr: 0xBF64, symBinAddr: 0x1000100F8, symSize: 0x410 }
  - { offsetInCU: 0x218DE, offset: 0x218DE, size: 0x8, addend: 0x0, symName: __ZNSt3__121__murmur2_or_cityhashImLm64EE18__hash_len_0_to_16EPKcm, symObjAddr: 0xC374, symBinAddr: 0x100010508, symSize: 0x1C0 }
  - { offsetInCU: 0x219B7, offset: 0x219B7, size: 0x8, addend: 0x0, symName: __ZNSt3__121__murmur2_or_cityhashImLm64EE19__hash_len_17_to_32EPKcm, symObjAddr: 0xC534, symBinAddr: 0x1000106C8, symSize: 0x130 }
  - { offsetInCU: 0x21A20, offset: 0x21A20, size: 0x8, addend: 0x0, symName: __ZNSt3__121__murmur2_or_cityhashImLm64EE19__hash_len_33_to_64EPKcm, symObjAddr: 0xC664, symBinAddr: 0x1000107F8, symSize: 0x2B8 }
  - { offsetInCU: 0x21AD2, offset: 0x21AD2, size: 0x8, addend: 0x0, symName: __ZNSt3__121__murmur2_or_cityhashImLm64EE13__hash_len_16Emm, symObjAddr: 0xC93C, symBinAddr: 0x100010AD0, symSize: 0x80 }
  - { offsetInCU: 0x21B2D, offset: 0x21B2D, size: 0x8, addend: 0x0, symName: __ZNSt3__121__murmur2_or_cityhashImLm64EE29__weak_hash_len_32_with_seedsEPKcmm, symObjAddr: 0xC9BC, symBinAddr: 0x100010B50, symSize: 0x88 }
  - { offsetInCU: 0x21B6C, offset: 0x21B6C, size: 0x8, addend: 0x0, symName: __ZNSt3__121__murmur2_or_cityhashImLm64EE8__rotateEmi, symObjAddr: 0xCA44, symBinAddr: 0x100010BD8, symSize: 0x64 }
  - { offsetInCU: 0x21B9D, offset: 0x21B9D, size: 0x8, addend: 0x0, symName: __ZNSt3__14pairImmEaSB7v160006EOS1_, symObjAddr: 0xCAA8, symBinAddr: 0x100010C3C, symSize: 0x30 }
  - { offsetInCU: 0x21BD2, offset: 0x21BD2, size: 0x8, addend: 0x0, symName: __ZNSt3__121__murmur2_or_cityhashImLm64EE11__shift_mixEm, symObjAddr: 0xCB14, symBinAddr: 0x100010CA8, symSize: 0x1C }
  - { offsetInCU: 0x21BF5, offset: 0x21BF5, size: 0x8, addend: 0x0, symName: __ZNSt3__121__murmur2_or_cityhashImLm64EE22__rotate_by_at_least_1Emi, symObjAddr: 0xCB30, symBinAddr: 0x100010CC4, symSize: 0x38 }
  - { offsetInCU: 0x21C26, offset: 0x21C26, size: 0x8, addend: 0x0, symName: __ZNSt3__121__murmur2_or_cityhashImLm64EE29__weak_hash_len_32_with_seedsEmmmmmm, symObjAddr: 0xCB88, symBinAddr: 0x100010D1C, symSize: 0xD8 }
  - { offsetInCU: 0x21CA3, offset: 0x21CA3, size: 0x8, addend: 0x0, symName: __ZNSt3__14pairImmEC1B7v160006ImmLPv0EEEOT_OT0_, symObjAddr: 0xCC60, symBinAddr: 0x100010DF4, symSize: 0x3C }
  - { offsetInCU: 0x21D01, offset: 0x21D01, size: 0x8, addend: 0x0, symName: __ZNSt3__14pairImmEC2B7v160006ImmLPv0EEEOT_OT0_, symObjAddr: 0xCC9C, symBinAddr: 0x100010E30, symSize: 0x34 }
  - { offsetInCU: 0x21D5F, offset: 0x21D5F, size: 0x8, addend: 0x0, symName: __ZNKSt3__110unique_ptrIA_PNS_16__hash_node_baseIPNS_11__hash_nodeINS_17__hash_value_typeINS_12basic_stringIcNS_11char_traitsIcEENS_9allocatorIcEEEEiEEPvEEEENS_25__bucket_list_deallocatorINS7_ISF_EEEEE11get_deleterB7v160006Ev, symObjAddr: 0xCCD0, symBinAddr: 0x100010E64, symSize: 0x24 }
  - { offsetInCU: 0x21D85, offset: 0x21D85, size: 0x8, addend: 0x0, symName: __ZNKSt3__125__bucket_list_deallocatorINS_9allocatorIPNS_16__hash_node_baseIPNS_11__hash_nodeINS_17__hash_value_typeINS_12basic_stringIcNS_11char_traitsIcEENS1_IcEEEEiEEPvEEEEEEE4sizeB7v160006Ev, symObjAddr: 0xCCF4, symBinAddr: 0x100010E88, symSize: 0x28 }
  - { offsetInCU: 0x21DAB, offset: 0x21DAB, size: 0x8, addend: 0x0, symName: __ZNKSt3__117__compressed_pairIPPNS_16__hash_node_baseIPNS_11__hash_nodeINS_17__hash_value_typeINS_12basic_stringIcNS_11char_traitsIcEENS_9allocatorIcEEEEiEEPvEEEENS_25__bucket_list_deallocatorINS7_ISF_EEEEE6secondB7v160006Ev, symObjAddr: 0xCD1C, symBinAddr: 0x100010EB0, symSize: 0x28 }
  - { offsetInCU: 0x21DD1, offset: 0x21DD1, size: 0x8, addend: 0x0, symName: __ZNKSt3__122__compressed_pair_elemINS_25__bucket_list_deallocatorINS_9allocatorIPNS_16__hash_node_baseIPNS_11__hash_nodeINS_17__hash_value_typeINS_12basic_stringIcNS_11char_traitsIcEENS2_IcEEEEiEEPvEEEEEEEELi1ELb0EE5__getB7v160006Ev, symObjAddr: 0xCD44, symBinAddr: 0x100010ED8, symSize: 0x14 }
  - { offsetInCU: 0x21DF7, offset: 0x21DF7, size: 0x8, addend: 0x0, symName: __ZNKSt3__117__compressed_pairImNS_9allocatorIPNS_16__hash_node_baseIPNS_11__hash_nodeINS_17__hash_value_typeINS_12basic_stringIcNS_11char_traitsIcEENS1_IcEEEEiEEPvEEEEEEE5firstB7v160006Ev, symObjAddr: 0xCD58, symBinAddr: 0x100010EEC, symSize: 0x24 }
  - { offsetInCU: 0x21E1D, offset: 0x21E1D, size: 0x8, addend: 0x0, symName: __ZNKSt3__122__compressed_pair_elemImLi0ELb0EE5__getB7v160006Ev, symObjAddr: 0xCD7C, symBinAddr: 0x100010F10, symSize: 0x14 }
  - { offsetInCU: 0x21E43, offset: 0x21E43, size: 0x8, addend: 0x0, symName: __ZNKSt3__117__compressed_pairIPPNS_16__hash_node_baseIPNS_11__hash_nodeINS_17__hash_value_typeINS_12basic_stringIcNS_11char_traitsIcEENS_9allocatorIcEEEEiEEPvEEEENS_25__bucket_list_deallocatorINS7_ISF_EEEEE5firstB7v160006Ev, symObjAddr: 0xCD90, symBinAddr: 0x100010F24, symSize: 0x24 }
  - { offsetInCU: 0x21E69, offset: 0x21E69, size: 0x8, addend: 0x0, symName: __ZNKSt3__122__compressed_pair_elemIPPNS_16__hash_node_baseIPNS_11__hash_nodeINS_17__hash_value_typeINS_12basic_stringIcNS_11char_traitsIcEENS_9allocatorIcEEEEiEEPvEEEELi0ELb0EE5__getB7v160006Ev, symObjAddr: 0xCDB4, symBinAddr: 0x100010F48, symSize: 0x14 }
  - { offsetInCU: 0x21E8F, offset: 0x21E8F, size: 0x8, addend: 0x0, symName: __ZNKSt3__117__compressed_pairIfNS_21__unordered_map_equalINS_12basic_stringIcNS_11char_traitsIcEENS_9allocatorIcEEEENS_17__hash_value_typeIS7_iEENS_8equal_toIS7_EENS_4hashIS7_EELb1EEEE6secondB7v160006Ev, symObjAddr: 0xCDC8, symBinAddr: 0x100010F5C, symSize: 0x24 }
  - { offsetInCU: 0x21EB5, offset: 0x21EB5, size: 0x8, addend: 0x0, symName: __ZNKSt3__122__compressed_pair_elemINS_21__unordered_map_equalINS_12basic_stringIcNS_11char_traitsIcEENS_9allocatorIcEEEENS_17__hash_value_typeIS7_iEENS_8equal_toIS7_EENS_4hashIS7_EELb1EEELi1ELb1EE5__getB7v160006Ev, symObjAddr: 0xCDEC, symBinAddr: 0x100010F80, symSize: 0x14 }
  - { offsetInCU: 0x21EDB, offset: 0x21EDB, size: 0x8, addend: 0x0, symName: __ZNKSt3__18equal_toINS_12basic_stringIcNS_11char_traitsIcEENS_9allocatorIcEEEEEclB7v160006ERKS6_S9_, symObjAddr: 0xCE00, symBinAddr: 0x100010F94, symSize: 0x34 }
  - { offsetInCU: 0x21F1F, offset: 0x21F1F, size: 0x8, addend: 0x0, symName: __ZNKSt3__117__hash_value_typeINS_12basic_stringIcNS_11char_traitsIcEENS_9allocatorIcEEEEiE11__get_valueB7v160006Ev, symObjAddr: 0xCE34, symBinAddr: 0x100010FC8, symSize: 0x24 }
  - { offsetInCU: 0x21F45, offset: 0x21F45, size: 0x8, addend: 0x0, symName: __ZNSt3__114pointer_traitsIPNS_16__hash_node_baseIPNS_11__hash_nodeINS_17__hash_value_typeINS_12basic_stringIcNS_11char_traitsIcEENS_9allocatorIcEEEEiEEPvEEEEE10pointer_toB7v160006ERSE_, symObjAddr: 0xCE90, symBinAddr: 0x100011024, symSize: 0x14 }
  - { offsetInCU: 0x21F68, offset: 0x21F68, size: 0x8, addend: 0x0, symName: __ZNSt3__121__hash_const_iteratorIPNS_11__hash_nodeINS_17__hash_value_typeINS_12basic_stringIcNS_11char_traitsIcEENS_9allocatorIcEEEEiEEPvEEEC2B7v160006EPNS_16__hash_node_baseISC_EEPKv, symObjAddr: 0xCEA4, symBinAddr: 0x100011038, symSize: 0x24 }
  - { offsetInCU: 0x21FB0, offset: 0x21FB0, size: 0x8, addend: 0x0, symName: __ZNSt3__125__hash_map_const_iteratorINS_21__hash_const_iteratorIPNS_11__hash_nodeINS_17__hash_value_typeINS_12basic_stringIcNS_11char_traitsIcEENS_9allocatorIcEEEEiEEPvEEEEEC2B7v160006ESE_, symObjAddr: 0xCEC8, symBinAddr: 0x10001105C, symSize: 0x20 }
  - { offsetInCU: 0x22001, offset: 0x22001, size: 0x8, addend: 0x0, symName: __ZNSt3__112__hash_tableINS_17__hash_value_typeINS_12basic_stringIcNS_11char_traitsIcEENS_9allocatorIcEEEEiEENS_22__unordered_map_hasherIS7_S8_NS_4hashIS7_EENS_8equal_toIS7_EELb1EEENS_21__unordered_map_equalIS7_S8_SD_SB_Lb1EEENS5_IS8_EEE25__emplace_unique_key_argsIS7_JRKNS_21piecewise_construct_tENS_5tupleIJRKS7_EEENSN_IJEEEEEENS_4pairINS_15__hash_iteratorIPNS_11__hash_nodeIS8_PvEEEEbEERKT_DpOT0_, symObjAddr: 0xCEE8, symBinAddr: 0x10001107C, symSize: 0x4A0 }
  - { offsetInCU: 0x2210A, offset: 0x2210A, size: 0x8, addend: 0x0, symName: __ZNKSt3__115__hash_iteratorIPNS_11__hash_nodeINS_17__hash_value_typeINS_12basic_stringIcNS_11char_traitsIcEENS_9allocatorIcEEEEiEEPvEEEptB7v160006Ev, symObjAddr: 0xD3B8, symBinAddr: 0x10001154C, symSize: 0x30 }
  - { offsetInCU: 0x22130, offset: 0x22130, size: 0x8, addend: 0x0, symName: __ZNSt3__117__hash_value_typeINS_12basic_stringIcNS_11char_traitsIcEENS_9allocatorIcEEEEiE11__get_valueB7v160006Ev, symObjAddr: 0xD3E8, symBinAddr: 0x10001157C, symSize: 0x24 }
  - { offsetInCU: 0x22156, offset: 0x22156, size: 0x8, addend: 0x0, symName: __ZNSt3__112__hash_tableINS_17__hash_value_typeINS_12basic_stringIcNS_11char_traitsIcEENS_9allocatorIcEEEEiEENS_22__unordered_map_hasherIS7_S8_NS_4hashIS7_EENS_8equal_toIS7_EELb1EEENS_21__unordered_map_equalIS7_S8_SD_SB_Lb1EEENS5_IS8_EEE13hash_functionB7v160006Ev, symObjAddr: 0xD40C, symBinAddr: 0x1000115A0, symSize: 0x28 }
  - { offsetInCU: 0x2217C, offset: 0x2217C, size: 0x8, addend: 0x0, symName: __ZNSt3__112__hash_tableINS_17__hash_value_typeINS_12basic_stringIcNS_11char_traitsIcEENS_9allocatorIcEEEEiEENS_22__unordered_map_hasherIS7_S8_NS_4hashIS7_EENS_8equal_toIS7_EELb1EEENS_21__unordered_map_equalIS7_S8_SD_SB_Lb1EEENS5_IS8_EEE6key_eqB7v160006Ev, symObjAddr: 0xD434, symBinAddr: 0x1000115C8, symSize: 0x28 }
  - { offsetInCU: 0x221A2, offset: 0x221A2, size: 0x8, addend: 0x0, symName: __ZNSt3__112__hash_tableINS_17__hash_value_typeINS_12basic_stringIcNS_11char_traitsIcEENS_9allocatorIcEEEEiEENS_22__unordered_map_hasherIS7_S8_NS_4hashIS7_EENS_8equal_toIS7_EELb1EEENS_21__unordered_map_equalIS7_S8_SD_SB_Lb1EEENS5_IS8_EEE21__construct_node_hashIRKNS_21piecewise_construct_tEJNS_5tupleIJRKS7_EEENSN_IJEEEEEENS_10unique_ptrINS_11__hash_nodeIS8_PvEENS_22__hash_node_destructorINS5_ISV_EEEEEEmOT_DpOT0_, symObjAddr: 0xD45C, symBinAddr: 0x1000115F0, symSize: 0x150 }
  - { offsetInCU: 0x2223E, offset: 0x2223E, size: 0x8, addend: 0x0, symName: __ZNSt3__112__hash_tableINS_17__hash_value_typeINS_12basic_stringIcNS_11char_traitsIcEENS_9allocatorIcEEEEiEENS_22__unordered_map_hasherIS7_S8_NS_4hashIS7_EENS_8equal_toIS7_EELb1EEENS_21__unordered_map_equalIS7_S8_SD_SB_Lb1EEENS5_IS8_EEE4sizeB7v160006Ev, symObjAddr: 0xD5AC, symBinAddr: 0x100011740, symSize: 0x28 }
  - { offsetInCU: 0x22264, offset: 0x22264, size: 0x8, addend: 0x0, symName: __ZNSt3__112__hash_tableINS_17__hash_value_typeINS_12basic_stringIcNS_11char_traitsIcEENS_9allocatorIcEEEEiEENS_22__unordered_map_hasherIS7_S8_NS_4hashIS7_EENS_8equal_toIS7_EELb1EEENS_21__unordered_map_equalIS7_S8_SD_SB_Lb1EEENS5_IS8_EEE15max_load_factorB7v160006Ev, symObjAddr: 0xD5D4, symBinAddr: 0x100011768, symSize: 0x28 }
  - { offsetInCU: 0x2228A, offset: 0x2228A, size: 0x8, addend: 0x0, symName: __ZNSt3__112__hash_tableINS_17__hash_value_typeINS_12basic_stringIcNS_11char_traitsIcEENS_9allocatorIcEEEEiEENS_22__unordered_map_hasherIS7_S8_NS_4hashIS7_EENS_8equal_toIS7_EELb1EEENS_21__unordered_map_equalIS7_S8_SD_SB_Lb1EEENS5_IS8_EEE15__rehash_uniqueB7v160006Em, symObjAddr: 0xD5FC, symBinAddr: 0x100011790, symSize: 0x2C }
  - { offsetInCU: 0x222BF, offset: 0x222BF, size: 0x8, addend: 0x0, symName: __Z4ceilB7v160006f, symObjAddr: 0xD6A4, symBinAddr: 0x100011838, symSize: 0x18 }
  - { offsetInCU: 0x222ED, offset: 0x222ED, size: 0x8, addend: 0x0, symName: __ZNSt3__117__compressed_pairINS_16__hash_node_baseIPNS_11__hash_nodeINS_17__hash_value_typeINS_12basic_stringIcNS_11char_traitsIcEENS_9allocatorIcEEEEiEEPvEEEENS7_ISC_EEE5firstB7v160006Ev, symObjAddr: 0xD6BC, symBinAddr: 0x100011850, symSize: 0x24 }
  - { offsetInCU: 0x22313, offset: 0x22313, size: 0x8, addend: 0x0, symName: __ZNSt3__116__hash_node_baseIPNS_11__hash_nodeINS_17__hash_value_typeINS_12basic_stringIcNS_11char_traitsIcEENS_9allocatorIcEEEEiEEPvEEE5__ptrB7v160006Ev, symObjAddr: 0xD6E0, symBinAddr: 0x100011874, symSize: 0x24 }
  - { offsetInCU: 0x22339, offset: 0x22339, size: 0x8, addend: 0x0, symName: __ZNKSt3__110unique_ptrINS_11__hash_nodeINS_17__hash_value_typeINS_12basic_stringIcNS_11char_traitsIcEENS_9allocatorIcEEEEiEEPvEENS_22__hash_node_destructorINS6_ISB_EEEEEptB7v160006Ev, symObjAddr: 0xD704, symBinAddr: 0x100011898, symSize: 0x28 }
  - { offsetInCU: 0x2235F, offset: 0x2235F, size: 0x8, addend: 0x0, symName: __ZNKSt3__110unique_ptrINS_11__hash_nodeINS_17__hash_value_typeINS_12basic_stringIcNS_11char_traitsIcEENS_9allocatorIcEEEEiEEPvEENS_22__hash_node_destructorINS6_ISB_EEEEE3getB7v160006Ev, symObjAddr: 0xD72C, symBinAddr: 0x1000118C0, symSize: 0x28 }
  - { offsetInCU: 0x22385, offset: 0x22385, size: 0x8, addend: 0x0, symName: __ZNSt3__110unique_ptrINS_11__hash_nodeINS_17__hash_value_typeINS_12basic_stringIcNS_11char_traitsIcEENS_9allocatorIcEEEEiEEPvEENS_22__hash_node_destructorINS6_ISB_EEEEE7releaseB7v160006Ev, symObjAddr: 0xD754, symBinAddr: 0x1000118E8, symSize: 0x44 }
  - { offsetInCU: 0x223BA, offset: 0x223BA, size: 0x8, addend: 0x0, symName: __ZNSt3__110unique_ptrINS_11__hash_nodeINS_17__hash_value_typeINS_12basic_stringIcNS_11char_traitsIcEENS_9allocatorIcEEEEiEEPvEENS_22__hash_node_destructorINS6_ISB_EEEEED1B7v160006Ev, symObjAddr: 0xD798, symBinAddr: 0x10001192C, symSize: 0x2C }
  - { offsetInCU: 0x223E4, offset: 0x223E4, size: 0x8, addend: 0x0, symName: __ZNSt3__115__hash_iteratorIPNS_11__hash_nodeINS_17__hash_value_typeINS_12basic_stringIcNS_11char_traitsIcEENS_9allocatorIcEEEEiEEPvEEEC1B7v160006EPNS_16__hash_node_baseISC_EEPKv, symObjAddr: 0xD7C4, symBinAddr: 0x100011958, symSize: 0x3C }
  - { offsetInCU: 0x22438, offset: 0x22438, size: 0x8, addend: 0x0, symName: __ZNSt3__14pairINS_15__hash_iteratorIPNS_11__hash_nodeINS_17__hash_value_typeINS_12basic_stringIcNS_11char_traitsIcEENS_9allocatorIcEEEEiEEPvEEEEbEC1B7v160006ISE_RbLSB_0EEEOT_OT0_, symObjAddr: 0xD800, symBinAddr: 0x100011994, symSize: 0x3C }
  - { offsetInCU: 0x22496, offset: 0x22496, size: 0x8, addend: 0x0, symName: __ZNSt3__117__compressed_pairImNS_22__unordered_map_hasherINS_12basic_stringIcNS_11char_traitsIcEENS_9allocatorIcEEEENS_17__hash_value_typeIS7_iEENS_4hashIS7_EENS_8equal_toIS7_EELb1EEEE6secondB7v160006Ev, symObjAddr: 0xD83C, symBinAddr: 0x1000119D0, symSize: 0x24 }
  - { offsetInCU: 0x224BC, offset: 0x224BC, size: 0x8, addend: 0x0, symName: __ZNSt3__122__compressed_pair_elemINS_22__unordered_map_hasherINS_12basic_stringIcNS_11char_traitsIcEENS_9allocatorIcEEEENS_17__hash_value_typeIS7_iEENS_4hashIS7_EENS_8equal_toIS7_EELb1EEELi1ELb1EE5__getB7v160006Ev, symObjAddr: 0xD860, symBinAddr: 0x1000119F4, symSize: 0x14 }
  - { offsetInCU: 0x224E2, offset: 0x224E2, size: 0x8, addend: 0x0, symName: __ZNSt3__117__compressed_pairIfNS_21__unordered_map_equalINS_12basic_stringIcNS_11char_traitsIcEENS_9allocatorIcEEEENS_17__hash_value_typeIS7_iEENS_8equal_toIS7_EENS_4hashIS7_EELb1EEEE6secondB7v160006Ev, symObjAddr: 0xD874, symBinAddr: 0x100011A08, symSize: 0x24 }
  - { offsetInCU: 0x22508, offset: 0x22508, size: 0x8, addend: 0x0, symName: __ZNSt3__122__compressed_pair_elemINS_21__unordered_map_equalINS_12basic_stringIcNS_11char_traitsIcEENS_9allocatorIcEEEENS_17__hash_value_typeIS7_iEENS_8equal_toIS7_EENS_4hashIS7_EELb1EEELi1ELb1EE5__getB7v160006Ev, symObjAddr: 0xD898, symBinAddr: 0x100011A2C, symSize: 0x14 }
  - { offsetInCU: 0x2252E, offset: 0x2252E, size: 0x8, addend: 0x0, symName: __ZNSt3__112__hash_tableINS_17__hash_value_typeINS_12basic_stringIcNS_11char_traitsIcEENS_9allocatorIcEEEEiEENS_22__unordered_map_hasherIS7_S8_NS_4hashIS7_EENS_8equal_toIS7_EELb1EEENS_21__unordered_map_equalIS7_S8_SD_SB_Lb1EEENS5_IS8_EEE12__node_allocB7v160006Ev, symObjAddr: 0xD8AC, symBinAddr: 0x100011A40, symSize: 0x28 }
  - { offsetInCU: 0x22554, offset: 0x22554, size: 0x8, addend: 0x0, symName: __ZNSt3__116allocator_traitsINS_9allocatorINS_11__hash_nodeINS_17__hash_value_typeINS_12basic_stringIcNS_11char_traitsIcEENS1_IcEEEEiEEPvEEEEE8allocateB7v160006ERSC_m, symObjAddr: 0xD8D4, symBinAddr: 0x100011A68, symSize: 0x2C }
  - { offsetInCU: 0x22587, offset: 0x22587, size: 0x8, addend: 0x0, symName: __ZNSt3__122__hash_node_destructorINS_9allocatorINS_11__hash_nodeINS_17__hash_value_typeINS_12basic_stringIcNS_11char_traitsIcEENS1_IcEEEEiEEPvEEEEEC1B7v160006ERSC_b, symObjAddr: 0xD900, symBinAddr: 0x100011A94, symSize: 0x48 }
  - { offsetInCU: 0x225D5, offset: 0x225D5, size: 0x8, addend: 0x0, symName: __ZNSt3__110unique_ptrINS_11__hash_nodeINS_17__hash_value_typeINS_12basic_stringIcNS_11char_traitsIcEENS_9allocatorIcEEEEiEEPvEENS_22__hash_node_destructorINS6_ISB_EEEEEC1B7v160006ILb1EvEEPSB_NS_16__dependent_typeINS_27__unique_ptr_deleter_sfinaeISE_EEXT_EE20__good_rval_ref_typeE, symObjAddr: 0xD948, symBinAddr: 0x100011ADC, symSize: 0x3C }
  - { offsetInCU: 0x22626, offset: 0x22626, size: 0x8, addend: 0x0, symName: __ZNSt3__116allocator_traitsINS_9allocatorINS_11__hash_nodeINS_17__hash_value_typeINS_12basic_stringIcNS_11char_traitsIcEENS1_IcEEEEiEEPvEEEEE9constructB7v160006INS_4pairIKS8_iEEJRKNS_21piecewise_construct_tENS_5tupleIJRSG_EEENSL_IJEEEEvvEEvRSC_PT_DpOT0_, symObjAddr: 0xD984, symBinAddr: 0x100011B18, symSize: 0x40 }
  - { offsetInCU: 0x226A2, offset: 0x226A2, size: 0x8, addend: 0x0, symName: __ZNSt3__122__hash_key_value_typesINS_17__hash_value_typeINS_12basic_stringIcNS_11char_traitsIcEENS_9allocatorIcEEEEiEEE9__get_ptrB7v160006ERS8_, symObjAddr: 0xD9C4, symBinAddr: 0x100011B58, symSize: 0x24 }
  - { offsetInCU: 0x226C5, offset: 0x226C5, size: 0x8, addend: 0x0, symName: __ZNSt3__110unique_ptrINS_11__hash_nodeINS_17__hash_value_typeINS_12basic_stringIcNS_11char_traitsIcEENS_9allocatorIcEEEEiEEPvEENS_22__hash_node_destructorINS6_ISB_EEEEE11get_deleterB7v160006Ev, symObjAddr: 0xD9E8, symBinAddr: 0x100011B7C, symSize: 0x24 }
  - { offsetInCU: 0x226EB, offset: 0x226EB, size: 0x8, addend: 0x0, symName: __ZNSt3__117__compressed_pairINS_16__hash_node_baseIPNS_11__hash_nodeINS_17__hash_value_typeINS_12basic_stringIcNS_11char_traitsIcEENS_9allocatorIcEEEEiEEPvEEEENS7_ISC_EEE6secondB7v160006Ev, symObjAddr: 0xDA0C, symBinAddr: 0x100011BA0, symSize: 0x24 }
  - { offsetInCU: 0x22711, offset: 0x22711, size: 0x8, addend: 0x0, symName: __ZNSt3__122__compressed_pair_elemINS_9allocatorINS_11__hash_nodeINS_17__hash_value_typeINS_12basic_stringIcNS_11char_traitsIcEENS1_IcEEEEiEEPvEEEELi1ELb1EE5__getB7v160006Ev, symObjAddr: 0xDA30, symBinAddr: 0x100011BC4, symSize: 0x14 }
  - { offsetInCU: 0x22737, offset: 0x22737, size: 0x8, addend: 0x0, symName: __ZNSt3__19allocatorINS_11__hash_nodeINS_17__hash_value_typeINS_12basic_stringIcNS_11char_traitsIcEENS0_IcEEEEiEEPvEEE8allocateB7v160006Em, symObjAddr: 0xDA44, symBinAddr: 0x100011BD8, symSize: 0x5C }
  - { offsetInCU: 0x22776, offset: 0x22776, size: 0x8, addend: 0x0, symName: __ZNSt3__116allocator_traitsINS_9allocatorINS_11__hash_nodeINS_17__hash_value_typeINS_12basic_stringIcNS_11char_traitsIcEENS1_IcEEEEiEEPvEEEEE8max_sizeB7v160006ISC_vvEEmRKSC_, symObjAddr: 0xDAA0, symBinAddr: 0x100011C34, symSize: 0x28 }
  - { offsetInCU: 0x227A1, offset: 0x227A1, size: 0x8, addend: 0x0, symName: __ZNSt3__114numeric_limitsImE3maxB7v160006Ev, symObjAddr: 0xDB5C, symBinAddr: 0x100011CF0, symSize: 0x14 }
  - { offsetInCU: 0x227B5, offset: 0x227B5, size: 0x8, addend: 0x0, symName: __ZNSt3__123__libcpp_numeric_limitsImLb1EE3maxB7v160006Ev, symObjAddr: 0xDB70, symBinAddr: 0x100011D04, symSize: 0x8 }
  - { offsetInCU: 0x227C9, offset: 0x227C9, size: 0x8, addend: 0x0, symName: __ZNSt3__122__hash_node_destructorINS_9allocatorINS_11__hash_nodeINS_17__hash_value_typeINS_12basic_stringIcNS_11char_traitsIcEENS1_IcEEEEiEEPvEEEEEC2B7v160006ERSC_b, symObjAddr: 0xDBC8, symBinAddr: 0x100011D5C, symSize: 0x38 }
  - { offsetInCU: 0x22811, offset: 0x22811, size: 0x8, addend: 0x0, symName: __ZNSt3__110unique_ptrINS_11__hash_nodeINS_17__hash_value_typeINS_12basic_stringIcNS_11char_traitsIcEENS_9allocatorIcEEEEiEEPvEENS_22__hash_node_destructorINS6_ISB_EEEEEC2B7v160006ILb1EvEEPSB_NS_16__dependent_typeINS_27__unique_ptr_deleter_sfinaeISE_EEXT_EE20__good_rval_ref_typeE, symObjAddr: 0xDC00, symBinAddr: 0x100011D94, symSize: 0x48 }
  - { offsetInCU: 0x22862, offset: 0x22862, size: 0x8, addend: 0x0, symName: __ZNSt3__117__compressed_pairIPNS_11__hash_nodeINS_17__hash_value_typeINS_12basic_stringIcNS_11char_traitsIcEENS_9allocatorIcEEEEiEEPvEENS_22__hash_node_destructorINS6_ISB_EEEEEC1B7v160006IRSC_SF_EEOT_OT0_, symObjAddr: 0xDC48, symBinAddr: 0x100011DDC, symSize: 0x3C }
  - { offsetInCU: 0x228BA, offset: 0x228BA, size: 0x8, addend: 0x0, symName: __ZNSt3__117__compressed_pairIPNS_11__hash_nodeINS_17__hash_value_typeINS_12basic_stringIcNS_11char_traitsIcEENS_9allocatorIcEEEEiEEPvEENS_22__hash_node_destructorINS6_ISB_EEEEEC2B7v160006IRSC_SF_EEOT_OT0_, symObjAddr: 0xDC84, symBinAddr: 0x100011E18, symSize: 0x48 }
  - { offsetInCU: 0x22912, offset: 0x22912, size: 0x8, addend: 0x0, symName: __ZNSt3__122__compressed_pair_elemIPNS_11__hash_nodeINS_17__hash_value_typeINS_12basic_stringIcNS_11char_traitsIcEENS_9allocatorIcEEEEiEEPvEELi0ELb0EEC2B7v160006IRSC_vEEOT_, symObjAddr: 0xDCCC, symBinAddr: 0x100011E60, symSize: 0x24 }
  - { offsetInCU: 0x22954, offset: 0x22954, size: 0x8, addend: 0x0, symName: __ZNSt3__122__compressed_pair_elemINS_22__hash_node_destructorINS_9allocatorINS_11__hash_nodeINS_17__hash_value_typeINS_12basic_stringIcNS_11char_traitsIcEENS2_IcEEEEiEEPvEEEEEELi1ELb0EEC2B7v160006ISE_vEEOT_, symObjAddr: 0xDCF0, symBinAddr: 0x100011E84, symSize: 0x24 }
  - { offsetInCU: 0x22996, offset: 0x22996, size: 0x8, addend: 0x0, symName: __ZNSt3__14pairIKNS_12basic_stringIcNS_11char_traitsIcEENS_9allocatorIcEEEEiEC1B7v160006IJRS7_EJEEENS_21piecewise_construct_tENS_5tupleIJDpT_EEENSC_IJDpT0_EEE, symObjAddr: 0xDD64, symBinAddr: 0x100011EF8, symSize: 0x3C }
  - { offsetInCU: 0x229FD, offset: 0x229FD, size: 0x8, addend: 0x0, symName: __ZNSt3__14pairIKNS_12basic_stringIcNS_11char_traitsIcEENS_9allocatorIcEEEEiEC1B7v160006IJRS7_EJEJLm0EEJEEENS_21piecewise_construct_tERNS_5tupleIJDpT_EEERNSC_IJDpT0_EEENS_15__tuple_indicesIJXspT1_EEEENSL_IJXspT2_EEEE, symObjAddr: 0xDDA0, symBinAddr: 0x100011F34, symSize: 0x3C }
  - { offsetInCU: 0x22A8A, offset: 0x22A8A, size: 0x8, addend: 0x0, symName: __ZNSt3__14pairIKNS_12basic_stringIcNS_11char_traitsIcEENS_9allocatorIcEEEEiEC2B7v160006IJRS7_EJEJLm0EEJEEENS_21piecewise_construct_tERNS_5tupleIJDpT_EEERNSC_IJDpT0_EEENS_15__tuple_indicesIJXspT1_EEEENSL_IJXspT2_EEEE, symObjAddr: 0xDDDC, symBinAddr: 0x100011F70, symSize: 0x48 }
  - { offsetInCU: 0x22B17, offset: 0x22B17, size: 0x8, addend: 0x0, symName: __ZNSt3__112__tuple_leafILm0ERKNS_12basic_stringIcNS_11char_traitsIcEENS_9allocatorIcEEEELb0EE3getB7v160006Ev, symObjAddr: 0xDE48, symBinAddr: 0x100011FDC, symSize: 0x18 }
  - { offsetInCU: 0x22B3D, offset: 0x22B3D, size: 0x8, addend: 0x0, symName: __ZNSt3__117__compressed_pairIPNS_11__hash_nodeINS_17__hash_value_typeINS_12basic_stringIcNS_11char_traitsIcEENS_9allocatorIcEEEEiEEPvEENS_22__hash_node_destructorINS6_ISB_EEEEE6secondB7v160006Ev, symObjAddr: 0xDE60, symBinAddr: 0x100011FF4, symSize: 0x28 }
  - { offsetInCU: 0x22B63, offset: 0x22B63, size: 0x8, addend: 0x0, symName: __ZNSt3__122__compressed_pair_elemINS_22__hash_node_destructorINS_9allocatorINS_11__hash_nodeINS_17__hash_value_typeINS_12basic_stringIcNS_11char_traitsIcEENS2_IcEEEEiEEPvEEEEEELi1ELb0EE5__getB7v160006Ev, symObjAddr: 0xDE88, symBinAddr: 0x10001201C, symSize: 0x14 }
  - { offsetInCU: 0x22B89, offset: 0x22B89, size: 0x8, addend: 0x0, symName: __ZNSt3__117__compressed_pairImNS_22__unordered_map_hasherINS_12basic_stringIcNS_11char_traitsIcEENS_9allocatorIcEEEENS_17__hash_value_typeIS7_iEENS_4hashIS7_EENS_8equal_toIS7_EELb1EEEE5firstB7v160006Ev, symObjAddr: 0xDE9C, symBinAddr: 0x100012030, symSize: 0x24 }
  - { offsetInCU: 0x22BAF, offset: 0x22BAF, size: 0x8, addend: 0x0, symName: __ZNSt3__122__compressed_pair_elemImLi0ELb0EE5__getB7v160006Ev, symObjAddr: 0xDEC0, symBinAddr: 0x100012054, symSize: 0x14 }
  - { offsetInCU: 0x22BD5, offset: 0x22BD5, size: 0x8, addend: 0x0, symName: __ZNSt3__117__compressed_pairIfNS_21__unordered_map_equalINS_12basic_stringIcNS_11char_traitsIcEENS_9allocatorIcEEEENS_17__hash_value_typeIS7_iEENS_8equal_toIS7_EENS_4hashIS7_EELb1EEEE5firstB7v160006Ev, symObjAddr: 0xDED4, symBinAddr: 0x100012068, symSize: 0x24 }
  - { offsetInCU: 0x22BFB, offset: 0x22BFB, size: 0x8, addend: 0x0, symName: __ZNSt3__122__compressed_pair_elemIfLi0ELb0EE5__getB7v160006Ev, symObjAddr: 0xDEF8, symBinAddr: 0x10001208C, symSize: 0x14 }
  - { offsetInCU: 0x22C21, offset: 0x22C21, size: 0x8, addend: 0x0, symName: __ZNSt3__112__hash_tableINS_17__hash_value_typeINS_12basic_stringIcNS_11char_traitsIcEENS_9allocatorIcEEEEiEENS_22__unordered_map_hasherIS7_S8_NS_4hashIS7_EENS_8equal_toIS7_EELb1EEENS_21__unordered_map_equalIS7_S8_SD_SB_Lb1EEENS5_IS8_EEE8__rehashILb1EEEvm, symObjAddr: 0xDF0C, symBinAddr: 0x1000120A0, symSize: 0x1A8 }
  - { offsetInCU: 0x22C71, offset: 0x22C71, size: 0x8, addend: 0x0, symName: __ZNSt3__112__hash_tableINS_17__hash_value_typeINS_12basic_stringIcNS_11char_traitsIcEENS_9allocatorIcEEEEiEENS_22__unordered_map_hasherIS7_S8_NS_4hashIS7_EENS_8equal_toIS7_EELb1EEENS_21__unordered_map_equalIS7_S8_SD_SB_Lb1EEENS5_IS8_EEE11__do_rehashILb1EEEvm, symObjAddr: 0xE0B4, symBinAddr: 0x100012248, symSize: 0x290 }
  - { offsetInCU: 0x22D54, offset: 0x22D54, size: 0x8, addend: 0x0, symName: __ZNSt3__110unique_ptrIA_PNS_16__hash_node_baseIPNS_11__hash_nodeINS_17__hash_value_typeINS_12basic_stringIcNS_11char_traitsIcEENS_9allocatorIcEEEEiEEPvEEEENS_25__bucket_list_deallocatorINS7_ISF_EEEEE11get_deleterB7v160006Ev, symObjAddr: 0xE3C0, symBinAddr: 0x100012554, symSize: 0x24 }
  - { offsetInCU: 0x22D7A, offset: 0x22D7A, size: 0x8, addend: 0x0, symName: __ZNSt3__125__bucket_list_deallocatorINS_9allocatorIPNS_16__hash_node_baseIPNS_11__hash_nodeINS_17__hash_value_typeINS_12basic_stringIcNS_11char_traitsIcEENS1_IcEEEEiEEPvEEEEEEE7__allocB7v160006Ev, symObjAddr: 0xE3E4, symBinAddr: 0x100012578, symSize: 0x24 }
  - { offsetInCU: 0x22DA0, offset: 0x22DA0, size: 0x8, addend: 0x0, symName: __ZNSt3__110unique_ptrIA_PNS_16__hash_node_baseIPNS_11__hash_nodeINS_17__hash_value_typeINS_12basic_stringIcNS_11char_traitsIcEENS_9allocatorIcEEEEiEEPvEEEENS_25__bucket_list_deallocatorINS7_ISF_EEEEE5resetB7v160006IPSF_EENS_9enable_ifIXsr28_CheckArrayPointerConversionIT_EE5valueEvE4typeESO_, symObjAddr: 0xE408, symBinAddr: 0x10001259C, symSize: 0x78 }
  - { offsetInCU: 0x22DED, offset: 0x22DED, size: 0x8, addend: 0x0, symName: __ZNSt3__116allocator_traitsINS_9allocatorIPNS_16__hash_node_baseIPNS_11__hash_nodeINS_17__hash_value_typeINS_12basic_stringIcNS_11char_traitsIcEENS1_IcEEEEiEEPvEEEEEEE8allocateB7v160006ERSG_m, symObjAddr: 0xE480, symBinAddr: 0x100012614, symSize: 0x2C }
  - { offsetInCU: 0x22E20, offset: 0x22E20, size: 0x8, addend: 0x0, symName: __ZNSt3__125__bucket_list_deallocatorINS_9allocatorIPNS_16__hash_node_baseIPNS_11__hash_nodeINS_17__hash_value_typeINS_12basic_stringIcNS_11char_traitsIcEENS1_IcEEEEiEEPvEEEEEEE4sizeB7v160006Ev, symObjAddr: 0xE4AC, symBinAddr: 0x100012640, symSize: 0x24 }
  - { offsetInCU: 0x22E46, offset: 0x22E46, size: 0x8, addend: 0x0, symName: __ZNSt3__117__compressed_pairIPPNS_16__hash_node_baseIPNS_11__hash_nodeINS_17__hash_value_typeINS_12basic_stringIcNS_11char_traitsIcEENS_9allocatorIcEEEEiEEPvEEEENS_25__bucket_list_deallocatorINS7_ISF_EEEEE6secondB7v160006Ev, symObjAddr: 0xE4D0, symBinAddr: 0x100012664, symSize: 0x28 }
  - { offsetInCU: 0x22E6C, offset: 0x22E6C, size: 0x8, addend: 0x0, symName: __ZNSt3__122__compressed_pair_elemINS_25__bucket_list_deallocatorINS_9allocatorIPNS_16__hash_node_baseIPNS_11__hash_nodeINS_17__hash_value_typeINS_12basic_stringIcNS_11char_traitsIcEENS2_IcEEEEiEEPvEEEEEEEELi1ELb0EE5__getB7v160006Ev, symObjAddr: 0xE4F8, symBinAddr: 0x10001268C, symSize: 0x14 }
  - { offsetInCU: 0x22E92, offset: 0x22E92, size: 0x8, addend: 0x0, symName: __ZNSt3__117__compressed_pairImNS_9allocatorIPNS_16__hash_node_baseIPNS_11__hash_nodeINS_17__hash_value_typeINS_12basic_stringIcNS_11char_traitsIcEENS1_IcEEEEiEEPvEEEEEEE6secondB7v160006Ev, symObjAddr: 0xE50C, symBinAddr: 0x1000126A0, symSize: 0x24 }
  - { offsetInCU: 0x22EB8, offset: 0x22EB8, size: 0x8, addend: 0x0, symName: __ZNSt3__122__compressed_pair_elemINS_9allocatorIPNS_16__hash_node_baseIPNS_11__hash_nodeINS_17__hash_value_typeINS_12basic_stringIcNS_11char_traitsIcEENS1_IcEEEEiEEPvEEEEEELi1ELb1EE5__getB7v160006Ev, symObjAddr: 0xE530, symBinAddr: 0x1000126C4, symSize: 0x14 }
  - { offsetInCU: 0x22EDE, offset: 0x22EDE, size: 0x8, addend: 0x0, symName: __ZNSt3__117__compressed_pairIPPNS_16__hash_node_baseIPNS_11__hash_nodeINS_17__hash_value_typeINS_12basic_stringIcNS_11char_traitsIcEENS_9allocatorIcEEEEiEEPvEEEENS_25__bucket_list_deallocatorINS7_ISF_EEEEE5firstB7v160006Ev, symObjAddr: 0xE544, symBinAddr: 0x1000126D8, symSize: 0x24 }
  - { offsetInCU: 0x22F04, offset: 0x22F04, size: 0x8, addend: 0x0, symName: __ZNSt3__125__bucket_list_deallocatorINS_9allocatorIPNS_16__hash_node_baseIPNS_11__hash_nodeINS_17__hash_value_typeINS_12basic_stringIcNS_11char_traitsIcEENS1_IcEEEEiEEPvEEEEEEEclB7v160006EPSF_, symObjAddr: 0xE568, symBinAddr: 0x1000126FC, symSize: 0x58 }
  - { offsetInCU: 0x22F39, offset: 0x22F39, size: 0x8, addend: 0x0, symName: __ZNSt3__122__compressed_pair_elemIPPNS_16__hash_node_baseIPNS_11__hash_nodeINS_17__hash_value_typeINS_12basic_stringIcNS_11char_traitsIcEENS_9allocatorIcEEEEiEEPvEEEELi0ELb0EE5__getB7v160006Ev, symObjAddr: 0xE5C0, symBinAddr: 0x100012754, symSize: 0x14 }
  - { offsetInCU: 0x22F5F, offset: 0x22F5F, size: 0x8, addend: 0x0, symName: __ZNSt3__116allocator_traitsINS_9allocatorIPNS_16__hash_node_baseIPNS_11__hash_nodeINS_17__hash_value_typeINS_12basic_stringIcNS_11char_traitsIcEENS1_IcEEEEiEEPvEEEEEEE10deallocateB7v160006ERSG_PSF_m, symObjAddr: 0xE5D4, symBinAddr: 0x100012768, symSize: 0x34 }
  - { offsetInCU: 0x22FA1, offset: 0x22FA1, size: 0x8, addend: 0x0, symName: __ZNSt3__19allocatorIPNS_16__hash_node_baseIPNS_11__hash_nodeINS_17__hash_value_typeINS_12basic_stringIcNS_11char_traitsIcEENS0_IcEEEEiEEPvEEEEE10deallocateB7v160006EPSE_m, symObjAddr: 0xE608, symBinAddr: 0x10001279C, symSize: 0x40 }
  - { offsetInCU: 0x22FE3, offset: 0x22FE3, size: 0x8, addend: 0x0, symName: __ZNSt3__19allocatorIPNS_16__hash_node_baseIPNS_11__hash_nodeINS_17__hash_value_typeINS_12basic_stringIcNS_11char_traitsIcEENS0_IcEEEEiEEPvEEEEE8allocateB7v160006Em, symObjAddr: 0xE648, symBinAddr: 0x1000127DC, symSize: 0x58 }
  - { offsetInCU: 0x23022, offset: 0x23022, size: 0x8, addend: 0x0, symName: __ZNSt3__116allocator_traitsINS_9allocatorIPNS_16__hash_node_baseIPNS_11__hash_nodeINS_17__hash_value_typeINS_12basic_stringIcNS_11char_traitsIcEENS1_IcEEEEiEEPvEEEEEEE8max_sizeB7v160006ISG_vvEEmRKSG_, symObjAddr: 0xE6A0, symBinAddr: 0x100012834, symSize: 0x28 }
  - { offsetInCU: 0x2304D, offset: 0x2304D, size: 0x8, addend: 0x0, symName: __ZNSt3__117__compressed_pairImNS_9allocatorIPNS_16__hash_node_baseIPNS_11__hash_nodeINS_17__hash_value_typeINS_12basic_stringIcNS_11char_traitsIcEENS1_IcEEEEiEEPvEEEEEEE5firstB7v160006Ev, symObjAddr: 0xE6C8, symBinAddr: 0x10001285C, symSize: 0x24 }
  - { offsetInCU: 0x23073, offset: 0x23073, size: 0x8, addend: 0x0, symName: __ZNSt3__122__compressed_pair_elemINS_16__hash_node_baseIPNS_11__hash_nodeINS_17__hash_value_typeINS_12basic_stringIcNS_11char_traitsIcEENS_9allocatorIcEEEEiEEPvEEEELi0ELb0EE5__getB7v160006Ev, symObjAddr: 0xE740, symBinAddr: 0x1000128D4, symSize: 0x14 }
  - { offsetInCU: 0x23099, offset: 0x23099, size: 0x8, addend: 0x0, symName: __ZNKSt3__117__compressed_pairIPNS_11__hash_nodeINS_17__hash_value_typeINS_12basic_stringIcNS_11char_traitsIcEENS_9allocatorIcEEEEiEEPvEENS_22__hash_node_destructorINS6_ISB_EEEEE5firstB7v160006Ev, symObjAddr: 0xE754, symBinAddr: 0x1000128E8, symSize: 0x24 }
  - { offsetInCU: 0x230BF, offset: 0x230BF, size: 0x8, addend: 0x0, symName: __ZNKSt3__122__compressed_pair_elemIPNS_11__hash_nodeINS_17__hash_value_typeINS_12basic_stringIcNS_11char_traitsIcEENS_9allocatorIcEEEEiEEPvEELi0ELb0EE5__getB7v160006Ev, symObjAddr: 0xE778, symBinAddr: 0x10001290C, symSize: 0x14 }
  - { offsetInCU: 0x230E5, offset: 0x230E5, size: 0x8, addend: 0x0, symName: __ZNSt3__117__compressed_pairIPNS_11__hash_nodeINS_17__hash_value_typeINS_12basic_stringIcNS_11char_traitsIcEENS_9allocatorIcEEEEiEEPvEENS_22__hash_node_destructorINS6_ISB_EEEEE5firstB7v160006Ev, symObjAddr: 0xE78C, symBinAddr: 0x100012920, symSize: 0x24 }
  - { offsetInCU: 0x2310B, offset: 0x2310B, size: 0x8, addend: 0x0, symName: __ZNSt3__122__compressed_pair_elemIPNS_11__hash_nodeINS_17__hash_value_typeINS_12basic_stringIcNS_11char_traitsIcEENS_9allocatorIcEEEEiEEPvEELi0ELb0EE5__getB7v160006Ev, symObjAddr: 0xE7B0, symBinAddr: 0x100012944, symSize: 0x14 }
  - { offsetInCU: 0x23131, offset: 0x23131, size: 0x8, addend: 0x0, symName: __ZNSt3__110unique_ptrINS_11__hash_nodeINS_17__hash_value_typeINS_12basic_stringIcNS_11char_traitsIcEENS_9allocatorIcEEEEiEEPvEENS_22__hash_node_destructorINS6_ISB_EEEEED2B7v160006Ev, symObjAddr: 0xE7C4, symBinAddr: 0x100012958, symSize: 0x30 }
  - { offsetInCU: 0x2315B, offset: 0x2315B, size: 0x8, addend: 0x0, symName: __ZNSt3__110unique_ptrINS_11__hash_nodeINS_17__hash_value_typeINS_12basic_stringIcNS_11char_traitsIcEENS_9allocatorIcEEEEiEEPvEENS_22__hash_node_destructorINS6_ISB_EEEEE5resetB7v160006EPSB_, symObjAddr: 0xE7F4, symBinAddr: 0x100012988, symSize: 0x78 }
  - { offsetInCU: 0x2319F, offset: 0x2319F, size: 0x8, addend: 0x0, symName: __ZNSt3__122__hash_node_destructorINS_9allocatorINS_11__hash_nodeINS_17__hash_value_typeINS_12basic_stringIcNS_11char_traitsIcEENS1_IcEEEEiEEPvEEEEEclB7v160006EPSB_, symObjAddr: 0xE86C, symBinAddr: 0x100012A00, symSize: 0x98 }
  - { offsetInCU: 0x231D4, offset: 0x231D4, size: 0x8, addend: 0x0, symName: __ZNSt3__116allocator_traitsINS_9allocatorINS_11__hash_nodeINS_17__hash_value_typeINS_12basic_stringIcNS_11char_traitsIcEENS1_IcEEEEiEEPvEEEEE7destroyB7v160006INS_4pairIKS8_iEEvvEEvRSC_PT_, symObjAddr: 0xE904, symBinAddr: 0x100012A98, symSize: 0x28 }
  - { offsetInCU: 0x2320E, offset: 0x2320E, size: 0x8, addend: 0x0, symName: __ZNSt3__116allocator_traitsINS_9allocatorINS_11__hash_nodeINS_17__hash_value_typeINS_12basic_stringIcNS_11char_traitsIcEENS1_IcEEEEiEEPvEEEEE10deallocateB7v160006ERSC_PSB_m, symObjAddr: 0xE92C, symBinAddr: 0x100012AC0, symSize: 0x34 }
  - { offsetInCU: 0x23250, offset: 0x23250, size: 0x8, addend: 0x0, symName: __ZNSt3__14pairIKNS_12basic_stringIcNS_11char_traitsIcEENS_9allocatorIcEEEEiED1Ev, symObjAddr: 0xE9A8, symBinAddr: 0x100012B3C, symSize: 0x2C }
  - { offsetInCU: 0x2327C, offset: 0x2327C, size: 0x8, addend: 0x0, symName: __ZNSt3__14pairIKNS_12basic_stringIcNS_11char_traitsIcEENS_9allocatorIcEEEEiED2Ev, symObjAddr: 0xE9D4, symBinAddr: 0x100012B68, symSize: 0x2C }
  - { offsetInCU: 0x232A8, offset: 0x232A8, size: 0x8, addend: 0x0, symName: __ZNSt3__19allocatorINS_11__hash_nodeINS_17__hash_value_typeINS_12basic_stringIcNS_11char_traitsIcEENS0_IcEEEEiEEPvEEE10deallocateB7v160006EPSA_m, symObjAddr: 0xEA00, symBinAddr: 0x100012B94, symSize: 0x44 }
  - { offsetInCU: 0x232EA, offset: 0x232EA, size: 0x8, addend: 0x0, symName: __ZNSt3__115__hash_iteratorIPNS_11__hash_nodeINS_17__hash_value_typeINS_12basic_stringIcNS_11char_traitsIcEENS_9allocatorIcEEEEiEEPvEEEC2B7v160006EPNS_16__hash_node_baseISC_EEPKv, symObjAddr: 0xEA44, symBinAddr: 0x100012BD8, symSize: 0x24 }
  - { offsetInCU: 0x23332, offset: 0x23332, size: 0x8, addend: 0x0, symName: __ZNSt3__14pairINS_15__hash_iteratorIPNS_11__hash_nodeINS_17__hash_value_typeINS_12basic_stringIcNS_11char_traitsIcEENS_9allocatorIcEEEEiEEPvEEEEbEC2B7v160006ISE_RbLSB_0EEEOT_OT0_, symObjAddr: 0xEA68, symBinAddr: 0x100012BFC, symSize: 0x38 }
  - { offsetInCU: 0x23390, offset: 0x23390, size: 0x8, addend: 0x0, symName: __ZNSt3__15tupleIJRKNS_12basic_stringIcNS_11char_traitsIcEENS_9allocatorIcEEEEEEC1B7v160006INS_4_AndELi0EEES8_, symObjAddr: 0xEAA0, symBinAddr: 0x100012C34, symSize: 0x34 }
  - { offsetInCU: 0x233D8, offset: 0x233D8, size: 0x8, addend: 0x0, symName: __ZNSt3__15tupleIJRKNS_12basic_stringIcNS_11char_traitsIcEENS_9allocatorIcEEEEEEC2B7v160006INS_4_AndELi0EEES8_, symObjAddr: 0xEAD4, symBinAddr: 0x100012C68, symSize: 0x34 }
  - { offsetInCU: 0x23420, offset: 0x23420, size: 0x8, addend: 0x0, symName: __ZNSt3__112__tuple_implINS_15__tuple_indicesIJLm0EEEEJRKNS_12basic_stringIcNS_11char_traitsIcEENS_9allocatorIcEEEEEEC1B7v160006IJLm0EEJSA_EJEJEJSA_EEENS1_IJXspT_EEEENS_13__tuple_typesIJDpT0_EEENS1_IJXspT1_EEEENSE_IJDpT2_EEEDpOT3_, symObjAddr: 0xEB08, symBinAddr: 0x100012C9C, symSize: 0x34 }
  - { offsetInCU: 0x234B1, offset: 0x234B1, size: 0x8, addend: 0x0, symName: __ZNSt3__112__tuple_implINS_15__tuple_indicesIJLm0EEEEJRKNS_12basic_stringIcNS_11char_traitsIcEENS_9allocatorIcEEEEEEC2B7v160006IJLm0EEJSA_EJEJEJSA_EEENS1_IJXspT_EEEENS_13__tuple_typesIJDpT0_EEENS1_IJXspT1_EEEENSE_IJDpT2_EEEDpOT3_, symObjAddr: 0xEB3C, symBinAddr: 0x100012CD0, symSize: 0x34 }
  - { offsetInCU: 0x23542, offset: 0x23542, size: 0x8, addend: 0x0, symName: __ZNSt3__112__tuple_leafILm0ERKNS_12basic_stringIcNS_11char_traitsIcEENS_9allocatorIcEEEELb0EEC2B7v160006IS8_vEEOT_, symObjAddr: 0xEB70, symBinAddr: 0x100012D04, symSize: 0x20 }
  - { offsetInCU: 0x23585, offset: 0x23585, size: 0x8, addend: 0x0, symName: __ZNSt3__114pointer_traitsIPNS_17__hash_value_typeINS_12basic_stringIcNS_11char_traitsIcEENS_9allocatorIcEEEEiEEE10pointer_toB7v160006ERS8_, symObjAddr: 0xEB90, symBinAddr: 0x100012D24, symSize: 0x14 }
  - { offsetInCU: 0x235A8, offset: 0x235A8, size: 0x8, addend: 0x0, symName: __ZNSt3__16vectorINS_12basic_stringIcNS_11char_traitsIcEENS_9allocatorIcEEEENS4_IS6_EEE22__construct_one_at_endB7v160006IJRKS6_EEEvDpOT_, symObjAddr: 0xEBDC, symBinAddr: 0x100012D70, symSize: 0x90 }
  - { offsetInCU: 0x235F7, offset: 0x235F7, size: 0x8, addend: 0x0, symName: __ZNSt3__16vectorINS_12basic_stringIcNS_11char_traitsIcEENS_9allocatorIcEEEENS4_IS6_EEE21__push_back_slow_pathIRKS6_EEvOT_, symObjAddr: 0xEC6C, symBinAddr: 0x100012E00, symSize: 0xD8 }
  - { offsetInCU: 0x23671, offset: 0x23671, size: 0x8, addend: 0x0, symName: __ZNSt3__16vectorINS_12basic_stringIcNS_11char_traitsIcEENS_9allocatorIcEEEENS4_IS6_EEE21_ConstructTransactionC1B7v160006ERS8_m, symObjAddr: 0xED44, symBinAddr: 0x100012ED8, symSize: 0x3C }
  - { offsetInCU: 0x236B9, offset: 0x236B9, size: 0x8, addend: 0x0, symName: __ZNSt3__116allocator_traitsINS_9allocatorINS_12basic_stringIcNS_11char_traitsIcEENS1_IcEEEEEEE9constructB7v160006IS6_JRKS6_EvvEEvRS7_PT_DpOT0_, symObjAddr: 0xED80, symBinAddr: 0x100012F14, symSize: 0x30 }
  - { offsetInCU: 0x2370D, offset: 0x2370D, size: 0x8, addend: 0x0, symName: __ZNSt3__16vectorINS_12basic_stringIcNS_11char_traitsIcEENS_9allocatorIcEEEENS4_IS6_EEE21_ConstructTransactionD1B7v160006Ev, symObjAddr: 0xEDB0, symBinAddr: 0x100012F44, symSize: 0x2C }
  - { offsetInCU: 0x23737, offset: 0x23737, size: 0x8, addend: 0x0, symName: __ZNSt3__16vectorINS_12basic_stringIcNS_11char_traitsIcEENS_9allocatorIcEEEENS4_IS6_EEE21_ConstructTransactionC2B7v160006ERS8_m, symObjAddr: 0xEDDC, symBinAddr: 0x100012F70, symSize: 0x4C }
  - { offsetInCU: 0x2377F, offset: 0x2377F, size: 0x8, addend: 0x0, symName: __ZNSt3__16vectorINS_12basic_stringIcNS_11char_traitsIcEENS_9allocatorIcEEEENS4_IS6_EEE21_ConstructTransactionD2B7v160006Ev, symObjAddr: 0xEE64, symBinAddr: 0x100012FF8, symSize: 0x20 }
  - { offsetInCU: 0x237A9, offset: 0x237A9, size: 0x8, addend: 0x0, symName: __ZNKSt3__16vectorINS_12basic_stringIcNS_11char_traitsIcEENS_9allocatorIcEEEENS4_IS6_EEE11__recommendB7v160006Em, symObjAddr: 0xEE84, symBinAddr: 0x100013018, symSize: 0xB4 }
  - { offsetInCU: 0x237FE, offset: 0x237FE, size: 0x8, addend: 0x0, symName: __ZNSt3__114__split_bufferINS_12basic_stringIcNS_11char_traitsIcEENS_9allocatorIcEEEERNS4_IS6_EEEC1EmmS8_, symObjAddr: 0xEF38, symBinAddr: 0x1000130CC, symSize: 0x44 }
  - { offsetInCU: 0x23854, offset: 0x23854, size: 0x8, addend: 0x0, symName: __ZNSt3__114__split_bufferINS_12basic_stringIcNS_11char_traitsIcEENS_9allocatorIcEEEERNS4_IS6_EEED1Ev, symObjAddr: 0xF094, symBinAddr: 0x100013228, symSize: 0x2C }
  - { offsetInCU: 0x23880, offset: 0x23880, size: 0x8, addend: 0x0, symName: __ZNKSt3__16vectorINS_12basic_stringIcNS_11char_traitsIcEENS_9allocatorIcEEEENS4_IS6_EEE8max_sizeEv, symObjAddr: 0xF0C0, symBinAddr: 0x100013254, symSize: 0x60 }
  - { offsetInCU: 0x238A8, offset: 0x238A8, size: 0x8, addend: 0x0, symName: __ZNKSt3__16vectorINS_12basic_stringIcNS_11char_traitsIcEENS_9allocatorIcEEEENS4_IS6_EEE20__throw_length_errorB7v160006Ev, symObjAddr: 0xF120, symBinAddr: 0x1000132B4, symSize: 0x1C }
  - { offsetInCU: 0x238D9, offset: 0x238D9, size: 0x8, addend: 0x0, symName: __ZNSt3__116allocator_traitsINS_9allocatorINS_12basic_stringIcNS_11char_traitsIcEENS1_IcEEEEEEE8max_sizeB7v160006IS7_vvEEmRKS7_, symObjAddr: 0xF13C, symBinAddr: 0x1000132D0, symSize: 0x28 }
  - { offsetInCU: 0x23904, offset: 0x23904, size: 0x8, addend: 0x0, symName: __ZNKSt3__16vectorINS_12basic_stringIcNS_11char_traitsIcEENS_9allocatorIcEEEENS4_IS6_EEE7__allocB7v160006Ev, symObjAddr: 0xF164, symBinAddr: 0x1000132F8, symSize: 0x28 }
  - { offsetInCU: 0x2392A, offset: 0x2392A, size: 0x8, addend: 0x0, symName: __ZNSt3__114numeric_limitsIlE3maxB7v160006Ev, symObjAddr: 0xF18C, symBinAddr: 0x100013320, symSize: 0x14 }
  - { offsetInCU: 0x2393E, offset: 0x2393E, size: 0x8, addend: 0x0, symName: __ZNKSt3__117__compressed_pairIPNS_12basic_stringIcNS_11char_traitsIcEENS_9allocatorIcEEEENS4_IS6_EEE6secondB7v160006Ev, symObjAddr: 0xF1A0, symBinAddr: 0x100013334, symSize: 0x24 }
  - { offsetInCU: 0x23964, offset: 0x23964, size: 0x8, addend: 0x0, symName: __ZNKSt3__122__compressed_pair_elemINS_9allocatorINS_12basic_stringIcNS_11char_traitsIcEENS1_IcEEEEEELi1ELb1EE5__getB7v160006Ev, symObjAddr: 0xF1C4, symBinAddr: 0x100013358, symSize: 0x14 }
  - { offsetInCU: 0x2398A, offset: 0x2398A, size: 0x8, addend: 0x0, symName: __ZNSt3__123__libcpp_numeric_limitsIlLb1EE3maxB7v160006Ev, symObjAddr: 0xF1D8, symBinAddr: 0x10001336C, symSize: 0x8 }
  - { offsetInCU: 0x2399E, offset: 0x2399E, size: 0x8, addend: 0x0, symName: __ZNSt12length_errorC1B7v160006EPKc, symObjAddr: 0xF244, symBinAddr: 0x1000133D8, symSize: 0x34 }
  - { offsetInCU: 0x239D6, offset: 0x239D6, size: 0x8, addend: 0x0, symName: __ZNSt12length_errorC2B7v160006EPKc, symObjAddr: 0xF278, symBinAddr: 0x10001340C, symSize: 0x4C }
  - { offsetInCU: 0x23A0E, offset: 0x23A0E, size: 0x8, addend: 0x0, symName: __ZNSt3__114__split_bufferINS_12basic_stringIcNS_11char_traitsIcEENS_9allocatorIcEEEERNS4_IS6_EEEC2EmmS8_, symObjAddr: 0xF2C4, symBinAddr: 0x100013458, symSize: 0xE0 }
  - { offsetInCU: 0x23A81, offset: 0x23A81, size: 0x8, addend: 0x0, symName: __ZNSt3__117__compressed_pairIPNS_12basic_stringIcNS_11char_traitsIcEENS_9allocatorIcEEEERNS4_IS6_EEEC1B7v160006IDnS9_EEOT_OT0_, symObjAddr: 0xF3A4, symBinAddr: 0x100013538, symSize: 0x3C }
  - { offsetInCU: 0x23AD9, offset: 0x23AD9, size: 0x8, addend: 0x0, symName: __ZNSt3__114__split_bufferINS_12basic_stringIcNS_11char_traitsIcEENS_9allocatorIcEEEERNS4_IS6_EEE7__allocB7v160006Ev, symObjAddr: 0xF420, symBinAddr: 0x1000135B4, symSize: 0x28 }
  - { offsetInCU: 0x23AFF, offset: 0x23AFF, size: 0x8, addend: 0x0, symName: __ZNSt3__114__split_bufferINS_12basic_stringIcNS_11char_traitsIcEENS_9allocatorIcEEEERNS4_IS6_EEE9__end_capB7v160006Ev, symObjAddr: 0xF448, symBinAddr: 0x1000135DC, symSize: 0x28 }
  - { offsetInCU: 0x23B25, offset: 0x23B25, size: 0x8, addend: 0x0, symName: __ZNSt3__117__compressed_pairIPNS_12basic_stringIcNS_11char_traitsIcEENS_9allocatorIcEEEERNS4_IS6_EEEC2B7v160006IDnS9_EEOT_OT0_, symObjAddr: 0xF470, symBinAddr: 0x100013604, symSize: 0x48 }
  - { offsetInCU: 0x23B7D, offset: 0x23B7D, size: 0x8, addend: 0x0, symName: __ZNSt3__122__compressed_pair_elemIRNS_9allocatorINS_12basic_stringIcNS_11char_traitsIcEENS1_IcEEEEEELi1ELb0EEC2B7v160006IS8_vEEOT_, symObjAddr: 0xF4B8, symBinAddr: 0x10001364C, symSize: 0x20 }
  - { offsetInCU: 0x23BBF, offset: 0x23BBF, size: 0x8, addend: 0x0, symName: __ZNSt3__19allocatorINS_12basic_stringIcNS_11char_traitsIcEENS0_IcEEEEE8allocateB7v160006Em, symObjAddr: 0xF4D8, symBinAddr: 0x10001366C, symSize: 0x5C }
  - { offsetInCU: 0x23BF3, offset: 0x23BF3, size: 0x8, addend: 0x0, symName: __ZNSt3__117__compressed_pairIPNS_12basic_stringIcNS_11char_traitsIcEENS_9allocatorIcEEEERNS4_IS6_EEE6secondB7v160006Ev, symObjAddr: 0xF534, symBinAddr: 0x1000136C8, symSize: 0x28 }
  - { offsetInCU: 0x23C19, offset: 0x23C19, size: 0x8, addend: 0x0, symName: __ZNSt3__122__compressed_pair_elemIRNS_9allocatorINS_12basic_stringIcNS_11char_traitsIcEENS1_IcEEEEEELi1ELb0EE5__getB7v160006Ev, symObjAddr: 0xF55C, symBinAddr: 0x1000136F0, symSize: 0x18 }
  - { offsetInCU: 0x23C3F, offset: 0x23C3F, size: 0x8, addend: 0x0, symName: __ZNSt3__117__compressed_pairIPNS_12basic_stringIcNS_11char_traitsIcEENS_9allocatorIcEEEERNS4_IS6_EEE5firstB7v160006Ev, symObjAddr: 0xF574, symBinAddr: 0x100013708, symSize: 0x24 }
  - { offsetInCU: 0x23C65, offset: 0x23C65, size: 0x8, addend: 0x0, symName: __ZNKSt3__16vectorINS_12basic_stringIcNS_11char_traitsIcEENS_9allocatorIcEEEENS4_IS6_EEE17__annotate_deleteB7v160006Ev, symObjAddr: 0xF598, symBinAddr: 0x10001372C, symSize: 0xD4 }
  - { offsetInCU: 0x23C8B, offset: 0x23C8B, size: 0x8, addend: 0x0, symName: __ZNSt3__116reverse_iteratorIPNS_12basic_stringIcNS_11char_traitsIcEENS_9allocatorIcEEEEEC1B7v160006ES7_, symObjAddr: 0xF798, symBinAddr: 0x10001392C, symSize: 0x34 }
  - { offsetInCU: 0x23CC3, offset: 0x23CC3, size: 0x8, addend: 0x0, symName: __ZNKSt3__116reverse_iteratorIPNS_12basic_stringIcNS_11char_traitsIcEENS_9allocatorIcEEEEE4baseB7v160006Ev, symObjAddr: 0xF7CC, symBinAddr: 0x100013960, symSize: 0x18 }
  - { offsetInCU: 0x23CE9, offset: 0x23CE9, size: 0x8, addend: 0x0, symName: __ZNKSt3__16vectorINS_12basic_stringIcNS_11char_traitsIcEENS_9allocatorIcEEEENS4_IS6_EEE14__annotate_newB7v160006Em, symObjAddr: 0xF7E4, symBinAddr: 0x100013978, symSize: 0xC8 }
  - { offsetInCU: 0x23D1E, offset: 0x23D1E, size: 0x8, addend: 0x0, symName: __ZNSt3__129_AllocatorDestroyRangeReverseINS_9allocatorINS_12basic_stringIcNS_11char_traitsIcEENS1_IcEEEEEENS_16reverse_iteratorIPS6_EEEC1B7v160006ERS7_RSA_SD_, symObjAddr: 0xF8F8, symBinAddr: 0x100013A8C, symSize: 0x44 }
  - { offsetInCU: 0x23D75, offset: 0x23D75, size: 0x8, addend: 0x0, symName: __ZNSt3__116allocator_traitsINS_9allocatorINS_12basic_stringIcNS_11char_traitsIcEENS1_IcEEEEEEE9constructB7v160006IS6_JS6_EvvEEvRS7_PT_DpOT0_, symObjAddr: 0xF984, symBinAddr: 0x100013B18, symSize: 0x30 }
  - { offsetInCU: 0x23DC9, offset: 0x23DC9, size: 0x8, addend: 0x0, symName: __ZNKSt3__116reverse_iteratorIPNS_12basic_stringIcNS_11char_traitsIcEENS_9allocatorIcEEEEEdeB7v160006Ev, symObjAddr: 0xF9D8, symBinAddr: 0x100013B6C, symSize: 0x28 }
  - { offsetInCU: 0x23DFD, offset: 0x23DFD, size: 0x8, addend: 0x0, symName: __ZNSt3__116reverse_iteratorIPNS_12basic_stringIcNS_11char_traitsIcEENS_9allocatorIcEEEEEppB7v160006Ev, symObjAddr: 0xFA00, symBinAddr: 0x100013B94, symSize: 0x20 }
  - { offsetInCU: 0x23E23, offset: 0x23E23, size: 0x8, addend: 0x0, symName: __ZNSt3__128__exception_guard_exceptionsINS_29_AllocatorDestroyRangeReverseINS_9allocatorINS_12basic_stringIcNS_11char_traitsIcEENS2_IcEEEEEENS_16reverse_iteratorIPS7_EEEEE10__completeB7v160006Ev, symObjAddr: 0xFA20, symBinAddr: 0x100013BB4, symSize: 0x1C }
  - { offsetInCU: 0x23E49, offset: 0x23E49, size: 0x8, addend: 0x0, symName: __ZNSt3__128__exception_guard_exceptionsINS_29_AllocatorDestroyRangeReverseINS_9allocatorINS_12basic_stringIcNS_11char_traitsIcEENS2_IcEEEEEENS_16reverse_iteratorIPS7_EEEEED1B7v160006Ev, symObjAddr: 0xFA3C, symBinAddr: 0x100013BD0, symSize: 0x2C }
  - { offsetInCU: 0x23E73, offset: 0x23E73, size: 0x8, addend: 0x0, symName: __ZNSt3__128__exception_guard_exceptionsINS_29_AllocatorDestroyRangeReverseINS_9allocatorINS_12basic_stringIcNS_11char_traitsIcEENS2_IcEEEEEENS_16reverse_iteratorIPS7_EEEEEC1B7v160006ESC_, symObjAddr: 0xFA68, symBinAddr: 0x100013BFC, symSize: 0x34 }
  - { offsetInCU: 0x23EAC, offset: 0x23EAC, size: 0x8, addend: 0x0, symName: __ZNSt3__128__exception_guard_exceptionsINS_29_AllocatorDestroyRangeReverseINS_9allocatorINS_12basic_stringIcNS_11char_traitsIcEENS2_IcEEEEEENS_16reverse_iteratorIPS7_EEEEEC2B7v160006ESC_, symObjAddr: 0xFA9C, symBinAddr: 0x100013C30, symSize: 0x30 }
  - { offsetInCU: 0x23EE5, offset: 0x23EE5, size: 0x8, addend: 0x0, symName: __ZNSt3__129_AllocatorDestroyRangeReverseINS_9allocatorINS_12basic_stringIcNS_11char_traitsIcEENS1_IcEEEEEENS_16reverse_iteratorIPS6_EEEC2B7v160006ERS7_RSA_SD_, symObjAddr: 0xFACC, symBinAddr: 0x100013C60, symSize: 0x38 }
  - { offsetInCU: 0x23F42, offset: 0x23F42, size: 0x8, addend: 0x0, symName: __ZNSt3__119__to_address_helperINS_16reverse_iteratorIPNS_12basic_stringIcNS_11char_traitsIcEENS_9allocatorIcEEEEEEvE6__callB7v160006ERKS9_, symObjAddr: 0xFB40, symBinAddr: 0x100013CD4, symSize: 0x38 }
  - { offsetInCU: 0x23F65, offset: 0x23F65, size: 0x8, addend: 0x0, symName: __ZNKSt3__116reverse_iteratorIPNS_12basic_stringIcNS_11char_traitsIcEENS_9allocatorIcEEEEEptB7v160006Ev, symObjAddr: 0xFB78, symBinAddr: 0x100013D0C, symSize: 0x2C }
  - { offsetInCU: 0x23F8B, offset: 0x23F8B, size: 0x8, addend: 0x0, symName: __ZNSt3__128__exception_guard_exceptionsINS_29_AllocatorDestroyRangeReverseINS_9allocatorINS_12basic_stringIcNS_11char_traitsIcEENS2_IcEEEEEENS_16reverse_iteratorIPS7_EEEEED2B7v160006Ev, symObjAddr: 0xFC88, symBinAddr: 0x100013E1C, symSize: 0x50 }
  - { offsetInCU: 0x23FB5, offset: 0x23FB5, size: 0x8, addend: 0x0, symName: __ZNKSt3__129_AllocatorDestroyRangeReverseINS_9allocatorINS_12basic_stringIcNS_11char_traitsIcEENS1_IcEEEEEENS_16reverse_iteratorIPS6_EEEclB7v160006Ev, symObjAddr: 0xFCD8, symBinAddr: 0x100013E6C, symSize: 0xB4 }
  - { offsetInCU: 0x23FDC, offset: 0x23FDC, size: 0x8, addend: 0x0, symName: __ZNSt3__116reverse_iteratorINS0_IPNS_12basic_stringIcNS_11char_traitsIcEENS_9allocatorIcEEEEEEEC1B7v160006ES8_, symObjAddr: 0xFDFC, symBinAddr: 0x100013F90, symSize: 0x3C }
  - { offsetInCU: 0x24014, offset: 0x24014, size: 0x8, addend: 0x0, symName: __ZNSt3__116reverse_iteratorINS0_IPNS_12basic_stringIcNS_11char_traitsIcEENS_9allocatorIcEEEEEEEppB7v160006Ev, symObjAddr: 0xFEBC, symBinAddr: 0x100014050, symSize: 0x30 }
  - { offsetInCU: 0x2403A, offset: 0x2403A, size: 0x8, addend: 0x0, symName: __ZNKSt3__116reverse_iteratorINS0_IPNS_12basic_stringIcNS_11char_traitsIcEENS_9allocatorIcEEEEEEE4baseB7v160006Ev, symObjAddr: 0xFEEC, symBinAddr: 0x100014080, symSize: 0x24 }
  - { offsetInCU: 0x24066, offset: 0x24066, size: 0x8, addend: 0x0, symName: __ZNSt3__119__to_address_helperINS_16reverse_iteratorINS1_IPNS_12basic_stringIcNS_11char_traitsIcEENS_9allocatorIcEEEEEEEEvE6__callB7v160006ERKSA_, symObjAddr: 0xFF10, symBinAddr: 0x1000140A4, symSize: 0x38 }
  - { offsetInCU: 0x24089, offset: 0x24089, size: 0x8, addend: 0x0, symName: __ZNKSt3__116reverse_iteratorINS0_IPNS_12basic_stringIcNS_11char_traitsIcEENS_9allocatorIcEEEEEEEptB7v160006Ev, symObjAddr: 0xFF48, symBinAddr: 0x1000140DC, symSize: 0x4C }
  - { offsetInCU: 0x240AF, offset: 0x240AF, size: 0x8, addend: 0x0, symName: __ZNSt3__116reverse_iteratorIPNS_12basic_stringIcNS_11char_traitsIcEENS_9allocatorIcEEEEEpLB7v160006El, symObjAddr: 0x10070, symBinAddr: 0x100014204, symSize: 0x30 }
  - { offsetInCU: 0x240E3, offset: 0x240E3, size: 0x8, addend: 0x0, symName: __ZNSt3__116reverse_iteratorIPNS_12basic_stringIcNS_11char_traitsIcEENS_9allocatorIcEEEEEmmB7v160006Ev, symObjAddr: 0x100A0, symBinAddr: 0x100014234, symSize: 0x20 }
  - { offsetInCU: 0x24109, offset: 0x24109, size: 0x8, addend: 0x0, symName: __ZNSt3__116reverse_iteratorINS0_IPNS_12basic_stringIcNS_11char_traitsIcEENS_9allocatorIcEEEEEEEC2B7v160006ES8_, symObjAddr: 0x100C0, symBinAddr: 0x100014254, symSize: 0x2C }
  - { offsetInCU: 0x24141, offset: 0x24141, size: 0x8, addend: 0x0, symName: __ZNSt3__116reverse_iteratorIPNS_12basic_stringIcNS_11char_traitsIcEENS_9allocatorIcEEEEEC2B7v160006ES7_, symObjAddr: 0x100EC, symBinAddr: 0x100014280, symSize: 0x28 }
  - { offsetInCU: 0x24179, offset: 0x24179, size: 0x8, addend: 0x0, symName: __ZNSt3__114__split_bufferINS_12basic_stringIcNS_11char_traitsIcEENS_9allocatorIcEEEERNS4_IS6_EEED2Ev, symObjAddr: 0x10114, symBinAddr: 0x1000142A8, symSize: 0x8C }
  - { offsetInCU: 0x241A5, offset: 0x241A5, size: 0x8, addend: 0x0, symName: __ZNSt3__114__split_bufferINS_12basic_stringIcNS_11char_traitsIcEENS_9allocatorIcEEEERNS4_IS6_EEE5clearB7v160006Ev, symObjAddr: 0x101A0, symBinAddr: 0x100014334, symSize: 0x28 }
  - { offsetInCU: 0x241CB, offset: 0x241CB, size: 0x8, addend: 0x0, symName: __ZNKSt3__114__split_bufferINS_12basic_stringIcNS_11char_traitsIcEENS_9allocatorIcEEEERNS4_IS6_EEE8capacityB7v160006Ev, symObjAddr: 0x101C8, symBinAddr: 0x10001435C, symSize: 0x40 }
  - { offsetInCU: 0x241F1, offset: 0x241F1, size: 0x8, addend: 0x0, symName: __ZNSt3__114__split_bufferINS_12basic_stringIcNS_11char_traitsIcEENS_9allocatorIcEEEERNS4_IS6_EEE17__destruct_at_endB7v160006EPS6_, symObjAddr: 0x10208, symBinAddr: 0x10001439C, symSize: 0x2C }
  - { offsetInCU: 0x24225, offset: 0x24225, size: 0x8, addend: 0x0, symName: __ZNSt3__114__split_bufferINS_12basic_stringIcNS_11char_traitsIcEENS_9allocatorIcEEEERNS4_IS6_EEE17__destruct_at_endB7v160006EPS6_NS_17integral_constantIbLb0EEE, symObjAddr: 0x10234, symBinAddr: 0x1000143C8, symSize: 0x80 }
  - { offsetInCU: 0x24266, offset: 0x24266, size: 0x8, addend: 0x0, symName: __ZNKSt3__114__split_bufferINS_12basic_stringIcNS_11char_traitsIcEENS_9allocatorIcEEEERNS4_IS6_EEE9__end_capB7v160006Ev, symObjAddr: 0x102B4, symBinAddr: 0x100014448, symSize: 0x28 }
  - { offsetInCU: 0x2428C, offset: 0x2428C, size: 0x8, addend: 0x0, symName: __ZNKSt3__117__compressed_pairIPNS_12basic_stringIcNS_11char_traitsIcEENS_9allocatorIcEEEERNS4_IS6_EEE5firstB7v160006Ev, symObjAddr: 0x102DC, symBinAddr: 0x100014470, symSize: 0x24 }
  - { offsetInCU: 0x242B2, offset: 0x242B2, size: 0x8, addend: 0x0, symName: __ZNSt3__16vectorI13nameANDemailsNS_9allocatorIS1_EEE9__end_capB7v160006Ev, symObjAddr: 0x10300, symBinAddr: 0x100014494, symSize: 0x28 }
  - { offsetInCU: 0x242D8, offset: 0x242D8, size: 0x8, addend: 0x0, symName: __ZNSt3__16vectorI13nameANDemailsNS_9allocatorIS1_EEE22__construct_one_at_endB7v160006IJRS1_EEEvDpOT_, symObjAddr: 0x10328, symBinAddr: 0x1000144BC, symSize: 0x90 }
  - { offsetInCU: 0x24327, offset: 0x24327, size: 0x8, addend: 0x0, symName: __ZNSt3__16vectorI13nameANDemailsNS_9allocatorIS1_EEE24__emplace_back_slow_pathIJRS1_EEEvDpOT_, symObjAddr: 0x103B8, symBinAddr: 0x10001454C, symSize: 0xD8 }
  - { offsetInCU: 0x24387, offset: 0x24387, size: 0x8, addend: 0x0, symName: __ZNSt3__16vectorI13nameANDemailsNS_9allocatorIS1_EEE4backB7v160006Ev, symObjAddr: 0x10490, symBinAddr: 0x100014624, symSize: 0x1C }
  - { offsetInCU: 0x243AD, offset: 0x243AD, size: 0x8, addend: 0x0, symName: __ZNSt3__117__compressed_pairIP13nameANDemailsNS_9allocatorIS1_EEE5firstB7v160006Ev, symObjAddr: 0x104AC, symBinAddr: 0x100014640, symSize: 0x24 }
  - { offsetInCU: 0x243D3, offset: 0x243D3, size: 0x8, addend: 0x0, symName: __ZNSt3__122__compressed_pair_elemIP13nameANDemailsLi0ELb0EE5__getB7v160006Ev, symObjAddr: 0x104D0, symBinAddr: 0x100014664, symSize: 0x14 }
  - { offsetInCU: 0x24415, offset: 0x24415, size: 0x8, addend: 0x0, symName: __ZNSt3__16vectorI13nameANDemailsNS_9allocatorIS1_EEE21_ConstructTransactionC1B7v160006ERS4_m, symObjAddr: 0x104E4, symBinAddr: 0x100014678, symSize: 0x3C }
  - { offsetInCU: 0x2445D, offset: 0x2445D, size: 0x8, addend: 0x0, symName: __ZNSt3__116allocator_traitsINS_9allocatorI13nameANDemailsEEE9constructB7v160006IS2_JRS2_EvvEEvRS3_PT_DpOT0_, symObjAddr: 0x10520, symBinAddr: 0x1000146B4, symSize: 0x30 }
  - { offsetInCU: 0x244B1, offset: 0x244B1, size: 0x8, addend: 0x0, symName: __ZNSt3__16vectorI13nameANDemailsNS_9allocatorIS1_EEE7__allocB7v160006Ev, symObjAddr: 0x10550, symBinAddr: 0x1000146E4, symSize: 0x28 }
  - { offsetInCU: 0x244D7, offset: 0x244D7, size: 0x8, addend: 0x0, symName: __ZNSt3__16vectorI13nameANDemailsNS_9allocatorIS1_EEE21_ConstructTransactionD1B7v160006Ev, symObjAddr: 0x1058C, symBinAddr: 0x100014720, symSize: 0x2C }
  - { offsetInCU: 0x24501, offset: 0x24501, size: 0x8, addend: 0x0, symName: __ZNSt3__16vectorI13nameANDemailsNS_9allocatorIS1_EEE21_ConstructTransactionC2B7v160006ERS4_m, symObjAddr: 0x105B8, symBinAddr: 0x10001474C, symSize: 0x4C }
  - { offsetInCU: 0x2454F, offset: 0x2454F, size: 0x8, addend: 0x0, symName: __ZN13nameANDemailsC1ERKS_, symObjAddr: 0x10640, symBinAddr: 0x1000147D4, symSize: 0x34 }
  - { offsetInCU: 0x24584, offset: 0x24584, size: 0x8, addend: 0x0, symName: __ZN13nameANDemailsC2ERKS_, symObjAddr: 0x10674, symBinAddr: 0x100014808, symSize: 0x70 }
  - { offsetInCU: 0x245B9, offset: 0x245B9, size: 0x8, addend: 0x0, symName: __ZNSt3__16vectorINS_12basic_stringIcNS_11char_traitsIcEENS_9allocatorIcEEEENS4_IS6_EEEC1ERKS8_, symObjAddr: 0x106E4, symBinAddr: 0x100014878, symSize: 0x34 }
  - { offsetInCU: 0x245F4, offset: 0x245F4, size: 0x8, addend: 0x0, symName: __ZNSt3__16vectorINS_12basic_stringIcNS_11char_traitsIcEENS_9allocatorIcEEEENS4_IS6_EEEC2ERKS8_, symObjAddr: 0x10718, symBinAddr: 0x1000148AC, symSize: 0x110 }
  - { offsetInCU: 0x24653, offset: 0x24653, size: 0x8, addend: 0x0, symName: __ZNSt3__116allocator_traitsINS_9allocatorINS_12basic_stringIcNS_11char_traitsIcEENS1_IcEEEEEEE37select_on_container_copy_constructionB7v160006IS7_vvEES7_RKS7_, symObjAddr: 0x10828, symBinAddr: 0x1000149BC, symSize: 0x10 }
  - { offsetInCU: 0x24682, offset: 0x24682, size: 0x8, addend: 0x0, symName: __ZNSt3__16vectorINS_12basic_stringIcNS_11char_traitsIcEENS_9allocatorIcEEEENS4_IS6_EEE16__destroy_vectorC1ERS8_, symObjAddr: 0x10878, symBinAddr: 0x100014A0C, symSize: 0x34 }
  - { offsetInCU: 0x246BB, offset: 0x246BB, size: 0x8, addend: 0x0, symName: __ZNSt3__16vectorINS_12basic_stringIcNS_11char_traitsIcEENS_9allocatorIcEEEENS4_IS6_EEE11__vallocateB7v160006Em, symObjAddr: 0x108AC, symBinAddr: 0x100014A40, symSize: 0xB4 }
  - { offsetInCU: 0x246FF, offset: 0x246FF, size: 0x8, addend: 0x0, symName: __ZNSt3__16vectorINS_12basic_stringIcNS_11char_traitsIcEENS_9allocatorIcEEEENS4_IS6_EEE18__construct_at_endIPS6_Li0EEEvT_SB_m, symObjAddr: 0x10960, symBinAddr: 0x100014AF4, symSize: 0x8C }
  - { offsetInCU: 0x24772, offset: 0x24772, size: 0x8, addend: 0x0, symName: __ZNSt3__128__exception_guard_exceptionsINS_6vectorINS_12basic_stringIcNS_11char_traitsIcEENS_9allocatorIcEEEENS5_IS7_EEE16__destroy_vectorEE10__completeB7v160006Ev, symObjAddr: 0x109EC, symBinAddr: 0x100014B80, symSize: 0x1C }
  - { offsetInCU: 0x24798, offset: 0x24798, size: 0x8, addend: 0x0, symName: __ZNSt3__128__exception_guard_exceptionsINS_6vectorINS_12basic_stringIcNS_11char_traitsIcEENS_9allocatorIcEEEENS5_IS7_EEE16__destroy_vectorEED1B7v160006Ev, symObjAddr: 0x10A08, symBinAddr: 0x100014B9C, symSize: 0x2C }
  - { offsetInCU: 0x247C2, offset: 0x247C2, size: 0x8, addend: 0x0, symName: __ZNSt3__128__exception_guard_exceptionsINS_6vectorINS_12basic_stringIcNS_11char_traitsIcEENS_9allocatorIcEEEENS5_IS7_EEE16__destroy_vectorEEC1B7v160006ESA_, symObjAddr: 0x10A34, symBinAddr: 0x100014BC8, symSize: 0x34 }
  - { offsetInCU: 0x247FA, offset: 0x247FA, size: 0x8, addend: 0x0, symName: __ZNSt3__128__exception_guard_exceptionsINS_6vectorINS_12basic_stringIcNS_11char_traitsIcEENS_9allocatorIcEEEENS5_IS7_EEE16__destroy_vectorEEC2B7v160006ESA_, symObjAddr: 0x10A68, symBinAddr: 0x100014BFC, symSize: 0x24 }
  - { offsetInCU: 0x24832, offset: 0x24832, size: 0x8, addend: 0x0, symName: __ZNSt3__16vectorINS_12basic_stringIcNS_11char_traitsIcEENS_9allocatorIcEEEENS4_IS6_EEE16__destroy_vectorC2ERS8_, symObjAddr: 0x10A8C, symBinAddr: 0x100014C20, symSize: 0x20 }
  - { offsetInCU: 0x2486B, offset: 0x2486B, size: 0x8, addend: 0x0, symName: __ZNSt3__129_AllocatorDestroyRangeReverseINS_9allocatorINS_12basic_stringIcNS_11char_traitsIcEENS1_IcEEEEEEPS6_EC1B7v160006ERS7_RS8_SB_, symObjAddr: 0x10BEC, symBinAddr: 0x100014D80, symSize: 0x44 }
  - { offsetInCU: 0x248C2, offset: 0x248C2, size: 0x8, addend: 0x0, symName: __ZNSt3__116allocator_traitsINS_9allocatorINS_12basic_stringIcNS_11char_traitsIcEENS1_IcEEEEEEE9constructB7v160006IS6_JRS6_EvvEEvRS7_PT_DpOT0_, symObjAddr: 0x10C30, symBinAddr: 0x100014DC4, symSize: 0x30 }
  - { offsetInCU: 0x24916, offset: 0x24916, size: 0x8, addend: 0x0, symName: __ZNSt3__128__exception_guard_exceptionsINS_29_AllocatorDestroyRangeReverseINS_9allocatorINS_12basic_stringIcNS_11char_traitsIcEENS2_IcEEEEEEPS7_EEE10__completeB7v160006Ev, symObjAddr: 0x10C60, symBinAddr: 0x100014DF4, symSize: 0x1C }
  - { offsetInCU: 0x2493C, offset: 0x2493C, size: 0x8, addend: 0x0, symName: __ZNSt3__128__exception_guard_exceptionsINS_29_AllocatorDestroyRangeReverseINS_9allocatorINS_12basic_stringIcNS_11char_traitsIcEENS2_IcEEEEEEPS7_EEED1B7v160006Ev, symObjAddr: 0x10C7C, symBinAddr: 0x100014E10, symSize: 0x2C }
  - { offsetInCU: 0x24966, offset: 0x24966, size: 0x8, addend: 0x0, symName: __ZNSt3__128__exception_guard_exceptionsINS_29_AllocatorDestroyRangeReverseINS_9allocatorINS_12basic_stringIcNS_11char_traitsIcEENS2_IcEEEEEEPS7_EEEC1B7v160006ESA_, symObjAddr: 0x10CA8, symBinAddr: 0x100014E3C, symSize: 0x34 }
  - { offsetInCU: 0x2499F, offset: 0x2499F, size: 0x8, addend: 0x0, symName: __ZNSt3__128__exception_guard_exceptionsINS_29_AllocatorDestroyRangeReverseINS_9allocatorINS_12basic_stringIcNS_11char_traitsIcEENS2_IcEEEEEEPS7_EEEC2B7v160006ESA_, symObjAddr: 0x10CDC, symBinAddr: 0x100014E70, symSize: 0x30 }
  - { offsetInCU: 0x249D8, offset: 0x249D8, size: 0x8, addend: 0x0, symName: __ZNSt3__129_AllocatorDestroyRangeReverseINS_9allocatorINS_12basic_stringIcNS_11char_traitsIcEENS1_IcEEEEEEPS6_EC2B7v160006ERS7_RS8_SB_, symObjAddr: 0x10D0C, symBinAddr: 0x100014EA0, symSize: 0x38 }
  - { offsetInCU: 0x24A2F, offset: 0x24A2F, size: 0x8, addend: 0x0, symName: __ZNSt3__128__exception_guard_exceptionsINS_29_AllocatorDestroyRangeReverseINS_9allocatorINS_12basic_stringIcNS_11char_traitsIcEENS2_IcEEEEEEPS7_EEED2B7v160006Ev, symObjAddr: 0x10D80, symBinAddr: 0x100014F14, symSize: 0x50 }
  - { offsetInCU: 0x24A59, offset: 0x24A59, size: 0x8, addend: 0x0, symName: __ZNKSt3__129_AllocatorDestroyRangeReverseINS_9allocatorINS_12basic_stringIcNS_11char_traitsIcEENS1_IcEEEEEEPS6_EclB7v160006Ev, symObjAddr: 0x10DD0, symBinAddr: 0x100014F64, symSize: 0x68 }
  - { offsetInCU: 0x24A7F, offset: 0x24A7F, size: 0x8, addend: 0x0, symName: __ZNSt3__128__exception_guard_exceptionsINS_6vectorINS_12basic_stringIcNS_11char_traitsIcEENS_9allocatorIcEEEENS5_IS7_EEE16__destroy_vectorEED2B7v160006Ev, symObjAddr: 0x10EA8, symBinAddr: 0x10001503C, symSize: 0x50 }
  - { offsetInCU: 0x24AA9, offset: 0x24AA9, size: 0x8, addend: 0x0, symName: __ZNSt3__16vectorINS_12basic_stringIcNS_11char_traitsIcEENS_9allocatorIcEEEENS4_IS6_EEE16__destroy_vectorclB7v160006Ev, symObjAddr: 0x10EF8, symBinAddr: 0x10001508C, symSize: 0x9C }
  - { offsetInCU: 0x24ACF, offset: 0x24ACF, size: 0x8, addend: 0x0, symName: __ZNSt3__117__compressed_pairIP13nameANDemailsNS_9allocatorIS1_EEE6secondB7v160006Ev, symObjAddr: 0x10FA4, symBinAddr: 0x100015138, symSize: 0x24 }
  - { offsetInCU: 0x24AF5, offset: 0x24AF5, size: 0x8, addend: 0x0, symName: __ZNSt3__122__compressed_pair_elemINS_9allocatorI13nameANDemailsEELi1ELb1EE5__getB7v160006Ev, symObjAddr: 0x10FC8, symBinAddr: 0x10001515C, symSize: 0x14 }
  - { offsetInCU: 0x24B1B, offset: 0x24B1B, size: 0x8, addend: 0x0, symName: __ZNSt3__16vectorI13nameANDemailsNS_9allocatorIS1_EEE21_ConstructTransactionD2B7v160006Ev, symObjAddr: 0x10FDC, symBinAddr: 0x100015170, symSize: 0x20 }
  - { offsetInCU: 0x24B45, offset: 0x24B45, size: 0x8, addend: 0x0, symName: __ZNKSt3__16vectorI13nameANDemailsNS_9allocatorIS1_EEE11__recommendB7v160006Em, symObjAddr: 0x10FFC, symBinAddr: 0x100015190, symSize: 0xB4 }
  - { offsetInCU: 0x24B9A, offset: 0x24B9A, size: 0x8, addend: 0x0, symName: __ZNSt3__114__split_bufferI13nameANDemailsRNS_9allocatorIS1_EEEC1EmmS4_, symObjAddr: 0x110B0, symBinAddr: 0x100015244, symSize: 0x44 }
  - { offsetInCU: 0x24BF0, offset: 0x24BF0, size: 0x8, addend: 0x0, symName: __ZNSt3__114__split_bufferI13nameANDemailsRNS_9allocatorIS1_EEED1Ev, symObjAddr: 0x1120C, symBinAddr: 0x1000153A0, symSize: 0x2C }
  - { offsetInCU: 0x24C1C, offset: 0x24C1C, size: 0x8, addend: 0x0, symName: __ZNKSt3__16vectorI13nameANDemailsNS_9allocatorIS1_EEE8max_sizeEv, symObjAddr: 0x11238, symBinAddr: 0x1000153CC, symSize: 0x60 }
  - { offsetInCU: 0x24C44, offset: 0x24C44, size: 0x8, addend: 0x0, symName: __ZNKSt3__16vectorI13nameANDemailsNS_9allocatorIS1_EEE20__throw_length_errorB7v160006Ev, symObjAddr: 0x11298, symBinAddr: 0x10001542C, symSize: 0x1C }
  - { offsetInCU: 0x24C6A, offset: 0x24C6A, size: 0x8, addend: 0x0, symName: __ZNKSt3__16vectorI13nameANDemailsNS_9allocatorIS1_EEE8capacityB7v160006Ev, symObjAddr: 0x112B4, symBinAddr: 0x100015448, symSize: 0x40 }
  - { offsetInCU: 0x24C9B, offset: 0x24C9B, size: 0x8, addend: 0x0, symName: __ZNSt3__116allocator_traitsINS_9allocatorI13nameANDemailsEEE8max_sizeB7v160006IS3_vvEEmRKS3_, symObjAddr: 0x112F4, symBinAddr: 0x100015488, symSize: 0x28 }
  - { offsetInCU: 0x24CC6, offset: 0x24CC6, size: 0x8, addend: 0x0, symName: __ZNKSt3__16vectorI13nameANDemailsNS_9allocatorIS1_EEE7__allocB7v160006Ev, symObjAddr: 0x1131C, symBinAddr: 0x1000154B0, symSize: 0x28 }
  - { offsetInCU: 0x24CEC, offset: 0x24CEC, size: 0x8, addend: 0x0, symName: __ZNKSt3__117__compressed_pairIP13nameANDemailsNS_9allocatorIS1_EEE6secondB7v160006Ev, symObjAddr: 0x11344, symBinAddr: 0x1000154D8, symSize: 0x24 }
  - { offsetInCU: 0x24D12, offset: 0x24D12, size: 0x8, addend: 0x0, symName: __ZNKSt3__122__compressed_pair_elemINS_9allocatorI13nameANDemailsEELi1ELb1EE5__getB7v160006Ev, symObjAddr: 0x11368, symBinAddr: 0x1000154FC, symSize: 0x14 }
  - { offsetInCU: 0x24D38, offset: 0x24D38, size: 0x8, addend: 0x0, symName: __ZNKSt3__16vectorI13nameANDemailsNS_9allocatorIS1_EEE9__end_capB7v160006Ev, symObjAddr: 0x1137C, symBinAddr: 0x100015510, symSize: 0x28 }
  - { offsetInCU: 0x24D5E, offset: 0x24D5E, size: 0x8, addend: 0x0, symName: __ZNKSt3__117__compressed_pairIP13nameANDemailsNS_9allocatorIS1_EEE5firstB7v160006Ev, symObjAddr: 0x113A4, symBinAddr: 0x100015538, symSize: 0x24 }
  - { offsetInCU: 0x24D84, offset: 0x24D84, size: 0x8, addend: 0x0, symName: __ZNKSt3__122__compressed_pair_elemIP13nameANDemailsLi0ELb0EE5__getB7v160006Ev, symObjAddr: 0x113C8, symBinAddr: 0x10001555C, symSize: 0x14 }
  - { offsetInCU: 0x24DAA, offset: 0x24DAA, size: 0x8, addend: 0x0, symName: __ZNSt3__114__split_bufferI13nameANDemailsRNS_9allocatorIS1_EEEC2EmmS4_, symObjAddr: 0x113DC, symBinAddr: 0x100015570, symSize: 0xE0 }
  - { offsetInCU: 0x24E1D, offset: 0x24E1D, size: 0x8, addend: 0x0, symName: __ZNSt3__117__compressed_pairIP13nameANDemailsRNS_9allocatorIS1_EEEC1B7v160006IDnS5_EEOT_OT0_, symObjAddr: 0x114BC, symBinAddr: 0x100015650, symSize: 0x3C }
  - { offsetInCU: 0x24E75, offset: 0x24E75, size: 0x8, addend: 0x0, symName: __ZNSt3__114__split_bufferI13nameANDemailsRNS_9allocatorIS1_EEE7__allocB7v160006Ev, symObjAddr: 0x11538, symBinAddr: 0x1000156CC, symSize: 0x28 }
  - { offsetInCU: 0x24E9B, offset: 0x24E9B, size: 0x8, addend: 0x0, symName: __ZNSt3__114__split_bufferI13nameANDemailsRNS_9allocatorIS1_EEE9__end_capB7v160006Ev, symObjAddr: 0x11560, symBinAddr: 0x1000156F4, symSize: 0x28 }
  - { offsetInCU: 0x24EC1, offset: 0x24EC1, size: 0x8, addend: 0x0, symName: __ZNSt3__117__compressed_pairIP13nameANDemailsRNS_9allocatorIS1_EEEC2B7v160006IDnS5_EEOT_OT0_, symObjAddr: 0x11588, symBinAddr: 0x10001571C, symSize: 0x48 }
  - { offsetInCU: 0x24F19, offset: 0x24F19, size: 0x8, addend: 0x0, symName: __ZNSt3__122__compressed_pair_elemIRNS_9allocatorI13nameANDemailsEELi1ELb0EEC2B7v160006IS4_vEEOT_, symObjAddr: 0x115D0, symBinAddr: 0x100015764, symSize: 0x20 }
  - { offsetInCU: 0x24F5B, offset: 0x24F5B, size: 0x8, addend: 0x0, symName: __ZNSt3__19allocatorI13nameANDemailsE8allocateB7v160006Em, symObjAddr: 0x115F0, symBinAddr: 0x100015784, symSize: 0x5C }
  - { offsetInCU: 0x24F8F, offset: 0x24F8F, size: 0x8, addend: 0x0, symName: __ZNSt3__117__compressed_pairIP13nameANDemailsRNS_9allocatorIS1_EEE6secondB7v160006Ev, symObjAddr: 0x1164C, symBinAddr: 0x1000157E0, symSize: 0x28 }
  - { offsetInCU: 0x24FB5, offset: 0x24FB5, size: 0x8, addend: 0x0, symName: __ZNSt3__122__compressed_pair_elemIRNS_9allocatorI13nameANDemailsEELi1ELb0EE5__getB7v160006Ev, symObjAddr: 0x11674, symBinAddr: 0x100015808, symSize: 0x18 }
  - { offsetInCU: 0x24FDB, offset: 0x24FDB, size: 0x8, addend: 0x0, symName: __ZNSt3__117__compressed_pairIP13nameANDemailsRNS_9allocatorIS1_EEE5firstB7v160006Ev, symObjAddr: 0x1168C, symBinAddr: 0x100015820, symSize: 0x24 }
  - { offsetInCU: 0x25001, offset: 0x25001, size: 0x8, addend: 0x0, symName: __ZNKSt3__16vectorI13nameANDemailsNS_9allocatorIS1_EEE17__annotate_deleteB7v160006Ev, symObjAddr: 0x116B0, symBinAddr: 0x100015844, symSize: 0xD4 }
  - { offsetInCU: 0x25027, offset: 0x25027, size: 0x8, addend: 0x0, symName: __ZNSt3__116reverse_iteratorIP13nameANDemailsEC1B7v160006ES2_, symObjAddr: 0x118B0, symBinAddr: 0x100015A44, symSize: 0x34 }
  - { offsetInCU: 0x2505F, offset: 0x2505F, size: 0x8, addend: 0x0, symName: __ZNKSt3__116reverse_iteratorIP13nameANDemailsE4baseB7v160006Ev, symObjAddr: 0x118E4, symBinAddr: 0x100015A78, symSize: 0x18 }
  - { offsetInCU: 0x25085, offset: 0x25085, size: 0x8, addend: 0x0, symName: __ZNKSt3__16vectorI13nameANDemailsNS_9allocatorIS1_EEE14__annotate_newB7v160006Em, symObjAddr: 0x11938, symBinAddr: 0x100015ACC, symSize: 0xC8 }
  - { offsetInCU: 0x250BA, offset: 0x250BA, size: 0x8, addend: 0x0, symName: __ZNKSt3__16vectorI13nameANDemailsNS_9allocatorIS1_EEE31__annotate_contiguous_containerB7v160006EPKvS6_S6_S6_, symObjAddr: 0x11A10, symBinAddr: 0x100015BA4, symSize: 0x20 }
  - { offsetInCU: 0x2510C, offset: 0x2510C, size: 0x8, addend: 0x0, symName: __ZNKSt3__16vectorI13nameANDemailsNS_9allocatorIS1_EEE4dataB7v160006Ev, symObjAddr: 0x11A30, symBinAddr: 0x100015BC4, symSize: 0x28 }
  - { offsetInCU: 0x25132, offset: 0x25132, size: 0x8, addend: 0x0, symName: __ZNSt3__129_AllocatorDestroyRangeReverseINS_9allocatorI13nameANDemailsEENS_16reverse_iteratorIPS2_EEEC1B7v160006ERS3_RS6_S9_, symObjAddr: 0x11AA4, symBinAddr: 0x100015C38, symSize: 0x44 }
  - { offsetInCU: 0x2518F, offset: 0x2518F, size: 0x8, addend: 0x0, symName: __ZNSt3__116allocator_traitsINS_9allocatorI13nameANDemailsEEE9constructB7v160006IS2_JS2_EvvEEvRS3_PT_DpOT0_, symObjAddr: 0x11B30, symBinAddr: 0x100015CC4, symSize: 0x30 }
  - { offsetInCU: 0x251E3, offset: 0x251E3, size: 0x8, addend: 0x0, symName: __ZNKSt3__116reverse_iteratorIP13nameANDemailsEdeB7v160006Ev, symObjAddr: 0x11B84, symBinAddr: 0x100015D18, symSize: 0x28 }
  - { offsetInCU: 0x25217, offset: 0x25217, size: 0x8, addend: 0x0, symName: __ZNSt3__116reverse_iteratorIP13nameANDemailsEppB7v160006Ev, symObjAddr: 0x11BAC, symBinAddr: 0x100015D40, symSize: 0x20 }
  - { offsetInCU: 0x2523D, offset: 0x2523D, size: 0x8, addend: 0x0, symName: __ZNSt3__128__exception_guard_exceptionsINS_29_AllocatorDestroyRangeReverseINS_9allocatorI13nameANDemailsEENS_16reverse_iteratorIPS3_EEEEE10__completeB7v160006Ev, symObjAddr: 0x11BCC, symBinAddr: 0x100015D60, symSize: 0x1C }
  - { offsetInCU: 0x25263, offset: 0x25263, size: 0x8, addend: 0x0, symName: __ZNSt3__128__exception_guard_exceptionsINS_29_AllocatorDestroyRangeReverseINS_9allocatorI13nameANDemailsEENS_16reverse_iteratorIPS3_EEEEED1B7v160006Ev, symObjAddr: 0x11BE8, symBinAddr: 0x100015D7C, symSize: 0x2C }
  - { offsetInCU: 0x2528D, offset: 0x2528D, size: 0x8, addend: 0x0, symName: __ZNSt3__128__exception_guard_exceptionsINS_29_AllocatorDestroyRangeReverseINS_9allocatorI13nameANDemailsEENS_16reverse_iteratorIPS3_EEEEEC1B7v160006ES8_, symObjAddr: 0x11C14, symBinAddr: 0x100015DA8, symSize: 0x34 }
  - { offsetInCU: 0x252C6, offset: 0x252C6, size: 0x8, addend: 0x0, symName: __ZNSt3__128__exception_guard_exceptionsINS_29_AllocatorDestroyRangeReverseINS_9allocatorI13nameANDemailsEENS_16reverse_iteratorIPS3_EEEEEC2B7v160006ES8_, symObjAddr: 0x11C48, symBinAddr: 0x100015DDC, symSize: 0x30 }
  - { offsetInCU: 0x252FF, offset: 0x252FF, size: 0x8, addend: 0x0, symName: __ZNSt3__129_AllocatorDestroyRangeReverseINS_9allocatorI13nameANDemailsEENS_16reverse_iteratorIPS2_EEEC2B7v160006ERS3_RS6_S9_, symObjAddr: 0x11C78, symBinAddr: 0x100015E0C, symSize: 0x38 }
  - { offsetInCU: 0x25356, offset: 0x25356, size: 0x8, addend: 0x0, symName: __ZN13nameANDemailsC1EOS_, symObjAddr: 0x11CEC, symBinAddr: 0x100015E80, symSize: 0x34 }
  - { offsetInCU: 0x2538B, offset: 0x2538B, size: 0x8, addend: 0x0, symName: __ZN13nameANDemailsC2EOS_, symObjAddr: 0x11D20, symBinAddr: 0x100015EB4, symSize: 0x48 }
  - { offsetInCU: 0x253C6, offset: 0x253C6, size: 0x8, addend: 0x0, symName: __ZNSt3__119__to_address_helperINS_16reverse_iteratorIP13nameANDemailsEEvE6__callB7v160006ERKS4_, symObjAddr: 0x11D68, symBinAddr: 0x100015EFC, symSize: 0x38 }
  - { offsetInCU: 0x253E9, offset: 0x253E9, size: 0x8, addend: 0x0, symName: __ZNKSt3__116reverse_iteratorIP13nameANDemailsEptB7v160006Ev, symObjAddr: 0x11DA0, symBinAddr: 0x100015F34, symSize: 0x2C }
  - { offsetInCU: 0x2540F, offset: 0x2540F, size: 0x8, addend: 0x0, symName: __ZNSt3__128__exception_guard_exceptionsINS_29_AllocatorDestroyRangeReverseINS_9allocatorI13nameANDemailsEENS_16reverse_iteratorIPS3_EEEEED2B7v160006Ev, symObjAddr: 0x11E9C, symBinAddr: 0x100016030, symSize: 0x50 }
  - { offsetInCU: 0x25439, offset: 0x25439, size: 0x8, addend: 0x0, symName: __ZNKSt3__129_AllocatorDestroyRangeReverseINS_9allocatorI13nameANDemailsEENS_16reverse_iteratorIPS2_EEEclB7v160006Ev, symObjAddr: 0x11EEC, symBinAddr: 0x100016080, symSize: 0xB4 }
  - { offsetInCU: 0x25460, offset: 0x25460, size: 0x8, addend: 0x0, symName: __ZNSt3__116reverse_iteratorINS0_IP13nameANDemailsEEEC1B7v160006ES3_, symObjAddr: 0x12010, symBinAddr: 0x1000161A4, symSize: 0x3C }
  - { offsetInCU: 0x25498, offset: 0x25498, size: 0x8, addend: 0x0, symName: __ZNSt3__116allocator_traitsINS_9allocatorI13nameANDemailsEEE7destroyB7v160006IS2_vvEEvRS3_PT_, symObjAddr: 0x120AC, symBinAddr: 0x100016240, symSize: 0x28 }
  - { offsetInCU: 0x254D2, offset: 0x254D2, size: 0x8, addend: 0x0, symName: __ZNSt3__116reverse_iteratorINS0_IP13nameANDemailsEEEppB7v160006Ev, symObjAddr: 0x120F8, symBinAddr: 0x10001628C, symSize: 0x30 }
  - { offsetInCU: 0x254F8, offset: 0x254F8, size: 0x8, addend: 0x0, symName: __ZNKSt3__116reverse_iteratorINS0_IP13nameANDemailsEEE4baseB7v160006Ev, symObjAddr: 0x12128, symBinAddr: 0x1000162BC, symSize: 0x24 }
  - { offsetInCU: 0x25524, offset: 0x25524, size: 0x8, addend: 0x0, symName: __ZNSt3__119__to_address_helperINS_16reverse_iteratorINS1_IP13nameANDemailsEEEEvE6__callB7v160006ERKS5_, symObjAddr: 0x12194, symBinAddr: 0x100016328, symSize: 0x38 }
  - { offsetInCU: 0x25547, offset: 0x25547, size: 0x8, addend: 0x0, symName: __ZNKSt3__116reverse_iteratorINS0_IP13nameANDemailsEEEptB7v160006Ev, symObjAddr: 0x121CC, symBinAddr: 0x100016360, symSize: 0x4C }
  - { offsetInCU: 0x2556D, offset: 0x2556D, size: 0x8, addend: 0x0, symName: __ZNSt3__116reverse_iteratorIP13nameANDemailsEpLB7v160006El, symObjAddr: 0x122F4, symBinAddr: 0x100016488, symSize: 0x30 }
  - { offsetInCU: 0x255A1, offset: 0x255A1, size: 0x8, addend: 0x0, symName: __ZNSt3__116reverse_iteratorIP13nameANDemailsEmmB7v160006Ev, symObjAddr: 0x12324, symBinAddr: 0x1000164B8, symSize: 0x20 }
  - { offsetInCU: 0x255C7, offset: 0x255C7, size: 0x8, addend: 0x0, symName: __ZNSt3__116reverse_iteratorINS0_IP13nameANDemailsEEEC2B7v160006ES3_, symObjAddr: 0x12344, symBinAddr: 0x1000164D8, symSize: 0x2C }
  - { offsetInCU: 0x255FF, offset: 0x255FF, size: 0x8, addend: 0x0, symName: __ZNSt3__116reverse_iteratorIP13nameANDemailsEC2B7v160006ES2_, symObjAddr: 0x12370, symBinAddr: 0x100016504, symSize: 0x28 }
  - { offsetInCU: 0x25637, offset: 0x25637, size: 0x8, addend: 0x0, symName: __ZNSt3__114__split_bufferI13nameANDemailsRNS_9allocatorIS1_EEED2Ev, symObjAddr: 0x12398, symBinAddr: 0x10001652C, symSize: 0x8C }
  - { offsetInCU: 0x25663, offset: 0x25663, size: 0x8, addend: 0x0, symName: __ZNSt3__114__split_bufferI13nameANDemailsRNS_9allocatorIS1_EEE5clearB7v160006Ev, symObjAddr: 0x12424, symBinAddr: 0x1000165B8, symSize: 0x28 }
  - { offsetInCU: 0x25689, offset: 0x25689, size: 0x8, addend: 0x0, symName: __ZNSt3__116allocator_traitsINS_9allocatorI13nameANDemailsEEE10deallocateB7v160006ERS3_PS2_m, symObjAddr: 0x1244C, symBinAddr: 0x1000165E0, symSize: 0x34 }
  - { offsetInCU: 0x256CB, offset: 0x256CB, size: 0x8, addend: 0x0, symName: __ZNKSt3__114__split_bufferI13nameANDemailsRNS_9allocatorIS1_EEE8capacityB7v160006Ev, symObjAddr: 0x12480, symBinAddr: 0x100016614, symSize: 0x40 }
  - { offsetInCU: 0x256F1, offset: 0x256F1, size: 0x8, addend: 0x0, symName: __ZNSt3__114__split_bufferI13nameANDemailsRNS_9allocatorIS1_EEE17__destruct_at_endB7v160006EPS1_, symObjAddr: 0x124C0, symBinAddr: 0x100016654, symSize: 0x2C }
  - { offsetInCU: 0x25725, offset: 0x25725, size: 0x8, addend: 0x0, symName: __ZNSt3__114__split_bufferI13nameANDemailsRNS_9allocatorIS1_EEE17__destruct_at_endB7v160006EPS1_NS_17integral_constantIbLb0EEE, symObjAddr: 0x124EC, symBinAddr: 0x100016680, symSize: 0x80 }
  - { offsetInCU: 0x25766, offset: 0x25766, size: 0x8, addend: 0x0, symName: __ZNSt3__19allocatorI13nameANDemailsE10deallocateB7v160006EPS1_m, symObjAddr: 0x1256C, symBinAddr: 0x100016700, symSize: 0x44 }
  - { offsetInCU: 0x257A8, offset: 0x257A8, size: 0x8, addend: 0x0, symName: __ZNKSt3__114__split_bufferI13nameANDemailsRNS_9allocatorIS1_EEE9__end_capB7v160006Ev, symObjAddr: 0x125B0, symBinAddr: 0x100016744, symSize: 0x28 }
  - { offsetInCU: 0x257CE, offset: 0x257CE, size: 0x8, addend: 0x0, symName: __ZNKSt3__117__compressed_pairIP13nameANDemailsRNS_9allocatorIS1_EEE5firstB7v160006Ev, symObjAddr: 0x125D8, symBinAddr: 0x10001676C, symSize: 0x24 }
  - { offsetInCU: 0x257F4, offset: 0x257F4, size: 0x8, addend: 0x0, symName: __ZN13nameANDemailsD2Ev, symObjAddr: 0x125FC, symBinAddr: 0x100016790, symSize: 0x38 }
  - { offsetInCU: 0x25820, offset: 0x25820, size: 0x8, addend: 0x0, symName: __ZNKSt3__112__hash_tableINS_17__hash_value_typeINS_12basic_stringIcNS_11char_traitsIcEENS_9allocatorIcEEEEiEENS_22__unordered_map_hasherIS7_S8_NS_4hashIS7_EENS_8equal_toIS7_EELb1EEENS_21__unordered_map_equalIS7_S8_SD_SB_Lb1EEENS5_IS8_EEE4sizeB7v160006Ev, symObjAddr: 0x12634, symBinAddr: 0x1000167C8, symSize: 0x2C }
  - { offsetInCU: 0x25846, offset: 0x25846, size: 0x8, addend: 0x0, symName: __ZNKSt3__117__compressed_pairImNS_22__unordered_map_hasherINS_12basic_stringIcNS_11char_traitsIcEENS_9allocatorIcEEEENS_17__hash_value_typeIS7_iEENS_4hashIS7_EENS_8equal_toIS7_EELb1EEEE5firstB7v160006Ev, symObjAddr: 0x12660, symBinAddr: 0x1000167F4, symSize: 0x24 }
  - { offsetInCU: 0x2586C, offset: 0x2586C, size: 0x8, addend: 0x0, symName: __ZN9UnionFindC2Ei, symObjAddr: 0x12684, symBinAddr: 0x100016818, symSize: 0x88 }
  - { offsetInCU: 0x258A4, offset: 0x258A4, size: 0x8, addend: 0x0, symName: __ZNSt3__16vectorIiNS_9allocatorIiEEEC1Em, symObjAddr: 0x1270C, symBinAddr: 0x1000168A0, symSize: 0x34 }
  - { offsetInCU: 0x258DF, offset: 0x258DF, size: 0x8, addend: 0x0, symName: __ZNSt3__16vectorIiNS_9allocatorIiEEE5beginB7v160006Ev, symObjAddr: 0x127B0, symBinAddr: 0x100016944, symSize: 0x30 }
  - { offsetInCU: 0x25907, offset: 0x25907, size: 0x8, addend: 0x0, symName: __ZNSt3__16vectorIiNS_9allocatorIiEEE3endB7v160006Ev, symObjAddr: 0x127E0, symBinAddr: 0x100016974, symSize: 0x30 }
  - { offsetInCU: 0x2592F, offset: 0x2592F, size: 0x8, addend: 0x0, symName: __ZNSt3__16vectorIiNS_9allocatorIiEEED1B7v160006Ev, symObjAddr: 0x12810, symBinAddr: 0x1000169A4, symSize: 0x2C }
  - { offsetInCU: 0x25959, offset: 0x25959, size: 0x8, addend: 0x0, symName: __ZNSt3__16vectorIiNS_9allocatorIiEEEC2Em, symObjAddr: 0x1283C, symBinAddr: 0x1000169D0, symSize: 0xE0 }
  - { offsetInCU: 0x259A9, offset: 0x259A9, size: 0x8, addend: 0x0, symName: __ZNSt3__117__compressed_pairIPiNS_9allocatorIiEEEC1B7v160006IDnNS_18__default_init_tagEEEOT_OT0_, symObjAddr: 0x1291C, symBinAddr: 0x100016AB0, symSize: 0x3C }
  - { offsetInCU: 0x25A01, offset: 0x25A01, size: 0x8, addend: 0x0, symName: __ZNSt3__16vectorIiNS_9allocatorIiEEE16__destroy_vectorC1ERS3_, symObjAddr: 0x12998, symBinAddr: 0x100016B2C, symSize: 0x34 }
  - { offsetInCU: 0x25A3A, offset: 0x25A3A, size: 0x8, addend: 0x0, symName: __ZNSt3__16vectorIiNS_9allocatorIiEEE11__vallocateB7v160006Em, symObjAddr: 0x129DC, symBinAddr: 0x100016B70, symSize: 0xAC }
  - { offsetInCU: 0x25A7E, offset: 0x25A7E, size: 0x8, addend: 0x0, symName: __ZNSt3__16vectorIiNS_9allocatorIiEEE18__construct_at_endEm, symObjAddr: 0x12A88, symBinAddr: 0x100016C1C, symSize: 0xC8 }
  - { offsetInCU: 0x25AF0, offset: 0x25AF0, size: 0x8, addend: 0x0, symName: __ZNSt3__128__exception_guard_exceptionsINS_6vectorIiNS_9allocatorIiEEE16__destroy_vectorEE10__completeB7v160006Ev, symObjAddr: 0x12B50, symBinAddr: 0x100016CE4, symSize: 0x1C }
  - { offsetInCU: 0x25B16, offset: 0x25B16, size: 0x8, addend: 0x0, symName: __ZNSt3__128__exception_guard_exceptionsINS_6vectorIiNS_9allocatorIiEEE16__destroy_vectorEED1B7v160006Ev, symObjAddr: 0x12B6C, symBinAddr: 0x100016D00, symSize: 0x2C }
  - { offsetInCU: 0x25B40, offset: 0x25B40, size: 0x8, addend: 0x0, symName: __ZNSt3__117__compressed_pairIPiNS_9allocatorIiEEEC2B7v160006IDnNS_18__default_init_tagEEEOT_OT0_, symObjAddr: 0x12B98, symBinAddr: 0x100016D2C, symSize: 0x40 }
  - { offsetInCU: 0x25B98, offset: 0x25B98, size: 0x8, addend: 0x0, symName: __ZNSt3__122__compressed_pair_elemIPiLi0ELb0EEC2B7v160006IDnvEEOT_, symObjAddr: 0x12BD8, symBinAddr: 0x100016D6C, symSize: 0x1C }
  - { offsetInCU: 0x25BDA, offset: 0x25BDA, size: 0x8, addend: 0x0, symName: __ZNSt3__122__compressed_pair_elemINS_9allocatorIiEELi1ELb1EEC2B7v160006ENS_18__default_init_tagE, symObjAddr: 0x12BF4, symBinAddr: 0x100016D88, symSize: 0x2C }
  - { offsetInCU: 0x25C0F, offset: 0x25C0F, size: 0x8, addend: 0x0, symName: __ZNSt3__19allocatorIiEC2B7v160006Ev, symObjAddr: 0x12C20, symBinAddr: 0x100016DB4, symSize: 0x2C }
  - { offsetInCU: 0x25C39, offset: 0x25C39, size: 0x8, addend: 0x0, symName: __ZNSt3__116__non_trivial_ifILb1ENS_9allocatorIiEEEC2B7v160006Ev, symObjAddr: 0x12C4C, symBinAddr: 0x100016DE0, symSize: 0x14 }
  - { offsetInCU: 0x25C63, offset: 0x25C63, size: 0x8, addend: 0x0, symName: __ZNSt3__128__exception_guard_exceptionsINS_6vectorIiNS_9allocatorIiEEE16__destroy_vectorEEC1B7v160006ES5_, symObjAddr: 0x12C60, symBinAddr: 0x100016DF4, symSize: 0x34 }
  - { offsetInCU: 0x25C9B, offset: 0x25C9B, size: 0x8, addend: 0x0, symName: __ZNSt3__128__exception_guard_exceptionsINS_6vectorIiNS_9allocatorIiEEE16__destroy_vectorEEC2B7v160006ES5_, symObjAddr: 0x12C94, symBinAddr: 0x100016E28, symSize: 0x24 }
  - { offsetInCU: 0x25CD3, offset: 0x25CD3, size: 0x8, addend: 0x0, symName: __ZNSt3__16vectorIiNS_9allocatorIiEEE16__destroy_vectorC2ERS3_, symObjAddr: 0x12CB8, symBinAddr: 0x100016E4C, symSize: 0x20 }
  - { offsetInCU: 0x25D0C, offset: 0x25D0C, size: 0x8, addend: 0x0, symName: __ZNKSt3__16vectorIiNS_9allocatorIiEEE8max_sizeEv, symObjAddr: 0x12CD8, symBinAddr: 0x100016E6C, symSize: 0x60 }
  - { offsetInCU: 0x25D34, offset: 0x25D34, size: 0x8, addend: 0x0, symName: __ZNKSt3__16vectorIiNS_9allocatorIiEEE20__throw_length_errorB7v160006Ev, symObjAddr: 0x12D38, symBinAddr: 0x100016ECC, symSize: 0x1C }
  - { offsetInCU: 0x25D5A, offset: 0x25D5A, size: 0x8, addend: 0x0, symName: __ZNSt3__16vectorIiNS_9allocatorIiEEE7__allocB7v160006Ev, symObjAddr: 0x12D94, symBinAddr: 0x100016F28, symSize: 0x28 }
  - { offsetInCU: 0x25D80, offset: 0x25D80, size: 0x8, addend: 0x0, symName: __ZNSt3__16vectorIiNS_9allocatorIiEEE9__end_capB7v160006Ev, symObjAddr: 0x12DBC, symBinAddr: 0x100016F50, symSize: 0x28 }
  - { offsetInCU: 0x25DA6, offset: 0x25DA6, size: 0x8, addend: 0x0, symName: __ZNKSt3__16vectorIiNS_9allocatorIiEEE14__annotate_newB7v160006Em, symObjAddr: 0x12DE4, symBinAddr: 0x100016F78, symSize: 0xAC }
  - { offsetInCU: 0x25DE6, offset: 0x25DE6, size: 0x8, addend: 0x0, symName: __ZNSt3__116allocator_traitsINS_9allocatorIiEEE8max_sizeB7v160006IS2_vvEEmRKS2_, symObjAddr: 0x12E90, symBinAddr: 0x100017024, symSize: 0x28 }
  - { offsetInCU: 0x25E11, offset: 0x25E11, size: 0x8, addend: 0x0, symName: __ZNKSt3__16vectorIiNS_9allocatorIiEEE7__allocB7v160006Ev, symObjAddr: 0x12EB8, symBinAddr: 0x10001704C, symSize: 0x28 }
  - { offsetInCU: 0x25E37, offset: 0x25E37, size: 0x8, addend: 0x0, symName: __ZNKSt3__117__compressed_pairIPiNS_9allocatorIiEEE6secondB7v160006Ev, symObjAddr: 0x12EE0, symBinAddr: 0x100017074, symSize: 0x24 }
  - { offsetInCU: 0x25E5D, offset: 0x25E5D, size: 0x8, addend: 0x0, symName: __ZNKSt3__122__compressed_pair_elemINS_9allocatorIiEELi1ELb1EE5__getB7v160006Ev, symObjAddr: 0x12F04, symBinAddr: 0x100017098, symSize: 0x14 }
  - { offsetInCU: 0x25E83, offset: 0x25E83, size: 0x8, addend: 0x0, symName: __ZNSt3__19allocatorIiE8allocateB7v160006Em, symObjAddr: 0x12F18, symBinAddr: 0x1000170AC, symSize: 0x58 }
  - { offsetInCU: 0x25EB7, offset: 0x25EB7, size: 0x8, addend: 0x0, symName: __ZNSt3__117__compressed_pairIPiNS_9allocatorIiEEE6secondB7v160006Ev, symObjAddr: 0x12F70, symBinAddr: 0x100017104, symSize: 0x24 }
  - { offsetInCU: 0x25EDD, offset: 0x25EDD, size: 0x8, addend: 0x0, symName: __ZNSt3__122__compressed_pair_elemINS_9allocatorIiEELi1ELb1EE5__getB7v160006Ev, symObjAddr: 0x12F94, symBinAddr: 0x100017128, symSize: 0x14 }
  - { offsetInCU: 0x25F03, offset: 0x25F03, size: 0x8, addend: 0x0, symName: __ZNSt3__117__compressed_pairIPiNS_9allocatorIiEEE5firstB7v160006Ev, symObjAddr: 0x12FA8, symBinAddr: 0x10001713C, symSize: 0x24 }
  - { offsetInCU: 0x25F29, offset: 0x25F29, size: 0x8, addend: 0x0, symName: __ZNSt3__122__compressed_pair_elemIPiLi0ELb0EE5__getB7v160006Ev, symObjAddr: 0x12FCC, symBinAddr: 0x100017160, symSize: 0x14 }
  - { offsetInCU: 0x25F4F, offset: 0x25F4F, size: 0x8, addend: 0x0, symName: __ZNKSt3__16vectorIiNS_9allocatorIiEEE31__annotate_contiguous_containerB7v160006EPKvS5_S5_S5_, symObjAddr: 0x12FE0, symBinAddr: 0x100017174, symSize: 0x20 }
  - { offsetInCU: 0x25FA1, offset: 0x25FA1, size: 0x8, addend: 0x0, symName: __ZNKSt3__16vectorIiNS_9allocatorIiEEE4dataB7v160006Ev, symObjAddr: 0x13000, symBinAddr: 0x100017194, symSize: 0x28 }
  - { offsetInCU: 0x25FC7, offset: 0x25FC7, size: 0x8, addend: 0x0, symName: __ZNKSt3__16vectorIiNS_9allocatorIiEEE8capacityB7v160006Ev, symObjAddr: 0x13028, symBinAddr: 0x1000171BC, symSize: 0x40 }
  - { offsetInCU: 0x25FED, offset: 0x25FED, size: 0x8, addend: 0x0, symName: __ZNKSt3__16vectorIiNS_9allocatorIiEEE9__end_capB7v160006Ev, symObjAddr: 0x1307C, symBinAddr: 0x100017210, symSize: 0x28 }
  - { offsetInCU: 0x26013, offset: 0x26013, size: 0x8, addend: 0x0, symName: __ZNKSt3__117__compressed_pairIPiNS_9allocatorIiEEE5firstB7v160006Ev, symObjAddr: 0x130A4, symBinAddr: 0x100017238, symSize: 0x24 }
  - { offsetInCU: 0x26039, offset: 0x26039, size: 0x8, addend: 0x0, symName: __ZNKSt3__122__compressed_pair_elemIPiLi0ELb0EE5__getB7v160006Ev, symObjAddr: 0x130C8, symBinAddr: 0x10001725C, symSize: 0x14 }
  - { offsetInCU: 0x2607B, offset: 0x2607B, size: 0x8, addend: 0x0, symName: __ZNSt3__16vectorIiNS_9allocatorIiEEE21_ConstructTransactionC1B7v160006ERS3_m, symObjAddr: 0x130DC, symBinAddr: 0x100017270, symSize: 0x3C }
  - { offsetInCU: 0x260C3, offset: 0x260C3, size: 0x8, addend: 0x0, symName: __ZNSt3__116allocator_traitsINS_9allocatorIiEEE9constructB7v160006IiJEvvEEvRS2_PT_DpOT0_, symObjAddr: 0x13118, symBinAddr: 0x1000172AC, symSize: 0x28 }
  - { offsetInCU: 0x26102, offset: 0x26102, size: 0x8, addend: 0x0, symName: __ZNSt3__16vectorIiNS_9allocatorIiEEE21_ConstructTransactionD1B7v160006Ev, symObjAddr: 0x13140, symBinAddr: 0x1000172D4, symSize: 0x2C }
  - { offsetInCU: 0x2612C, offset: 0x2612C, size: 0x8, addend: 0x0, symName: __ZNSt3__16vectorIiNS_9allocatorIiEEE21_ConstructTransactionC2B7v160006ERS3_m, symObjAddr: 0x1316C, symBinAddr: 0x100017300, symSize: 0x44 }
  - { offsetInCU: 0x26174, offset: 0x26174, size: 0x8, addend: 0x0, symName: __ZNSt3__16vectorIiNS_9allocatorIiEEE21_ConstructTransactionD2B7v160006Ev, symObjAddr: 0x131D0, symBinAddr: 0x100017364, symSize: 0x20 }
  - { offsetInCU: 0x2619E, offset: 0x2619E, size: 0x8, addend: 0x0, symName: __ZNSt3__128__exception_guard_exceptionsINS_6vectorIiNS_9allocatorIiEEE16__destroy_vectorEED2B7v160006Ev, symObjAddr: 0x131F0, symBinAddr: 0x100017384, symSize: 0x50 }
  - { offsetInCU: 0x261C8, offset: 0x261C8, size: 0x8, addend: 0x0, symName: __ZNSt3__16vectorIiNS_9allocatorIiEEE16__destroy_vectorclB7v160006Ev, symObjAddr: 0x13240, symBinAddr: 0x1000173D4, symSize: 0x9C }
  - { offsetInCU: 0x261EE, offset: 0x261EE, size: 0x8, addend: 0x0, symName: __ZNKSt3__16vectorIiNS_9allocatorIiEEE17__annotate_deleteB7v160006Ev, symObjAddr: 0x132DC, symBinAddr: 0x100017470, symSize: 0xB8 }
  - { offsetInCU: 0x26214, offset: 0x26214, size: 0x8, addend: 0x0, symName: __ZNSt3__16vectorIiNS_9allocatorIiEEE7__clearB7v160006Ev, symObjAddr: 0x133A4, symBinAddr: 0x100017538, symSize: 0x28 }
  - { offsetInCU: 0x2623A, offset: 0x2623A, size: 0x8, addend: 0x0, symName: __ZNSt3__116allocator_traitsINS_9allocatorIiEEE10deallocateB7v160006ERS2_Pim, symObjAddr: 0x133CC, symBinAddr: 0x100017560, symSize: 0x34 }
  - { offsetInCU: 0x2627C, offset: 0x2627C, size: 0x8, addend: 0x0, symName: __ZNKSt3__16vectorIiNS_9allocatorIiEEE4sizeB7v160006Ev, symObjAddr: 0x13400, symBinAddr: 0x100017594, symSize: 0x28 }
  - { offsetInCU: 0x262A2, offset: 0x262A2, size: 0x8, addend: 0x0, symName: __ZNSt3__16vectorIiNS_9allocatorIiEEE22__base_destruct_at_endB7v160006EPi, symObjAddr: 0x13428, symBinAddr: 0x1000175BC, symSize: 0x8C }
  - { offsetInCU: 0x262E6, offset: 0x262E6, size: 0x8, addend: 0x0, symName: __ZNSt3__116allocator_traitsINS_9allocatorIiEEE7destroyB7v160006IivvEEvRS2_PT_, symObjAddr: 0x134B4, symBinAddr: 0x100017648, symSize: 0x28 }
  - { offsetInCU: 0x26320, offset: 0x26320, size: 0x8, addend: 0x0, symName: __ZNSt3__19allocatorIiE10deallocateB7v160006EPim, symObjAddr: 0x13510, symBinAddr: 0x1000176A4, symSize: 0x40 }
  - { offsetInCU: 0x26362, offset: 0x26362, size: 0x8, addend: 0x0, symName: __ZNKSt3__111__wrap_iterIPiEdeB7v160006Ev, symObjAddr: 0x13584, symBinAddr: 0x100017718, symSize: 0x18 }
  - { offsetInCU: 0x26388, offset: 0x26388, size: 0x8, addend: 0x0, symName: __ZNSt3__111__wrap_iterIPiEppB7v160006Ev, symObjAddr: 0x1359C, symBinAddr: 0x100017730, symSize: 0x20 }
  - { offsetInCU: 0x263AE, offset: 0x263AE, size: 0x8, addend: 0x0, symName: __ZNKSt3__111__wrap_iterIPiE4baseB7v160006Ev, symObjAddr: 0x13604, symBinAddr: 0x100017798, symSize: 0x18 }
  - { offsetInCU: 0x263D4, offset: 0x263D4, size: 0x8, addend: 0x0, symName: __ZNSt3__16vectorIiNS_9allocatorIiEEE11__make_iterB7v160006EPi, symObjAddr: 0x1361C, symBinAddr: 0x1000177B0, symSize: 0x34 }
  - { offsetInCU: 0x26409, offset: 0x26409, size: 0x8, addend: 0x0, symName: __ZNSt3__111__wrap_iterIPiEC1B7v160006EPKvS1_, symObjAddr: 0x13650, symBinAddr: 0x1000177E4, symSize: 0x3C }
  - { offsetInCU: 0x2644F, offset: 0x2644F, size: 0x8, addend: 0x0, symName: __ZNSt3__111__wrap_iterIPiEC2B7v160006EPKvS1_, symObjAddr: 0x1368C, symBinAddr: 0x100017820, symSize: 0x24 }
  - { offsetInCU: 0x26495, offset: 0x26495, size: 0x8, addend: 0x0, symName: __ZNSt3__16vectorIiNS_9allocatorIiEEED2B7v160006Ev, symObjAddr: 0x136B0, symBinAddr: 0x100017844, symSize: 0x44 }
  - { offsetInCU: 0x264BF, offset: 0x264BF, size: 0x8, addend: 0x0, symName: __ZNSt3__16vectorIiNS_9allocatorIiEEEixB7v160006Em, symObjAddr: 0x136F4, symBinAddr: 0x100017888, symSize: 0x24 }
  - { offsetInCU: 0x264F6, offset: 0x264F6, size: 0x8, addend: 0x0, symName: __ZNSt3__113unordered_mapIiNS_6vectorINS_12basic_stringIcNS_11char_traitsIcEENS_9allocatorIcEEEENS5_IS7_EEEENS_4hashIiEENS_8equal_toIiEENS5_INS_4pairIKiS9_EEEEEC2B7v160006Ev, symObjAddr: 0x13718, symBinAddr: 0x1000178AC, symSize: 0x3C }
  - { offsetInCU: 0x26520, offset: 0x26520, size: 0x8, addend: 0x0, symName: __ZNSt3__112__hash_tableINS_17__hash_value_typeIiNS_6vectorINS_12basic_stringIcNS_11char_traitsIcEENS_9allocatorIcEEEENS6_IS8_EEEEEENS_22__unordered_map_hasherIiSB_NS_4hashIiEENS_8equal_toIiEELb1EEENS_21__unordered_map_equalIiSB_SG_SE_Lb1EEENS6_ISB_EEEC1Ev, symObjAddr: 0x13754, symBinAddr: 0x1000178E8, symSize: 0x2C }
  - { offsetInCU: 0x2654C, offset: 0x2654C, size: 0x8, addend: 0x0, symName: __ZNSt3__112__hash_tableINS_17__hash_value_typeIiNS_6vectorINS_12basic_stringIcNS_11char_traitsIcEENS_9allocatorIcEEEENS6_IS8_EEEEEENS_22__unordered_map_hasherIiSB_NS_4hashIiEENS_8equal_toIiEELb1EEENS_21__unordered_map_equalIiSB_SG_SE_Lb1EEENS6_ISB_EEEC2Ev, symObjAddr: 0x13790, symBinAddr: 0x100017924, symSize: 0x7C }
  - { offsetInCU: 0x26578, offset: 0x26578, size: 0x8, addend: 0x0, symName: __ZNSt3__110unique_ptrIA_PNS_16__hash_node_baseIPNS_11__hash_nodeINS_17__hash_value_typeIiNS_6vectorINS_12basic_stringIcNS_11char_traitsIcEENS_9allocatorIcEEEENS8_ISA_EEEEEEPvEEEENS_25__bucket_list_deallocatorINS8_ISI_EEEEEC1B7v160006ILb1EvEEv, symObjAddr: 0x1380C, symBinAddr: 0x1000179A0, symSize: 0x2C }
  - { offsetInCU: 0x265AD, offset: 0x265AD, size: 0x8, addend: 0x0, symName: __ZNSt3__117__compressed_pairINS_16__hash_node_baseIPNS_11__hash_nodeINS_17__hash_value_typeIiNS_6vectorINS_12basic_stringIcNS_11char_traitsIcEENS_9allocatorIcEEEENS8_ISA_EEEEEEPvEEEENS8_ISF_EEEC1B7v160006ILb1EvEEv, symObjAddr: 0x13838, symBinAddr: 0x1000179CC, symSize: 0x2C }
  - { offsetInCU: 0x265E2, offset: 0x265E2, size: 0x8, addend: 0x0, symName: __ZNSt3__117__compressed_pairImNS_22__unordered_map_hasherIiNS_17__hash_value_typeIiNS_6vectorINS_12basic_stringIcNS_11char_traitsIcEENS_9allocatorIcEEEENS7_IS9_EEEEEENS_4hashIiEENS_8equal_toIiEELb1EEEEC1B7v160006IiNS_18__default_init_tagEEEOT_OT0_, symObjAddr: 0x13864, symBinAddr: 0x1000179F8, symSize: 0x3C }
  - { offsetInCU: 0x2663A, offset: 0x2663A, size: 0x8, addend: 0x0, symName: __ZNSt3__117__compressed_pairIfNS_21__unordered_map_equalIiNS_17__hash_value_typeIiNS_6vectorINS_12basic_stringIcNS_11char_traitsIcEENS_9allocatorIcEEEENS7_IS9_EEEEEENS_8equal_toIiEENS_4hashIiEELb1EEEEC1B7v160006IfNS_18__default_init_tagEEEOT_OT0_, symObjAddr: 0x138A0, symBinAddr: 0x100017A34, symSize: 0x3C }
  - { offsetInCU: 0x26692, offset: 0x26692, size: 0x8, addend: 0x0, symName: __ZNSt3__110unique_ptrIA_PNS_16__hash_node_baseIPNS_11__hash_nodeINS_17__hash_value_typeIiNS_6vectorINS_12basic_stringIcNS_11char_traitsIcEENS_9allocatorIcEEEENS8_ISA_EEEEEEPvEEEENS_25__bucket_list_deallocatorINS8_ISI_EEEEEC2B7v160006ILb1EvEEv, symObjAddr: 0x138DC, symBinAddr: 0x100017A70, symSize: 0x3C }
  - { offsetInCU: 0x266C7, offset: 0x266C7, size: 0x8, addend: 0x0, symName: __ZNSt3__117__compressed_pairIPPNS_16__hash_node_baseIPNS_11__hash_nodeINS_17__hash_value_typeIiNS_6vectorINS_12basic_stringIcNS_11char_traitsIcEENS_9allocatorIcEEEENS8_ISA_EEEEEEPvEEEENS_25__bucket_list_deallocatorINS8_ISI_EEEEEC1B7v160006INS_16__value_init_tagESP_EEOT_OT0_, symObjAddr: 0x13918, symBinAddr: 0x100017AAC, symSize: 0x3C }
  - { offsetInCU: 0x2671F, offset: 0x2671F, size: 0x8, addend: 0x0, symName: __ZNSt3__117__compressed_pairIPPNS_16__hash_node_baseIPNS_11__hash_nodeINS_17__hash_value_typeIiNS_6vectorINS_12basic_stringIcNS_11char_traitsIcEENS_9allocatorIcEEEENS8_ISA_EEEEEEPvEEEENS_25__bucket_list_deallocatorINS8_ISI_EEEEEC2B7v160006INS_16__value_init_tagESP_EEOT_OT0_, symObjAddr: 0x13954, symBinAddr: 0x100017AE8, symSize: 0x40 }
  - { offsetInCU: 0x26777, offset: 0x26777, size: 0x8, addend: 0x0, symName: __ZNSt3__122__compressed_pair_elemIPPNS_16__hash_node_baseIPNS_11__hash_nodeINS_17__hash_value_typeIiNS_6vectorINS_12basic_stringIcNS_11char_traitsIcEENS_9allocatorIcEEEENS8_ISA_EEEEEEPvEEEELi0ELb0EEC2B7v160006ENS_16__value_init_tagE, symObjAddr: 0x13994, symBinAddr: 0x100017B28, symSize: 0x18 }
  - { offsetInCU: 0x267AC, offset: 0x267AC, size: 0x8, addend: 0x0, symName: __ZNSt3__122__compressed_pair_elemINS_25__bucket_list_deallocatorINS_9allocatorIPNS_16__hash_node_baseIPNS_11__hash_nodeINS_17__hash_value_typeIiNS_6vectorINS_12basic_stringIcNS_11char_traitsIcEENS2_IcEEEENS2_ISB_EEEEEEPvEEEEEEEELi1ELb0EEC2B7v160006ENS_16__value_init_tagE, symObjAddr: 0x139AC, symBinAddr: 0x100017B40, symSize: 0x2C }
  - { offsetInCU: 0x267E1, offset: 0x267E1, size: 0x8, addend: 0x0, symName: __ZNSt3__125__bucket_list_deallocatorINS_9allocatorIPNS_16__hash_node_baseIPNS_11__hash_nodeINS_17__hash_value_typeIiNS_6vectorINS_12basic_stringIcNS_11char_traitsIcEENS1_IcEEEENS1_ISA_EEEEEEPvEEEEEEEC1B7v160006Ev, symObjAddr: 0x139D8, symBinAddr: 0x100017B6C, symSize: 0x2C }
  - { offsetInCU: 0x2680B, offset: 0x2680B, size: 0x8, addend: 0x0, symName: __ZNSt3__125__bucket_list_deallocatorINS_9allocatorIPNS_16__hash_node_baseIPNS_11__hash_nodeINS_17__hash_value_typeIiNS_6vectorINS_12basic_stringIcNS_11char_traitsIcEENS1_IcEEEENS1_ISA_EEEEEEPvEEEEEEEC2B7v160006Ev, symObjAddr: 0x13A04, symBinAddr: 0x100017B98, symSize: 0x40 }
  - { offsetInCU: 0x26835, offset: 0x26835, size: 0x8, addend: 0x0, symName: __ZNSt3__117__compressed_pairImNS_9allocatorIPNS_16__hash_node_baseIPNS_11__hash_nodeINS_17__hash_value_typeIiNS_6vectorINS_12basic_stringIcNS_11char_traitsIcEENS1_IcEEEENS1_ISA_EEEEEEPvEEEEEEEC1B7v160006IiNS_18__default_init_tagEEEOT_OT0_, symObjAddr: 0x13A44, symBinAddr: 0x100017BD8, symSize: 0x3C }
  - { offsetInCU: 0x2688D, offset: 0x2688D, size: 0x8, addend: 0x0, symName: __ZNSt3__117__compressed_pairImNS_9allocatorIPNS_16__hash_node_baseIPNS_11__hash_nodeINS_17__hash_value_typeIiNS_6vectorINS_12basic_stringIcNS_11char_traitsIcEENS1_IcEEEENS1_ISA_EEEEEEPvEEEEEEEC2B7v160006IiNS_18__default_init_tagEEEOT_OT0_, symObjAddr: 0x13A80, symBinAddr: 0x100017C14, symSize: 0x40 }
  - { offsetInCU: 0x268E5, offset: 0x268E5, size: 0x8, addend: 0x0, symName: __ZNSt3__122__compressed_pair_elemINS_9allocatorIPNS_16__hash_node_baseIPNS_11__hash_nodeINS_17__hash_value_typeIiNS_6vectorINS_12basic_stringIcNS_11char_traitsIcEENS1_IcEEEENS1_ISA_EEEEEEPvEEEEEELi1ELb1EEC2B7v160006ENS_18__default_init_tagE, symObjAddr: 0x13AC0, symBinAddr: 0x100017C54, symSize: 0x2C }
  - { offsetInCU: 0x2691A, offset: 0x2691A, size: 0x8, addend: 0x0, symName: __ZNSt3__19allocatorIPNS_16__hash_node_baseIPNS_11__hash_nodeINS_17__hash_value_typeIiNS_6vectorINS_12basic_stringIcNS_11char_traitsIcEENS0_IcEEEENS0_IS9_EEEEEEPvEEEEEC2B7v160006Ev, symObjAddr: 0x13AEC, symBinAddr: 0x100017C80, symSize: 0x2C }
  - { offsetInCU: 0x26944, offset: 0x26944, size: 0x8, addend: 0x0, symName: __ZNSt3__116__non_trivial_ifILb1ENS_9allocatorIPNS_16__hash_node_baseIPNS_11__hash_nodeINS_17__hash_value_typeIiNS_6vectorINS_12basic_stringIcNS_11char_traitsIcEENS1_IcEEEENS1_ISA_EEEEEEPvEEEEEEEC2B7v160006Ev, symObjAddr: 0x13B18, symBinAddr: 0x100017CAC, symSize: 0x14 }
  - { offsetInCU: 0x2696E, offset: 0x2696E, size: 0x8, addend: 0x0, symName: __ZNSt3__117__compressed_pairINS_16__hash_node_baseIPNS_11__hash_nodeINS_17__hash_value_typeIiNS_6vectorINS_12basic_stringIcNS_11char_traitsIcEENS_9allocatorIcEEEENS8_ISA_EEEEEEPvEEEENS8_ISF_EEEC2B7v160006ILb1EvEEv, symObjAddr: 0x13B2C, symBinAddr: 0x100017CC0, symSize: 0x34 }
  - { offsetInCU: 0x269A3, offset: 0x269A3, size: 0x8, addend: 0x0, symName: __ZNSt3__122__compressed_pair_elemINS_16__hash_node_baseIPNS_11__hash_nodeINS_17__hash_value_typeIiNS_6vectorINS_12basic_stringIcNS_11char_traitsIcEENS_9allocatorIcEEEENS8_ISA_EEEEEEPvEEEELi0ELb0EEC2B7v160006ENS_16__value_init_tagE, symObjAddr: 0x13B60, symBinAddr: 0x100017CF4, symSize: 0x2C }
  - { offsetInCU: 0x269D8, offset: 0x269D8, size: 0x8, addend: 0x0, symName: __ZNSt3__122__compressed_pair_elemINS_9allocatorINS_11__hash_nodeINS_17__hash_value_typeIiNS_6vectorINS_12basic_stringIcNS_11char_traitsIcEENS1_IcEEEENS1_IS9_EEEEEEPvEEEELi1ELb1EEC2B7v160006ENS_16__value_init_tagE, symObjAddr: 0x13B8C, symBinAddr: 0x100017D20, symSize: 0x2C }
  - { offsetInCU: 0x26A0D, offset: 0x26A0D, size: 0x8, addend: 0x0, symName: __ZNSt3__116__hash_node_baseIPNS_11__hash_nodeINS_17__hash_value_typeIiNS_6vectorINS_12basic_stringIcNS_11char_traitsIcEENS_9allocatorIcEEEENS7_IS9_EEEEEEPvEEEC1B7v160006Ev, symObjAddr: 0x13BB8, symBinAddr: 0x100017D4C, symSize: 0x2C }
  - { offsetInCU: 0x26A37, offset: 0x26A37, size: 0x8, addend: 0x0, symName: __ZNSt3__116__hash_node_baseIPNS_11__hash_nodeINS_17__hash_value_typeIiNS_6vectorINS_12basic_stringIcNS_11char_traitsIcEENS_9allocatorIcEEEENS7_IS9_EEEEEEPvEEEC2B7v160006Ev, symObjAddr: 0x13BE4, symBinAddr: 0x100017D78, symSize: 0x18 }
  - { offsetInCU: 0x26A61, offset: 0x26A61, size: 0x8, addend: 0x0, symName: __ZNSt3__19allocatorINS_11__hash_nodeINS_17__hash_value_typeIiNS_6vectorINS_12basic_stringIcNS_11char_traitsIcEENS0_IcEEEENS0_IS8_EEEEEEPvEEEC2B7v160006Ev, symObjAddr: 0x13BFC, symBinAddr: 0x100017D90, symSize: 0x2C }
  - { offsetInCU: 0x26A8B, offset: 0x26A8B, size: 0x8, addend: 0x0, symName: __ZNSt3__116__non_trivial_ifILb1ENS_9allocatorINS_11__hash_nodeINS_17__hash_value_typeIiNS_6vectorINS_12basic_stringIcNS_11char_traitsIcEENS1_IcEEEENS1_IS9_EEEEEEPvEEEEEC2B7v160006Ev, symObjAddr: 0x13C28, symBinAddr: 0x100017DBC, symSize: 0x14 }
  - { offsetInCU: 0x26AB5, offset: 0x26AB5, size: 0x8, addend: 0x0, symName: __ZNSt3__117__compressed_pairImNS_22__unordered_map_hasherIiNS_17__hash_value_typeIiNS_6vectorINS_12basic_stringIcNS_11char_traitsIcEENS_9allocatorIcEEEENS7_IS9_EEEEEENS_4hashIiEENS_8equal_toIiEELb1EEEEC2B7v160006IiNS_18__default_init_tagEEEOT_OT0_, symObjAddr: 0x13C3C, symBinAddr: 0x100017DD0, symSize: 0x40 }
  - { offsetInCU: 0x26B0D, offset: 0x26B0D, size: 0x8, addend: 0x0, symName: __ZNSt3__122__compressed_pair_elemINS_22__unordered_map_hasherIiNS_17__hash_value_typeIiNS_6vectorINS_12basic_stringIcNS_11char_traitsIcEENS_9allocatorIcEEEENS7_IS9_EEEEEENS_4hashIiEENS_8equal_toIiEELb1EEELi1ELb1EEC2B7v160006ENS_18__default_init_tagE, symObjAddr: 0x13C7C, symBinAddr: 0x100017E10, symSize: 0x2C }
  - { offsetInCU: 0x26B42, offset: 0x26B42, size: 0x8, addend: 0x0, symName: __ZNSt3__122__unordered_map_hasherIiNS_17__hash_value_typeIiNS_6vectorINS_12basic_stringIcNS_11char_traitsIcEENS_9allocatorIcEEEENS6_IS8_EEEEEENS_4hashIiEENS_8equal_toIiEELb1EEC2B7v160006Ev, symObjAddr: 0x13CA8, symBinAddr: 0x100017E3C, symSize: 0x14 }
  - { offsetInCU: 0x26B6C, offset: 0x26B6C, size: 0x8, addend: 0x0, symName: __ZNSt3__117__compressed_pairIfNS_21__unordered_map_equalIiNS_17__hash_value_typeIiNS_6vectorINS_12basic_stringIcNS_11char_traitsIcEENS_9allocatorIcEEEENS7_IS9_EEEEEENS_8equal_toIiEENS_4hashIiEELb1EEEEC2B7v160006IfNS_18__default_init_tagEEEOT_OT0_, symObjAddr: 0x13CBC, symBinAddr: 0x100017E50, symSize: 0x40 }
  - { offsetInCU: 0x26BC4, offset: 0x26BC4, size: 0x8, addend: 0x0, symName: __ZNSt3__122__compressed_pair_elemINS_21__unordered_map_equalIiNS_17__hash_value_typeIiNS_6vectorINS_12basic_stringIcNS_11char_traitsIcEENS_9allocatorIcEEEENS7_IS9_EEEEEENS_8equal_toIiEENS_4hashIiEELb1EEELi1ELb1EEC2B7v160006ENS_18__default_init_tagE, symObjAddr: 0x13CFC, symBinAddr: 0x100017E90, symSize: 0x2C }
  - { offsetInCU: 0x26BF9, offset: 0x26BF9, size: 0x8, addend: 0x0, symName: __ZNSt3__121__unordered_map_equalIiNS_17__hash_value_typeIiNS_6vectorINS_12basic_stringIcNS_11char_traitsIcEENS_9allocatorIcEEEENS6_IS8_EEEEEENS_8equal_toIiEENS_4hashIiEELb1EEC2B7v160006Ev, symObjAddr: 0x13D28, symBinAddr: 0x100017EBC, symSize: 0x14 }
  - { offsetInCU: 0x26C23, offset: 0x26C23, size: 0x8, addend: 0x0, symName: __ZNSt3__112__hash_tableINS_17__hash_value_typeINS_12basic_stringIcNS_11char_traitsIcEENS_9allocatorIcEEEEiEENS_22__unordered_map_hasherIS7_S8_NS_4hashIS7_EENS_8equal_toIS7_EELb1EEENS_21__unordered_map_equalIS7_S8_SD_SB_Lb1EEENS5_IS8_EEE5beginEv, symObjAddr: 0x13D3C, symBinAddr: 0x100017ED0, symSize: 0x40 }
  - { offsetInCU: 0x26C4B, offset: 0x26C4B, size: 0x8, addend: 0x0, symName: __ZNSt3__119__hash_map_iteratorINS_15__hash_iteratorIPNS_11__hash_nodeINS_17__hash_value_typeINS_12basic_stringIcNS_11char_traitsIcEENS_9allocatorIcEEEEiEEPvEEEEEC1B7v160006ESE_, symObjAddr: 0x13D7C, symBinAddr: 0x100017F10, symSize: 0x34 }
  - { offsetInCU: 0x26C84, offset: 0x26C84, size: 0x8, addend: 0x0, symName: __ZNSt3__119__hash_map_iteratorINS_15__hash_iteratorIPNS_11__hash_nodeINS_17__hash_value_typeINS_12basic_stringIcNS_11char_traitsIcEENS_9allocatorIcEEEEiEEPvEEEEEC2B7v160006ESE_, symObjAddr: 0x13DB0, symBinAddr: 0x100017F44, symSize: 0x20 }
  - { offsetInCU: 0x26CBD, offset: 0x26CBD, size: 0x8, addend: 0x0, symName: __ZNSt3__112__hash_tableINS_17__hash_value_typeINS_12basic_stringIcNS_11char_traitsIcEENS_9allocatorIcEEEEiEENS_22__unordered_map_hasherIS7_S8_NS_4hashIS7_EENS_8equal_toIS7_EELb1EEENS_21__unordered_map_equalIS7_S8_SD_SB_Lb1EEENS5_IS8_EEE3endEv, symObjAddr: 0x13DD0, symBinAddr: 0x100017F64, symSize: 0x30 }
  - { offsetInCU: 0x26CE5, offset: 0x26CE5, size: 0x8, addend: 0x0, symName: __ZNSt3__110__get_pairILm0EE3getB7v160006IKNS_12basic_stringIcNS_11char_traitsIcEENS_9allocatorIcEEEEiEERKT_RKNS_4pairISA_T0_EE, symObjAddr: 0x13E64, symBinAddr: 0x100017FF8, symSize: 0x14 }
  - { offsetInCU: 0x26D1B, offset: 0x26D1B, size: 0x8, addend: 0x0, symName: __ZNSt3__110__get_pairILm1EE3getB7v160006IKNS_12basic_stringIcNS_11char_traitsIcEENS_9allocatorIcEEEEiEERKT0_RKNS_4pairIT_SA_EE, symObjAddr: 0x13E78, symBinAddr: 0x10001800C, symSize: 0x18 }
  - { offsetInCU: 0x26D51, offset: 0x26D51, size: 0x8, addend: 0x0, symName: __ZNSt3__112__hash_tableINS_17__hash_value_typeIiNS_6vectorINS_12basic_stringIcNS_11char_traitsIcEENS_9allocatorIcEEEENS6_IS8_EEEEEENS_22__unordered_map_hasherIiSB_NS_4hashIiEENS_8equal_toIiEELb1EEENS_21__unordered_map_equalIiSB_SG_SE_Lb1EEENS6_ISB_EEE25__emplace_unique_key_argsIiJRKNS_21piecewise_construct_tENS_5tupleIJOiEEENSQ_IJEEEEEENS_4pairINS_15__hash_iteratorIPNS_11__hash_nodeISB_PvEEEEbEERKT_DpOT0_, symObjAddr: 0x13E90, symBinAddr: 0x100018024, symSize: 0x4B4 }
  - { offsetInCU: 0x26E5A, offset: 0x26E5A, size: 0x8, addend: 0x0, symName: __ZNKSt3__115__hash_iteratorIPNS_11__hash_nodeINS_17__hash_value_typeIiNS_6vectorINS_12basic_stringIcNS_11char_traitsIcEENS_9allocatorIcEEEENS7_IS9_EEEEEEPvEEEptB7v160006Ev, symObjAddr: 0x14370, symBinAddr: 0x100018504, symSize: 0x30 }
  - { offsetInCU: 0x26E80, offset: 0x26E80, size: 0x8, addend: 0x0, symName: __ZNSt3__117__hash_value_typeIiNS_6vectorINS_12basic_stringIcNS_11char_traitsIcEENS_9allocatorIcEEEENS5_IS7_EEEEE11__get_valueB7v160006Ev, symObjAddr: 0x143A0, symBinAddr: 0x100018534, symSize: 0x24 }
  - { offsetInCU: 0x26EA6, offset: 0x26EA6, size: 0x8, addend: 0x0, symName: __ZNSt3__112__hash_tableINS_17__hash_value_typeIiNS_6vectorINS_12basic_stringIcNS_11char_traitsIcEENS_9allocatorIcEEEENS6_IS8_EEEEEENS_22__unordered_map_hasherIiSB_NS_4hashIiEENS_8equal_toIiEELb1EEENS_21__unordered_map_equalIiSB_SG_SE_Lb1EEENS6_ISB_EEE13hash_functionB7v160006Ev, symObjAddr: 0x143C4, symBinAddr: 0x100018558, symSize: 0x28 }
  - { offsetInCU: 0x26ECC, offset: 0x26ECC, size: 0x8, addend: 0x0, symName: __ZNKSt3__122__unordered_map_hasherIiNS_17__hash_value_typeIiNS_6vectorINS_12basic_stringIcNS_11char_traitsIcEENS_9allocatorIcEEEENS6_IS8_EEEEEENS_4hashIiEENS_8equal_toIiEELb1EEclB7v160006ERKi, symObjAddr: 0x143EC, symBinAddr: 0x100018580, symSize: 0x30 }
  - { offsetInCU: 0x26F01, offset: 0x26F01, size: 0x8, addend: 0x0, symName: __ZNKSt3__112__hash_tableINS_17__hash_value_typeIiNS_6vectorINS_12basic_stringIcNS_11char_traitsIcEENS_9allocatorIcEEEENS6_IS8_EEEEEENS_22__unordered_map_hasherIiSB_NS_4hashIiEENS_8equal_toIiEELb1EEENS_21__unordered_map_equalIiSB_SG_SE_Lb1EEENS6_ISB_EEE12bucket_countB7v160006Ev, symObjAddr: 0x1441C, symBinAddr: 0x1000185B0, symSize: 0x28 }
  - { offsetInCU: 0x26F27, offset: 0x26F27, size: 0x8, addend: 0x0, symName: __ZNKSt3__110unique_ptrIA_PNS_16__hash_node_baseIPNS_11__hash_nodeINS_17__hash_value_typeIiNS_6vectorINS_12basic_stringIcNS_11char_traitsIcEENS_9allocatorIcEEEENS8_ISA_EEEEEEPvEEEENS_25__bucket_list_deallocatorINS8_ISI_EEEEEixB7v160006Em, symObjAddr: 0x14444, symBinAddr: 0x1000185D8, symSize: 0x34 }
  - { offsetInCU: 0x26F5C, offset: 0x26F5C, size: 0x8, addend: 0x0, symName: __ZNKSt3__116__hash_node_baseIPNS_11__hash_nodeINS_17__hash_value_typeIiNS_6vectorINS_12basic_stringIcNS_11char_traitsIcEENS_9allocatorIcEEEENS7_IS9_EEEEEEPvEEE6__hashB7v160006Ev, symObjAddr: 0x14478, symBinAddr: 0x10001860C, symSize: 0x18 }
  - { offsetInCU: 0x26F82, offset: 0x26F82, size: 0x8, addend: 0x0, symName: __ZNSt3__112__hash_tableINS_17__hash_value_typeIiNS_6vectorINS_12basic_stringIcNS_11char_traitsIcEENS_9allocatorIcEEEENS6_IS8_EEEEEENS_22__unordered_map_hasherIiSB_NS_4hashIiEENS_8equal_toIiEELb1EEENS_21__unordered_map_equalIiSB_SG_SE_Lb1EEENS6_ISB_EEE6key_eqB7v160006Ev, symObjAddr: 0x14490, symBinAddr: 0x100018624, symSize: 0x28 }
  - { offsetInCU: 0x26FA8, offset: 0x26FA8, size: 0x8, addend: 0x0, symName: __ZNKSt3__121__unordered_map_equalIiNS_17__hash_value_typeIiNS_6vectorINS_12basic_stringIcNS_11char_traitsIcEENS_9allocatorIcEEEENS6_IS8_EEEEEENS_8equal_toIiEENS_4hashIiEELb1EEclB7v160006ERKSB_RKi, symObjAddr: 0x144B8, symBinAddr: 0x10001864C, symSize: 0x48 }
  - { offsetInCU: 0x26FEC, offset: 0x26FEC, size: 0x8, addend: 0x0, symName: __ZNSt3__116__hash_node_baseIPNS_11__hash_nodeINS_17__hash_value_typeIiNS_6vectorINS_12basic_stringIcNS_11char_traitsIcEENS_9allocatorIcEEEENS7_IS9_EEEEEEPvEEE8__upcastB7v160006Ev, symObjAddr: 0x14500, symBinAddr: 0x100018694, symSize: 0x24 }
  - { offsetInCU: 0x27012, offset: 0x27012, size: 0x8, addend: 0x0, symName: __ZNSt3__112__hash_tableINS_17__hash_value_typeIiNS_6vectorINS_12basic_stringIcNS_11char_traitsIcEENS_9allocatorIcEEEENS6_IS8_EEEEEENS_22__unordered_map_hasherIiSB_NS_4hashIiEENS_8equal_toIiEELb1EEENS_21__unordered_map_equalIiSB_SG_SE_Lb1EEENS6_ISB_EEE21__construct_node_hashIRKNS_21piecewise_construct_tEJNS_5tupleIJOiEEENSQ_IJEEEEEENS_10unique_ptrINS_11__hash_nodeISB_PvEENS_22__hash_node_destructorINS6_ISX_EEEEEEmOT_DpOT0_, symObjAddr: 0x14524, symBinAddr: 0x1000186B8, symSize: 0x150 }
  - { offsetInCU: 0x270AE, offset: 0x270AE, size: 0x8, addend: 0x0, symName: __ZNSt3__112__hash_tableINS_17__hash_value_typeIiNS_6vectorINS_12basic_stringIcNS_11char_traitsIcEENS_9allocatorIcEEEENS6_IS8_EEEEEENS_22__unordered_map_hasherIiSB_NS_4hashIiEENS_8equal_toIiEELb1EEENS_21__unordered_map_equalIiSB_SG_SE_Lb1EEENS6_ISB_EEE4sizeB7v160006Ev, symObjAddr: 0x14674, symBinAddr: 0x100018808, symSize: 0x28 }
  - { offsetInCU: 0x270D4, offset: 0x270D4, size: 0x8, addend: 0x0, symName: __ZNSt3__112__hash_tableINS_17__hash_value_typeIiNS_6vectorINS_12basic_stringIcNS_11char_traitsIcEENS_9allocatorIcEEEENS6_IS8_EEEEEENS_22__unordered_map_hasherIiSB_NS_4hashIiEENS_8equal_toIiEELb1EEENS_21__unordered_map_equalIiSB_SG_SE_Lb1EEENS6_ISB_EEE15max_load_factorB7v160006Ev, symObjAddr: 0x1469C, symBinAddr: 0x100018830, symSize: 0x28 }
  - { offsetInCU: 0x270FA, offset: 0x270FA, size: 0x8, addend: 0x0, symName: __ZNSt3__112__hash_tableINS_17__hash_value_typeIiNS_6vectorINS_12basic_stringIcNS_11char_traitsIcEENS_9allocatorIcEEEENS6_IS8_EEEEEENS_22__unordered_map_hasherIiSB_NS_4hashIiEENS_8equal_toIiEELb1EEENS_21__unordered_map_equalIiSB_SG_SE_Lb1EEENS6_ISB_EEE15__rehash_uniqueB7v160006Em, symObjAddr: 0x146C4, symBinAddr: 0x100018858, symSize: 0x2C }
  - { offsetInCU: 0x2712F, offset: 0x2712F, size: 0x8, addend: 0x0, symName: __ZNSt3__117__compressed_pairINS_16__hash_node_baseIPNS_11__hash_nodeINS_17__hash_value_typeIiNS_6vectorINS_12basic_stringIcNS_11char_traitsIcEENS_9allocatorIcEEEENS8_ISA_EEEEEEPvEEEENS8_ISF_EEE5firstB7v160006Ev, symObjAddr: 0x146F0, symBinAddr: 0x100018884, symSize: 0x24 }
  - { offsetInCU: 0x27155, offset: 0x27155, size: 0x8, addend: 0x0, symName: __ZNSt3__116__hash_node_baseIPNS_11__hash_nodeINS_17__hash_value_typeIiNS_6vectorINS_12basic_stringIcNS_11char_traitsIcEENS_9allocatorIcEEEENS7_IS9_EEEEEEPvEEE5__ptrB7v160006Ev, symObjAddr: 0x14714, symBinAddr: 0x1000188A8, symSize: 0x24 }
  - { offsetInCU: 0x2717B, offset: 0x2717B, size: 0x8, addend: 0x0, symName: __ZNKSt3__110unique_ptrINS_11__hash_nodeINS_17__hash_value_typeIiNS_6vectorINS_12basic_stringIcNS_11char_traitsIcEENS_9allocatorIcEEEENS7_IS9_EEEEEEPvEENS_22__hash_node_destructorINS7_ISE_EEEEEptB7v160006Ev, symObjAddr: 0x14738, symBinAddr: 0x1000188CC, symSize: 0x28 }
  - { offsetInCU: 0x271A1, offset: 0x271A1, size: 0x8, addend: 0x0, symName: __ZNKSt3__110unique_ptrINS_11__hash_nodeINS_17__hash_value_typeIiNS_6vectorINS_12basic_stringIcNS_11char_traitsIcEENS_9allocatorIcEEEENS7_IS9_EEEEEEPvEENS_22__hash_node_destructorINS7_ISE_EEEEE3getB7v160006Ev, symObjAddr: 0x14760, symBinAddr: 0x1000188F4, symSize: 0x28 }
  - { offsetInCU: 0x271C7, offset: 0x271C7, size: 0x8, addend: 0x0, symName: __ZNSt3__110unique_ptrINS_11__hash_nodeINS_17__hash_value_typeIiNS_6vectorINS_12basic_stringIcNS_11char_traitsIcEENS_9allocatorIcEEEENS7_IS9_EEEEEEPvEENS_22__hash_node_destructorINS7_ISE_EEEEE7releaseB7v160006Ev, symObjAddr: 0x14788, symBinAddr: 0x10001891C, symSize: 0x44 }
  - { offsetInCU: 0x271FC, offset: 0x271FC, size: 0x8, addend: 0x0, symName: __ZNSt3__110unique_ptrINS_11__hash_nodeINS_17__hash_value_typeIiNS_6vectorINS_12basic_stringIcNS_11char_traitsIcEENS_9allocatorIcEEEENS7_IS9_EEEEEEPvEENS_22__hash_node_destructorINS7_ISE_EEEEED1B7v160006Ev, symObjAddr: 0x147CC, symBinAddr: 0x100018960, symSize: 0x2C }
  - { offsetInCU: 0x27226, offset: 0x27226, size: 0x8, addend: 0x0, symName: __ZNSt3__115__hash_iteratorIPNS_11__hash_nodeINS_17__hash_value_typeIiNS_6vectorINS_12basic_stringIcNS_11char_traitsIcEENS_9allocatorIcEEEENS7_IS9_EEEEEEPvEEEC1B7v160006EPNS_16__hash_node_baseISF_EEPKv, symObjAddr: 0x147F8, symBinAddr: 0x10001898C, symSize: 0x3C }
  - { offsetInCU: 0x27274, offset: 0x27274, size: 0x8, addend: 0x0, symName: __ZNSt3__14pairINS_15__hash_iteratorIPNS_11__hash_nodeINS_17__hash_value_typeIiNS_6vectorINS_12basic_stringIcNS_11char_traitsIcEENS_9allocatorIcEEEENS8_ISA_EEEEEEPvEEEEbEC1B7v160006ISH_RbLSE_0EEEOT_OT0_, symObjAddr: 0x14834, symBinAddr: 0x1000189C8, symSize: 0x3C }
  - { offsetInCU: 0x272D2, offset: 0x272D2, size: 0x8, addend: 0x0, symName: __ZNSt3__117__compressed_pairImNS_22__unordered_map_hasherIiNS_17__hash_value_typeIiNS_6vectorINS_12basic_stringIcNS_11char_traitsIcEENS_9allocatorIcEEEENS7_IS9_EEEEEENS_4hashIiEENS_8equal_toIiEELb1EEEE6secondB7v160006Ev, symObjAddr: 0x14870, symBinAddr: 0x100018A04, symSize: 0x24 }
  - { offsetInCU: 0x272F8, offset: 0x272F8, size: 0x8, addend: 0x0, symName: __ZNSt3__122__compressed_pair_elemINS_22__unordered_map_hasherIiNS_17__hash_value_typeIiNS_6vectorINS_12basic_stringIcNS_11char_traitsIcEENS_9allocatorIcEEEENS7_IS9_EEEEEENS_4hashIiEENS_8equal_toIiEELb1EEELi1ELb1EE5__getB7v160006Ev, symObjAddr: 0x14894, symBinAddr: 0x100018A28, symSize: 0x14 }
  - { offsetInCU: 0x2731E, offset: 0x2731E, size: 0x8, addend: 0x0, symName: __ZNKSt3__14hashIiEclB7v160006Ei, symObjAddr: 0x148A8, symBinAddr: 0x100018A3C, symSize: 0x18 }
  - { offsetInCU: 0x27353, offset: 0x27353, size: 0x8, addend: 0x0, symName: __ZNKSt3__110unique_ptrIA_PNS_16__hash_node_baseIPNS_11__hash_nodeINS_17__hash_value_typeIiNS_6vectorINS_12basic_stringIcNS_11char_traitsIcEENS_9allocatorIcEEEENS8_ISA_EEEEEEPvEEEENS_25__bucket_list_deallocatorINS8_ISI_EEEEE11get_deleterB7v160006Ev, symObjAddr: 0x148C0, symBinAddr: 0x100018A54, symSize: 0x24 }
  - { offsetInCU: 0x27379, offset: 0x27379, size: 0x8, addend: 0x0, symName: __ZNKSt3__125__bucket_list_deallocatorINS_9allocatorIPNS_16__hash_node_baseIPNS_11__hash_nodeINS_17__hash_value_typeIiNS_6vectorINS_12basic_stringIcNS_11char_traitsIcEENS1_IcEEEENS1_ISA_EEEEEEPvEEEEEEE4sizeB7v160006Ev, symObjAddr: 0x148E4, symBinAddr: 0x100018A78, symSize: 0x28 }
  - { offsetInCU: 0x2739F, offset: 0x2739F, size: 0x8, addend: 0x0, symName: __ZNKSt3__117__compressed_pairIPPNS_16__hash_node_baseIPNS_11__hash_nodeINS_17__hash_value_typeIiNS_6vectorINS_12basic_stringIcNS_11char_traitsIcEENS_9allocatorIcEEEENS8_ISA_EEEEEEPvEEEENS_25__bucket_list_deallocatorINS8_ISI_EEEEE6secondB7v160006Ev, symObjAddr: 0x1490C, symBinAddr: 0x100018AA0, symSize: 0x28 }
  - { offsetInCU: 0x273C5, offset: 0x273C5, size: 0x8, addend: 0x0, symName: __ZNKSt3__122__compressed_pair_elemINS_25__bucket_list_deallocatorINS_9allocatorIPNS_16__hash_node_baseIPNS_11__hash_nodeINS_17__hash_value_typeIiNS_6vectorINS_12basic_stringIcNS_11char_traitsIcEENS2_IcEEEENS2_ISB_EEEEEEPvEEEEEEEELi1ELb0EE5__getB7v160006Ev, symObjAddr: 0x14934, symBinAddr: 0x100018AC8, symSize: 0x14 }
  - { offsetInCU: 0x273EB, offset: 0x273EB, size: 0x8, addend: 0x0, symName: __ZNKSt3__117__compressed_pairImNS_9allocatorIPNS_16__hash_node_baseIPNS_11__hash_nodeINS_17__hash_value_typeIiNS_6vectorINS_12basic_stringIcNS_11char_traitsIcEENS1_IcEEEENS1_ISA_EEEEEEPvEEEEEEE5firstB7v160006Ev, symObjAddr: 0x14948, symBinAddr: 0x100018ADC, symSize: 0x24 }
  - { offsetInCU: 0x27411, offset: 0x27411, size: 0x8, addend: 0x0, symName: __ZNKSt3__117__compressed_pairIPPNS_16__hash_node_baseIPNS_11__hash_nodeINS_17__hash_value_typeIiNS_6vectorINS_12basic_stringIcNS_11char_traitsIcEENS_9allocatorIcEEEENS8_ISA_EEEEEEPvEEEENS_25__bucket_list_deallocatorINS8_ISI_EEEEE5firstB7v160006Ev, symObjAddr: 0x1496C, symBinAddr: 0x100018B00, symSize: 0x24 }
  - { offsetInCU: 0x27437, offset: 0x27437, size: 0x8, addend: 0x0, symName: __ZNKSt3__122__compressed_pair_elemIPPNS_16__hash_node_baseIPNS_11__hash_nodeINS_17__hash_value_typeIiNS_6vectorINS_12basic_stringIcNS_11char_traitsIcEENS_9allocatorIcEEEENS8_ISA_EEEEEEPvEEEELi0ELb0EE5__getB7v160006Ev, symObjAddr: 0x14990, symBinAddr: 0x100018B24, symSize: 0x14 }
  - { offsetInCU: 0x2745D, offset: 0x2745D, size: 0x8, addend: 0x0, symName: __ZNSt3__117__compressed_pairIfNS_21__unordered_map_equalIiNS_17__hash_value_typeIiNS_6vectorINS_12basic_stringIcNS_11char_traitsIcEENS_9allocatorIcEEEENS7_IS9_EEEEEENS_8equal_toIiEENS_4hashIiEELb1EEEE6secondB7v160006Ev, symObjAddr: 0x149A4, symBinAddr: 0x100018B38, symSize: 0x24 }
  - { offsetInCU: 0x27483, offset: 0x27483, size: 0x8, addend: 0x0, symName: __ZNSt3__122__compressed_pair_elemINS_21__unordered_map_equalIiNS_17__hash_value_typeIiNS_6vectorINS_12basic_stringIcNS_11char_traitsIcEENS_9allocatorIcEEEENS7_IS9_EEEEEENS_8equal_toIiEENS_4hashIiEELb1EEELi1ELb1EE5__getB7v160006Ev, symObjAddr: 0x149C8, symBinAddr: 0x100018B5C, symSize: 0x14 }
  - { offsetInCU: 0x274A9, offset: 0x274A9, size: 0x8, addend: 0x0, symName: __ZNKSt3__18equal_toIiEclB7v160006ERKiS3_, symObjAddr: 0x149DC, symBinAddr: 0x100018B70, symSize: 0x34 }
  - { offsetInCU: 0x274ED, offset: 0x274ED, size: 0x8, addend: 0x0, symName: __ZNKSt3__117__hash_value_typeIiNS_6vectorINS_12basic_stringIcNS_11char_traitsIcEENS_9allocatorIcEEEENS5_IS7_EEEEE11__get_valueB7v160006Ev, symObjAddr: 0x14A10, symBinAddr: 0x100018BA4, symSize: 0x24 }
  - { offsetInCU: 0x27513, offset: 0x27513, size: 0x8, addend: 0x0, symName: __ZNSt3__114pointer_traitsIPNS_16__hash_node_baseIPNS_11__hash_nodeINS_17__hash_value_typeIiNS_6vectorINS_12basic_stringIcNS_11char_traitsIcEENS_9allocatorIcEEEENS8_ISA_EEEEEEPvEEEEE10pointer_toB7v160006ERSH_, symObjAddr: 0x14A6C, symBinAddr: 0x100018C00, symSize: 0x14 }
  - { offsetInCU: 0x27536, offset: 0x27536, size: 0x8, addend: 0x0, symName: __ZNSt3__112__hash_tableINS_17__hash_value_typeIiNS_6vectorINS_12basic_stringIcNS_11char_traitsIcEENS_9allocatorIcEEEENS6_IS8_EEEEEENS_22__unordered_map_hasherIiSB_NS_4hashIiEENS_8equal_toIiEELb1EEENS_21__unordered_map_equalIiSB_SG_SE_Lb1EEENS6_ISB_EEE12__node_allocB7v160006Ev, symObjAddr: 0x14A80, symBinAddr: 0x100018C14, symSize: 0x28 }
  - { offsetInCU: 0x2755C, offset: 0x2755C, size: 0x8, addend: 0x0, symName: __ZNSt3__116allocator_traitsINS_9allocatorINS_11__hash_nodeINS_17__hash_value_typeIiNS_6vectorINS_12basic_stringIcNS_11char_traitsIcEENS1_IcEEEENS1_IS9_EEEEEEPvEEEEE8allocateB7v160006ERSF_m, symObjAddr: 0x14AA8, symBinAddr: 0x100018C3C, symSize: 0x2C }
  - { offsetInCU: 0x2758F, offset: 0x2758F, size: 0x8, addend: 0x0, symName: __ZNSt3__122__hash_node_destructorINS_9allocatorINS_11__hash_nodeINS_17__hash_value_typeIiNS_6vectorINS_12basic_stringIcNS_11char_traitsIcEENS1_IcEEEENS1_IS9_EEEEEEPvEEEEEC1B7v160006ERSF_b, symObjAddr: 0x14AD4, symBinAddr: 0x100018C68, symSize: 0x48 }
  - { offsetInCU: 0x275DD, offset: 0x275DD, size: 0x8, addend: 0x0, symName: __ZNSt3__110unique_ptrINS_11__hash_nodeINS_17__hash_value_typeIiNS_6vectorINS_12basic_stringIcNS_11char_traitsIcEENS_9allocatorIcEEEENS7_IS9_EEEEEEPvEENS_22__hash_node_destructorINS7_ISE_EEEEEC1B7v160006ILb1EvEEPSE_NS_16__dependent_typeINS_27__unique_ptr_deleter_sfinaeISH_EEXT_EE20__good_rval_ref_typeE, symObjAddr: 0x14B1C, symBinAddr: 0x100018CB0, symSize: 0x3C }
  - { offsetInCU: 0x2762E, offset: 0x2762E, size: 0x8, addend: 0x0, symName: __ZNSt3__116allocator_traitsINS_9allocatorINS_11__hash_nodeINS_17__hash_value_typeIiNS_6vectorINS_12basic_stringIcNS_11char_traitsIcEENS1_IcEEEENS1_IS9_EEEEEEPvEEEEE9constructB7v160006INS_4pairIKiSB_EEJRKNS_21piecewise_construct_tENS_5tupleIJOiEEENSO_IJEEEEvvEEvRSF_PT_DpOT0_, symObjAddr: 0x14B58, symBinAddr: 0x100018CEC, symSize: 0x40 }
  - { offsetInCU: 0x276AA, offset: 0x276AA, size: 0x8, addend: 0x0, symName: __ZNSt3__122__hash_key_value_typesINS_17__hash_value_typeIiNS_6vectorINS_12basic_stringIcNS_11char_traitsIcEENS_9allocatorIcEEEENS6_IS8_EEEEEEE9__get_ptrB7v160006ERSB_, symObjAddr: 0x14B98, symBinAddr: 0x100018D2C, symSize: 0x24 }
  - { offsetInCU: 0x276CD, offset: 0x276CD, size: 0x8, addend: 0x0, symName: __ZNSt3__110unique_ptrINS_11__hash_nodeINS_17__hash_value_typeIiNS_6vectorINS_12basic_stringIcNS_11char_traitsIcEENS_9allocatorIcEEEENS7_IS9_EEEEEEPvEENS_22__hash_node_destructorINS7_ISE_EEEEE11get_deleterB7v160006Ev, symObjAddr: 0x14BBC, symBinAddr: 0x100018D50, symSize: 0x24 }
  - { offsetInCU: 0x276F3, offset: 0x276F3, size: 0x8, addend: 0x0, symName: __ZNSt3__117__compressed_pairINS_16__hash_node_baseIPNS_11__hash_nodeINS_17__hash_value_typeIiNS_6vectorINS_12basic_stringIcNS_11char_traitsIcEENS_9allocatorIcEEEENS8_ISA_EEEEEEPvEEEENS8_ISF_EEE6secondB7v160006Ev, symObjAddr: 0x14BE0, symBinAddr: 0x100018D74, symSize: 0x24 }
  - { offsetInCU: 0x27719, offset: 0x27719, size: 0x8, addend: 0x0, symName: __ZNSt3__122__compressed_pair_elemINS_9allocatorINS_11__hash_nodeINS_17__hash_value_typeIiNS_6vectorINS_12basic_stringIcNS_11char_traitsIcEENS1_IcEEEENS1_IS9_EEEEEEPvEEEELi1ELb1EE5__getB7v160006Ev, symObjAddr: 0x14C04, symBinAddr: 0x100018D98, symSize: 0x14 }
  - { offsetInCU: 0x2773F, offset: 0x2773F, size: 0x8, addend: 0x0, symName: __ZNSt3__19allocatorINS_11__hash_nodeINS_17__hash_value_typeIiNS_6vectorINS_12basic_stringIcNS_11char_traitsIcEENS0_IcEEEENS0_IS8_EEEEEEPvEEE8allocateB7v160006Em, symObjAddr: 0x14C18, symBinAddr: 0x100018DAC, symSize: 0x5C }
  - { offsetInCU: 0x2777E, offset: 0x2777E, size: 0x8, addend: 0x0, symName: __ZNSt3__116allocator_traitsINS_9allocatorINS_11__hash_nodeINS_17__hash_value_typeIiNS_6vectorINS_12basic_stringIcNS_11char_traitsIcEENS1_IcEEEENS1_IS9_EEEEEEPvEEEEE8max_sizeB7v160006ISF_vvEEmRKSF_, symObjAddr: 0x14C74, symBinAddr: 0x100018E08, symSize: 0x28 }
  - { offsetInCU: 0x277A9, offset: 0x277A9, size: 0x8, addend: 0x0, symName: __ZNSt3__122__hash_node_destructorINS_9allocatorINS_11__hash_nodeINS_17__hash_value_typeIiNS_6vectorINS_12basic_stringIcNS_11char_traitsIcEENS1_IcEEEENS1_IS9_EEEEEEPvEEEEEC2B7v160006ERSF_b, symObjAddr: 0x14C9C, symBinAddr: 0x100018E30, symSize: 0x38 }
  - { offsetInCU: 0x277F1, offset: 0x277F1, size: 0x8, addend: 0x0, symName: __ZNSt3__110unique_ptrINS_11__hash_nodeINS_17__hash_value_typeIiNS_6vectorINS_12basic_stringIcNS_11char_traitsIcEENS_9allocatorIcEEEENS7_IS9_EEEEEEPvEENS_22__hash_node_destructorINS7_ISE_EEEEEC2B7v160006ILb1EvEEPSE_NS_16__dependent_typeINS_27__unique_ptr_deleter_sfinaeISH_EEXT_EE20__good_rval_ref_typeE, symObjAddr: 0x14CD4, symBinAddr: 0x100018E68, symSize: 0x48 }
  - { offsetInCU: 0x27842, offset: 0x27842, size: 0x8, addend: 0x0, symName: __ZNSt3__117__compressed_pairIPNS_11__hash_nodeINS_17__hash_value_typeIiNS_6vectorINS_12basic_stringIcNS_11char_traitsIcEENS_9allocatorIcEEEENS7_IS9_EEEEEEPvEENS_22__hash_node_destructorINS7_ISE_EEEEEC1B7v160006IRSF_SI_EEOT_OT0_, symObjAddr: 0x14D1C, symBinAddr: 0x100018EB0, symSize: 0x3C }
  - { offsetInCU: 0x2789A, offset: 0x2789A, size: 0x8, addend: 0x0, symName: __ZNSt3__117__compressed_pairIPNS_11__hash_nodeINS_17__hash_value_typeIiNS_6vectorINS_12basic_stringIcNS_11char_traitsIcEENS_9allocatorIcEEEENS7_IS9_EEEEEEPvEENS_22__hash_node_destructorINS7_ISE_EEEEEC2B7v160006IRSF_SI_EEOT_OT0_, symObjAddr: 0x14D58, symBinAddr: 0x100018EEC, symSize: 0x48 }
  - { offsetInCU: 0x278F2, offset: 0x278F2, size: 0x8, addend: 0x0, symName: __ZNSt3__122__compressed_pair_elemIPNS_11__hash_nodeINS_17__hash_value_typeIiNS_6vectorINS_12basic_stringIcNS_11char_traitsIcEENS_9allocatorIcEEEENS7_IS9_EEEEEEPvEELi0ELb0EEC2B7v160006IRSF_vEEOT_, symObjAddr: 0x14DA0, symBinAddr: 0x100018F34, symSize: 0x24 }
  - { offsetInCU: 0x27934, offset: 0x27934, size: 0x8, addend: 0x0, symName: __ZNSt3__122__compressed_pair_elemINS_22__hash_node_destructorINS_9allocatorINS_11__hash_nodeINS_17__hash_value_typeIiNS_6vectorINS_12basic_stringIcNS_11char_traitsIcEENS2_IcEEEENS2_ISA_EEEEEEPvEEEEEELi1ELb0EEC2B7v160006ISH_vEEOT_, symObjAddr: 0x14DC4, symBinAddr: 0x100018F58, symSize: 0x24 }
  - { offsetInCU: 0x27976, offset: 0x27976, size: 0x8, addend: 0x0, symName: __ZNSt3__14pairIKiNS_6vectorINS_12basic_stringIcNS_11char_traitsIcEENS_9allocatorIcEEEENS6_IS8_EEEEEC1B7v160006IJOiEJEEENS_21piecewise_construct_tENS_5tupleIJDpT_EEENSF_IJDpT0_EEE, symObjAddr: 0x14E38, symBinAddr: 0x100018FCC, symSize: 0x44 }
  - { offsetInCU: 0x279DD, offset: 0x279DD, size: 0x8, addend: 0x0, symName: __ZNSt3__14pairIKiNS_6vectorINS_12basic_stringIcNS_11char_traitsIcEENS_9allocatorIcEEEENS6_IS8_EEEEEC1B7v160006IJOiEJEJLm0EEJEEENS_21piecewise_construct_tERNS_5tupleIJDpT_EEERNSF_IJDpT0_EEENS_15__tuple_indicesIJXspT1_EEEENSO_IJXspT2_EEEE, symObjAddr: 0x14E7C, symBinAddr: 0x100019010, symSize: 0x3C }
  - { offsetInCU: 0x27A6A, offset: 0x27A6A, size: 0x8, addend: 0x0, symName: __ZNSt3__14pairIKiNS_6vectorINS_12basic_stringIcNS_11char_traitsIcEENS_9allocatorIcEEEENS6_IS8_EEEEEC2B7v160006IJOiEJEJLm0EEJEEENS_21piecewise_construct_tERNS_5tupleIJDpT_EEERNSF_IJDpT0_EEENS_15__tuple_indicesIJXspT1_EEEENSO_IJXspT2_EEEE, symObjAddr: 0x14EB8, symBinAddr: 0x10001904C, symSize: 0x4C }
  - { offsetInCU: 0x27AF7, offset: 0x27AF7, size: 0x8, addend: 0x0, symName: __ZNSt3__112__tuple_leafILm0EOiLb0EE3getB7v160006Ev, symObjAddr: 0x14F28, symBinAddr: 0x1000190BC, symSize: 0x18 }
  - { offsetInCU: 0x27B1D, offset: 0x27B1D, size: 0x8, addend: 0x0, symName: __ZNSt3__117__compressed_pairIPNS_11__hash_nodeINS_17__hash_value_typeIiNS_6vectorINS_12basic_stringIcNS_11char_traitsIcEENS_9allocatorIcEEEENS7_IS9_EEEEEEPvEENS_22__hash_node_destructorINS7_ISE_EEEEE6secondB7v160006Ev, symObjAddr: 0x14F40, symBinAddr: 0x1000190D4, symSize: 0x28 }
  - { offsetInCU: 0x27B43, offset: 0x27B43, size: 0x8, addend: 0x0, symName: __ZNSt3__122__compressed_pair_elemINS_22__hash_node_destructorINS_9allocatorINS_11__hash_nodeINS_17__hash_value_typeIiNS_6vectorINS_12basic_stringIcNS_11char_traitsIcEENS2_IcEEEENS2_ISA_EEEEEEPvEEEEEELi1ELb0EE5__getB7v160006Ev, symObjAddr: 0x14F68, symBinAddr: 0x1000190FC, symSize: 0x14 }
  - { offsetInCU: 0x27B69, offset: 0x27B69, size: 0x8, addend: 0x0, symName: __ZNSt3__117__compressed_pairImNS_22__unordered_map_hasherIiNS_17__hash_value_typeIiNS_6vectorINS_12basic_stringIcNS_11char_traitsIcEENS_9allocatorIcEEEENS7_IS9_EEEEEENS_4hashIiEENS_8equal_toIiEELb1EEEE5firstB7v160006Ev, symObjAddr: 0x14F7C, symBinAddr: 0x100019110, symSize: 0x24 }
  - { offsetInCU: 0x27B8F, offset: 0x27B8F, size: 0x8, addend: 0x0, symName: __ZNSt3__117__compressed_pairIfNS_21__unordered_map_equalIiNS_17__hash_value_typeIiNS_6vectorINS_12basic_stringIcNS_11char_traitsIcEENS_9allocatorIcEEEENS7_IS9_EEEEEENS_8equal_toIiEENS_4hashIiEELb1EEEE5firstB7v160006Ev, symObjAddr: 0x14FA0, symBinAddr: 0x100019134, symSize: 0x24 }
  - { offsetInCU: 0x27BB5, offset: 0x27BB5, size: 0x8, addend: 0x0, symName: __ZNSt3__112__hash_tableINS_17__hash_value_typeIiNS_6vectorINS_12basic_stringIcNS_11char_traitsIcEENS_9allocatorIcEEEENS6_IS8_EEEEEENS_22__unordered_map_hasherIiSB_NS_4hashIiEENS_8equal_toIiEELb1EEENS_21__unordered_map_equalIiSB_SG_SE_Lb1EEENS6_ISB_EEE8__rehashILb1EEEvm, symObjAddr: 0x14FC4, symBinAddr: 0x100019158, symSize: 0x1A8 }
  - { offsetInCU: 0x27C05, offset: 0x27C05, size: 0x8, addend: 0x0, symName: __ZNSt3__112__hash_tableINS_17__hash_value_typeIiNS_6vectorINS_12basic_stringIcNS_11char_traitsIcEENS_9allocatorIcEEEENS6_IS8_EEEEEENS_22__unordered_map_hasherIiSB_NS_4hashIiEENS_8equal_toIiEELb1EEENS_21__unordered_map_equalIiSB_SG_SE_Lb1EEENS6_ISB_EEE11__do_rehashILb1EEEvm, symObjAddr: 0x1516C, symBinAddr: 0x100019300, symSize: 0x290 }
  - { offsetInCU: 0x27CE8, offset: 0x27CE8, size: 0x8, addend: 0x0, symName: __ZNSt3__110unique_ptrIA_PNS_16__hash_node_baseIPNS_11__hash_nodeINS_17__hash_value_typeIiNS_6vectorINS_12basic_stringIcNS_11char_traitsIcEENS_9allocatorIcEEEENS8_ISA_EEEEEEPvEEEENS_25__bucket_list_deallocatorINS8_ISI_EEEEE11get_deleterB7v160006Ev, symObjAddr: 0x1540C, symBinAddr: 0x1000195A0, symSize: 0x24 }
  - { offsetInCU: 0x27D0E, offset: 0x27D0E, size: 0x8, addend: 0x0, symName: __ZNSt3__125__bucket_list_deallocatorINS_9allocatorIPNS_16__hash_node_baseIPNS_11__hash_nodeINS_17__hash_value_typeIiNS_6vectorINS_12basic_stringIcNS_11char_traitsIcEENS1_IcEEEENS1_ISA_EEEEEEPvEEEEEEE7__allocB7v160006Ev, symObjAddr: 0x15430, symBinAddr: 0x1000195C4, symSize: 0x24 }
  - { offsetInCU: 0x27D34, offset: 0x27D34, size: 0x8, addend: 0x0, symName: __ZNSt3__110unique_ptrIA_PNS_16__hash_node_baseIPNS_11__hash_nodeINS_17__hash_value_typeIiNS_6vectorINS_12basic_stringIcNS_11char_traitsIcEENS_9allocatorIcEEEENS8_ISA_EEEEEEPvEEEENS_25__bucket_list_deallocatorINS8_ISI_EEEEE5resetB7v160006IPSI_EENS_9enable_ifIXsr28_CheckArrayPointerConversionIT_EE5valueEvE4typeESR_, symObjAddr: 0x15454, symBinAddr: 0x1000195E8, symSize: 0x78 }
  - { offsetInCU: 0x27D81, offset: 0x27D81, size: 0x8, addend: 0x0, symName: __ZNSt3__116allocator_traitsINS_9allocatorIPNS_16__hash_node_baseIPNS_11__hash_nodeINS_17__hash_value_typeIiNS_6vectorINS_12basic_stringIcNS_11char_traitsIcEENS1_IcEEEENS1_ISA_EEEEEEPvEEEEEEE8allocateB7v160006ERSJ_m, symObjAddr: 0x154CC, symBinAddr: 0x100019660, symSize: 0x2C }
  - { offsetInCU: 0x27DB4, offset: 0x27DB4, size: 0x8, addend: 0x0, symName: __ZNSt3__125__bucket_list_deallocatorINS_9allocatorIPNS_16__hash_node_baseIPNS_11__hash_nodeINS_17__hash_value_typeIiNS_6vectorINS_12basic_stringIcNS_11char_traitsIcEENS1_IcEEEENS1_ISA_EEEEEEPvEEEEEEE4sizeB7v160006Ev, symObjAddr: 0x154F8, symBinAddr: 0x10001968C, symSize: 0x24 }
  - { offsetInCU: 0x27DDA, offset: 0x27DDA, size: 0x8, addend: 0x0, symName: __ZNSt3__117__compressed_pairIPPNS_16__hash_node_baseIPNS_11__hash_nodeINS_17__hash_value_typeIiNS_6vectorINS_12basic_stringIcNS_11char_traitsIcEENS_9allocatorIcEEEENS8_ISA_EEEEEEPvEEEENS_25__bucket_list_deallocatorINS8_ISI_EEEEE6secondB7v160006Ev, symObjAddr: 0x1551C, symBinAddr: 0x1000196B0, symSize: 0x28 }
  - { offsetInCU: 0x27E00, offset: 0x27E00, size: 0x8, addend: 0x0, symName: __ZNSt3__122__compressed_pair_elemINS_25__bucket_list_deallocatorINS_9allocatorIPNS_16__hash_node_baseIPNS_11__hash_nodeINS_17__hash_value_typeIiNS_6vectorINS_12basic_stringIcNS_11char_traitsIcEENS2_IcEEEENS2_ISB_EEEEEEPvEEEEEEEELi1ELb0EE5__getB7v160006Ev, symObjAddr: 0x15544, symBinAddr: 0x1000196D8, symSize: 0x14 }
  - { offsetInCU: 0x27E26, offset: 0x27E26, size: 0x8, addend: 0x0, symName: __ZNSt3__117__compressed_pairImNS_9allocatorIPNS_16__hash_node_baseIPNS_11__hash_nodeINS_17__hash_value_typeIiNS_6vectorINS_12basic_stringIcNS_11char_traitsIcEENS1_IcEEEENS1_ISA_EEEEEEPvEEEEEEE6secondB7v160006Ev, symObjAddr: 0x15558, symBinAddr: 0x1000196EC, symSize: 0x24 }
  - { offsetInCU: 0x27E4C, offset: 0x27E4C, size: 0x8, addend: 0x0, symName: __ZNSt3__122__compressed_pair_elemINS_9allocatorIPNS_16__hash_node_baseIPNS_11__hash_nodeINS_17__hash_value_typeIiNS_6vectorINS_12basic_stringIcNS_11char_traitsIcEENS1_IcEEEENS1_ISA_EEEEEEPvEEEEEELi1ELb1EE5__getB7v160006Ev, symObjAddr: 0x1557C, symBinAddr: 0x100019710, symSize: 0x14 }
  - { offsetInCU: 0x27E72, offset: 0x27E72, size: 0x8, addend: 0x0, symName: __ZNSt3__117__compressed_pairIPPNS_16__hash_node_baseIPNS_11__hash_nodeINS_17__hash_value_typeIiNS_6vectorINS_12basic_stringIcNS_11char_traitsIcEENS_9allocatorIcEEEENS8_ISA_EEEEEEPvEEEENS_25__bucket_list_deallocatorINS8_ISI_EEEEE5firstB7v160006Ev, symObjAddr: 0x15590, symBinAddr: 0x100019724, symSize: 0x24 }
  - { offsetInCU: 0x27E98, offset: 0x27E98, size: 0x8, addend: 0x0, symName: __ZNSt3__125__bucket_list_deallocatorINS_9allocatorIPNS_16__hash_node_baseIPNS_11__hash_nodeINS_17__hash_value_typeIiNS_6vectorINS_12basic_stringIcNS_11char_traitsIcEENS1_IcEEEENS1_ISA_EEEEEEPvEEEEEEEclB7v160006EPSI_, symObjAddr: 0x155B4, symBinAddr: 0x100019748, symSize: 0x58 }
  - { offsetInCU: 0x27ECD, offset: 0x27ECD, size: 0x8, addend: 0x0, symName: __ZNSt3__122__compressed_pair_elemIPPNS_16__hash_node_baseIPNS_11__hash_nodeINS_17__hash_value_typeIiNS_6vectorINS_12basic_stringIcNS_11char_traitsIcEENS_9allocatorIcEEEENS8_ISA_EEEEEEPvEEEELi0ELb0EE5__getB7v160006Ev, symObjAddr: 0x1560C, symBinAddr: 0x1000197A0, symSize: 0x14 }
  - { offsetInCU: 0x27EF3, offset: 0x27EF3, size: 0x8, addend: 0x0, symName: __ZNSt3__116allocator_traitsINS_9allocatorIPNS_16__hash_node_baseIPNS_11__hash_nodeINS_17__hash_value_typeIiNS_6vectorINS_12basic_stringIcNS_11char_traitsIcEENS1_IcEEEENS1_ISA_EEEEEEPvEEEEEEE10deallocateB7v160006ERSJ_PSI_m, symObjAddr: 0x15620, symBinAddr: 0x1000197B4, symSize: 0x34 }
  - { offsetInCU: 0x27F35, offset: 0x27F35, size: 0x8, addend: 0x0, symName: __ZNSt3__19allocatorIPNS_16__hash_node_baseIPNS_11__hash_nodeINS_17__hash_value_typeIiNS_6vectorINS_12basic_stringIcNS_11char_traitsIcEENS0_IcEEEENS0_IS9_EEEEEEPvEEEEE10deallocateB7v160006EPSH_m, symObjAddr: 0x15654, symBinAddr: 0x1000197E8, symSize: 0x40 }
  - { offsetInCU: 0x27F77, offset: 0x27F77, size: 0x8, addend: 0x0, symName: __ZNSt3__19allocatorIPNS_16__hash_node_baseIPNS_11__hash_nodeINS_17__hash_value_typeIiNS_6vectorINS_12basic_stringIcNS_11char_traitsIcEENS0_IcEEEENS0_IS9_EEEEEEPvEEEEE8allocateB7v160006Em, symObjAddr: 0x15694, symBinAddr: 0x100019828, symSize: 0x58 }
  - { offsetInCU: 0x27FB6, offset: 0x27FB6, size: 0x8, addend: 0x0, symName: __ZNSt3__116allocator_traitsINS_9allocatorIPNS_16__hash_node_baseIPNS_11__hash_nodeINS_17__hash_value_typeIiNS_6vectorINS_12basic_stringIcNS_11char_traitsIcEENS1_IcEEEENS1_ISA_EEEEEEPvEEEEEEE8max_sizeB7v160006ISJ_vvEEmRKSJ_, symObjAddr: 0x156EC, symBinAddr: 0x100019880, symSize: 0x28 }
  - { offsetInCU: 0x27FE1, offset: 0x27FE1, size: 0x8, addend: 0x0, symName: __ZNSt3__117__compressed_pairImNS_9allocatorIPNS_16__hash_node_baseIPNS_11__hash_nodeINS_17__hash_value_typeIiNS_6vectorINS_12basic_stringIcNS_11char_traitsIcEENS1_IcEEEENS1_ISA_EEEEEEPvEEEEEEE5firstB7v160006Ev, symObjAddr: 0x15714, symBinAddr: 0x1000198A8, symSize: 0x24 }
  - { offsetInCU: 0x28007, offset: 0x28007, size: 0x8, addend: 0x0, symName: __ZNSt3__122__compressed_pair_elemINS_16__hash_node_baseIPNS_11__hash_nodeINS_17__hash_value_typeIiNS_6vectorINS_12basic_stringIcNS_11char_traitsIcEENS_9allocatorIcEEEENS8_ISA_EEEEEEPvEEEELi0ELb0EE5__getB7v160006Ev, symObjAddr: 0x15738, symBinAddr: 0x1000198CC, symSize: 0x14 }
  - { offsetInCU: 0x2802D, offset: 0x2802D, size: 0x8, addend: 0x0, symName: __ZNKSt3__117__compressed_pairIPNS_11__hash_nodeINS_17__hash_value_typeIiNS_6vectorINS_12basic_stringIcNS_11char_traitsIcEENS_9allocatorIcEEEENS7_IS9_EEEEEEPvEENS_22__hash_node_destructorINS7_ISE_EEEEE5firstB7v160006Ev, symObjAddr: 0x1574C, symBinAddr: 0x1000198E0, symSize: 0x24 }
  - { offsetInCU: 0x28053, offset: 0x28053, size: 0x8, addend: 0x0, symName: __ZNKSt3__122__compressed_pair_elemIPNS_11__hash_nodeINS_17__hash_value_typeIiNS_6vectorINS_12basic_stringIcNS_11char_traitsIcEENS_9allocatorIcEEEENS7_IS9_EEEEEEPvEELi0ELb0EE5__getB7v160006Ev, symObjAddr: 0x15770, symBinAddr: 0x100019904, symSize: 0x14 }
  - { offsetInCU: 0x28079, offset: 0x28079, size: 0x8, addend: 0x0, symName: __ZNSt3__117__compressed_pairIPNS_11__hash_nodeINS_17__hash_value_typeIiNS_6vectorINS_12basic_stringIcNS_11char_traitsIcEENS_9allocatorIcEEEENS7_IS9_EEEEEEPvEENS_22__hash_node_destructorINS7_ISE_EEEEE5firstB7v160006Ev, symObjAddr: 0x15784, symBinAddr: 0x100019918, symSize: 0x24 }
  - { offsetInCU: 0x2809F, offset: 0x2809F, size: 0x8, addend: 0x0, symName: __ZNSt3__122__compressed_pair_elemIPNS_11__hash_nodeINS_17__hash_value_typeIiNS_6vectorINS_12basic_stringIcNS_11char_traitsIcEENS_9allocatorIcEEEENS7_IS9_EEEEEEPvEELi0ELb0EE5__getB7v160006Ev, symObjAddr: 0x157A8, symBinAddr: 0x10001993C, symSize: 0x14 }
  - { offsetInCU: 0x280C5, offset: 0x280C5, size: 0x8, addend: 0x0, symName: __ZNSt3__110unique_ptrINS_11__hash_nodeINS_17__hash_value_typeIiNS_6vectorINS_12basic_stringIcNS_11char_traitsIcEENS_9allocatorIcEEEENS7_IS9_EEEEEEPvEENS_22__hash_node_destructorINS7_ISE_EEEEED2B7v160006Ev, symObjAddr: 0x157BC, symBinAddr: 0x100019950, symSize: 0x30 }
  - { offsetInCU: 0x280EF, offset: 0x280EF, size: 0x8, addend: 0x0, symName: __ZNSt3__110unique_ptrINS_11__hash_nodeINS_17__hash_value_typeIiNS_6vectorINS_12basic_stringIcNS_11char_traitsIcEENS_9allocatorIcEEEENS7_IS9_EEEEEEPvEENS_22__hash_node_destructorINS7_ISE_EEEEE5resetB7v160006EPSE_, symObjAddr: 0x157EC, symBinAddr: 0x100019980, symSize: 0x78 }
  - { offsetInCU: 0x28133, offset: 0x28133, size: 0x8, addend: 0x0, symName: __ZNSt3__122__hash_node_destructorINS_9allocatorINS_11__hash_nodeINS_17__hash_value_typeIiNS_6vectorINS_12basic_stringIcNS_11char_traitsIcEENS1_IcEEEENS1_IS9_EEEEEEPvEEEEEclB7v160006EPSE_, symObjAddr: 0x15864, symBinAddr: 0x1000199F8, symSize: 0x98 }
  - { offsetInCU: 0x28168, offset: 0x28168, size: 0x8, addend: 0x0, symName: __ZNSt3__116allocator_traitsINS_9allocatorINS_11__hash_nodeINS_17__hash_value_typeIiNS_6vectorINS_12basic_stringIcNS_11char_traitsIcEENS1_IcEEEENS1_IS9_EEEEEEPvEEEEE7destroyB7v160006INS_4pairIKiSB_EEvvEEvRSF_PT_, symObjAddr: 0x158FC, symBinAddr: 0x100019A90, symSize: 0x28 }
  - { offsetInCU: 0x281A2, offset: 0x281A2, size: 0x8, addend: 0x0, symName: __ZNSt3__116allocator_traitsINS_9allocatorINS_11__hash_nodeINS_17__hash_value_typeIiNS_6vectorINS_12basic_stringIcNS_11char_traitsIcEENS1_IcEEEENS1_IS9_EEEEEEPvEEEEE10deallocateB7v160006ERSF_PSE_m, symObjAddr: 0x15924, symBinAddr: 0x100019AB8, symSize: 0x34 }
  - { offsetInCU: 0x281E4, offset: 0x281E4, size: 0x8, addend: 0x0, symName: __ZNSt3__14pairIKiNS_6vectorINS_12basic_stringIcNS_11char_traitsIcEENS_9allocatorIcEEEENS6_IS8_EEEEED1Ev, symObjAddr: 0x159A0, symBinAddr: 0x100019B34, symSize: 0x2C }
  - { offsetInCU: 0x28210, offset: 0x28210, size: 0x8, addend: 0x0, symName: __ZNSt3__14pairIKiNS_6vectorINS_12basic_stringIcNS_11char_traitsIcEENS_9allocatorIcEEEENS6_IS8_EEEEED2Ev, symObjAddr: 0x159CC, symBinAddr: 0x100019B60, symSize: 0x30 }
  - { offsetInCU: 0x2823C, offset: 0x2823C, size: 0x8, addend: 0x0, symName: __ZNSt3__19allocatorINS_11__hash_nodeINS_17__hash_value_typeIiNS_6vectorINS_12basic_stringIcNS_11char_traitsIcEENS0_IcEEEENS0_IS8_EEEEEEPvEEE10deallocateB7v160006EPSD_m, symObjAddr: 0x159FC, symBinAddr: 0x100019B90, symSize: 0x44 }
  - { offsetInCU: 0x2827E, offset: 0x2827E, size: 0x8, addend: 0x0, symName: __ZNSt3__115__hash_iteratorIPNS_11__hash_nodeINS_17__hash_value_typeIiNS_6vectorINS_12basic_stringIcNS_11char_traitsIcEENS_9allocatorIcEEEENS7_IS9_EEEEEEPvEEEC2B7v160006EPNS_16__hash_node_baseISF_EEPKv, symObjAddr: 0x15A40, symBinAddr: 0x100019BD4, symSize: 0x24 }
  - { offsetInCU: 0x282C6, offset: 0x282C6, size: 0x8, addend: 0x0, symName: __ZNSt3__14pairINS_15__hash_iteratorIPNS_11__hash_nodeINS_17__hash_value_typeIiNS_6vectorINS_12basic_stringIcNS_11char_traitsIcEENS_9allocatorIcEEEENS8_ISA_EEEEEEPvEEEEbEC2B7v160006ISH_RbLSE_0EEEOT_OT0_, symObjAddr: 0x15A64, symBinAddr: 0x100019BF8, symSize: 0x38 }
  - { offsetInCU: 0x28324, offset: 0x28324, size: 0x8, addend: 0x0, symName: __ZNSt3__15tupleIJOiEEC1B7v160006IJiELi0EEEDpOT_, symObjAddr: 0x15A9C, symBinAddr: 0x100019C30, symSize: 0x34 }
  - { offsetInCU: 0x2836E, offset: 0x2836E, size: 0x8, addend: 0x0, symName: __ZNSt3__15tupleIJOiEEC2B7v160006IJiELi0EEEDpOT_, symObjAddr: 0x15AD0, symBinAddr: 0x100019C64, symSize: 0x34 }
  - { offsetInCU: 0x283B8, offset: 0x283B8, size: 0x8, addend: 0x0, symName: __ZNSt3__112__tuple_implINS_15__tuple_indicesIJLm0EEEEJOiEEC1B7v160006IJLm0EEJS3_EJEJEJiEEENS1_IJXspT_EEEENS_13__tuple_typesIJDpT0_EEENS1_IJXspT1_EEEENS7_IJDpT2_EEEDpOT3_, symObjAddr: 0x15B04, symBinAddr: 0x100019C98, symSize: 0x34 }
  - { offsetInCU: 0x28449, offset: 0x28449, size: 0x8, addend: 0x0, symName: __ZNSt3__112__tuple_implINS_15__tuple_indicesIJLm0EEEEJOiEEC2B7v160006IJLm0EEJS3_EJEJEJiEEENS1_IJXspT_EEEENS_13__tuple_typesIJDpT0_EEENS1_IJXspT1_EEEENS7_IJDpT2_EEEDpOT3_, symObjAddr: 0x15B38, symBinAddr: 0x100019CCC, symSize: 0x34 }
  - { offsetInCU: 0x284DA, offset: 0x284DA, size: 0x8, addend: 0x0, symName: __ZNSt3__112__tuple_leafILm0EOiLb0EEC2B7v160006IivEEOT_, symObjAddr: 0x15B6C, symBinAddr: 0x100019D00, symSize: 0x20 }
  - { offsetInCU: 0x2851D, offset: 0x2851D, size: 0x8, addend: 0x0, symName: __ZNSt3__114pointer_traitsIPNS_17__hash_value_typeIiNS_6vectorINS_12basic_stringIcNS_11char_traitsIcEENS_9allocatorIcEEEENS6_IS8_EEEEEEE10pointer_toB7v160006ERSB_, symObjAddr: 0x15B8C, symBinAddr: 0x100019D20, symSize: 0x14 }
  - { offsetInCU: 0x28540, offset: 0x28540, size: 0x8, addend: 0x0, symName: __ZNSt3__115__hash_iteratorIPNS_11__hash_nodeINS_17__hash_value_typeINS_12basic_stringIcNS_11char_traitsIcEENS_9allocatorIcEEEEiEEPvEEEppB7v160006Ev, symObjAddr: 0x15BD8, symBinAddr: 0x100019D6C, symSize: 0x20 }
  - { offsetInCU: 0x28566, offset: 0x28566, size: 0x8, addend: 0x0, symName: __ZNSt3__112__hash_tableINS_17__hash_value_typeIiNS_6vectorINS_12basic_stringIcNS_11char_traitsIcEENS_9allocatorIcEEEENS6_IS8_EEEEEENS_22__unordered_map_hasherIiSB_NS_4hashIiEENS_8equal_toIiEELb1EEENS_21__unordered_map_equalIiSB_SG_SE_Lb1EEENS6_ISB_EEE5beginEv, symObjAddr: 0x15BF8, symBinAddr: 0x100019D8C, symSize: 0x40 }
  - { offsetInCU: 0x2858E, offset: 0x2858E, size: 0x8, addend: 0x0, symName: __ZNSt3__119__hash_map_iteratorINS_15__hash_iteratorIPNS_11__hash_nodeINS_17__hash_value_typeIiNS_6vectorINS_12basic_stringIcNS_11char_traitsIcEENS_9allocatorIcEEEENS8_ISA_EEEEEEPvEEEEEC1B7v160006ESH_, symObjAddr: 0x15C38, symBinAddr: 0x100019DCC, symSize: 0x34 }
  - { offsetInCU: 0x285C7, offset: 0x285C7, size: 0x8, addend: 0x0, symName: __ZNSt3__119__hash_map_iteratorINS_15__hash_iteratorIPNS_11__hash_nodeINS_17__hash_value_typeIiNS_6vectorINS_12basic_stringIcNS_11char_traitsIcEENS_9allocatorIcEEEENS8_ISA_EEEEEEPvEEEEEC2B7v160006ESH_, symObjAddr: 0x15C6C, symBinAddr: 0x100019E00, symSize: 0x20 }
  - { offsetInCU: 0x28600, offset: 0x28600, size: 0x8, addend: 0x0, symName: __ZNSt3__112__hash_tableINS_17__hash_value_typeIiNS_6vectorINS_12basic_stringIcNS_11char_traitsIcEENS_9allocatorIcEEEENS6_IS8_EEEEEENS_22__unordered_map_hasherIiSB_NS_4hashIiEENS_8equal_toIiEELb1EEENS_21__unordered_map_equalIiSB_SG_SE_Lb1EEENS6_ISB_EEE3endEv, symObjAddr: 0x15C8C, symBinAddr: 0x100019E20, symSize: 0x30 }
  - { offsetInCU: 0x28628, offset: 0x28628, size: 0x8, addend: 0x0, symName: __ZNSt3__110__get_pairILm0EE3getB7v160006IKiNS_6vectorINS_12basic_stringIcNS_11char_traitsIcEENS_9allocatorIcEEEENS8_ISA_EEEEEERT_RNS_4pairISD_T0_EE, symObjAddr: 0x15D20, symBinAddr: 0x100019EB4, symSize: 0x14 }
  - { offsetInCU: 0x2865E, offset: 0x2865E, size: 0x8, addend: 0x0, symName: __ZNSt3__110__get_pairILm1EE3getB7v160006IKiNS_6vectorINS_12basic_stringIcNS_11char_traitsIcEENS_9allocatorIcEEEENS8_ISA_EEEEEERT0_RNS_4pairIT_SD_EE, symObjAddr: 0x15D34, symBinAddr: 0x100019EC8, symSize: 0x18 }
  - { offsetInCU: 0x28694, offset: 0x28694, size: 0x8, addend: 0x0, symName: __ZNSt3__16vectorINS0_INS_12basic_stringIcNS_11char_traitsIcEENS_9allocatorIcEEEENS4_IS6_EEEENS4_IS8_EEE9__end_capB7v160006Ev, symObjAddr: 0x15D94, symBinAddr: 0x100019F28, symSize: 0x28 }
  - { offsetInCU: 0x286BA, offset: 0x286BA, size: 0x8, addend: 0x0, symName: __ZNSt3__16vectorINS0_INS_12basic_stringIcNS_11char_traitsIcEENS_9allocatorIcEEEENS4_IS6_EEEENS4_IS8_EEE22__construct_one_at_endB7v160006IJS8_EEEvDpOT_, symObjAddr: 0x15DBC, symBinAddr: 0x100019F50, symSize: 0x90 }
  - { offsetInCU: 0x28709, offset: 0x28709, size: 0x8, addend: 0x0, symName: __ZNSt3__16vectorINS0_INS_12basic_stringIcNS_11char_traitsIcEENS_9allocatorIcEEEENS4_IS6_EEEENS4_IS8_EEE24__emplace_back_slow_pathIJS8_EEEvDpOT_, symObjAddr: 0x15E4C, symBinAddr: 0x100019FE0, symSize: 0xD8 }
  - { offsetInCU: 0x28769, offset: 0x28769, size: 0x8, addend: 0x0, symName: __ZNSt3__16vectorINS0_INS_12basic_stringIcNS_11char_traitsIcEENS_9allocatorIcEEEENS4_IS6_EEEENS4_IS8_EEE4backB7v160006Ev, symObjAddr: 0x15F24, symBinAddr: 0x10001A0B8, symSize: 0x1C }
  - { offsetInCU: 0x2878F, offset: 0x2878F, size: 0x8, addend: 0x0, symName: __ZNSt3__117__compressed_pairIPNS_6vectorINS_12basic_stringIcNS_11char_traitsIcEENS_9allocatorIcEEEENS5_IS7_EEEENS5_IS9_EEE5firstB7v160006Ev, symObjAddr: 0x15F40, symBinAddr: 0x10001A0D4, symSize: 0x24 }
  - { offsetInCU: 0x287B5, offset: 0x287B5, size: 0x8, addend: 0x0, symName: __ZNSt3__122__compressed_pair_elemIPNS_6vectorINS_12basic_stringIcNS_11char_traitsIcEENS_9allocatorIcEEEENS5_IS7_EEEELi0ELb0EE5__getB7v160006Ev, symObjAddr: 0x15F64, symBinAddr: 0x10001A0F8, symSize: 0x14 }
  - { offsetInCU: 0x287F7, offset: 0x287F7, size: 0x8, addend: 0x0, symName: __ZNSt3__16vectorINS0_INS_12basic_stringIcNS_11char_traitsIcEENS_9allocatorIcEEEENS4_IS6_EEEENS4_IS8_EEE21_ConstructTransactionC1B7v160006ERSA_m, symObjAddr: 0x15F78, symBinAddr: 0x10001A10C, symSize: 0x3C }
  - { offsetInCU: 0x2883F, offset: 0x2883F, size: 0x8, addend: 0x0, symName: __ZNSt3__116allocator_traitsINS_9allocatorINS_6vectorINS_12basic_stringIcNS_11char_traitsIcEENS1_IcEEEENS1_IS7_EEEEEEE9constructB7v160006IS9_JS9_EvvEEvRSA_PT_DpOT0_, symObjAddr: 0x15FB4, symBinAddr: 0x10001A148, symSize: 0x30 }
  - { offsetInCU: 0x28893, offset: 0x28893, size: 0x8, addend: 0x0, symName: __ZNSt3__16vectorINS0_INS_12basic_stringIcNS_11char_traitsIcEENS_9allocatorIcEEEENS4_IS6_EEEENS4_IS8_EEE7__allocB7v160006Ev, symObjAddr: 0x15FE4, symBinAddr: 0x10001A178, symSize: 0x28 }
  - { offsetInCU: 0x288B9, offset: 0x288B9, size: 0x8, addend: 0x0, symName: __ZNSt3__16vectorINS0_INS_12basic_stringIcNS_11char_traitsIcEENS_9allocatorIcEEEENS4_IS6_EEEENS4_IS8_EEE21_ConstructTransactionD1B7v160006Ev, symObjAddr: 0x1600C, symBinAddr: 0x10001A1A0, symSize: 0x2C }
  - { offsetInCU: 0x288E3, offset: 0x288E3, size: 0x8, addend: 0x0, symName: __ZNSt3__16vectorINS0_INS_12basic_stringIcNS_11char_traitsIcEENS_9allocatorIcEEEENS4_IS6_EEEENS4_IS8_EEE21_ConstructTransactionC2B7v160006ERSA_m, symObjAddr: 0x16038, symBinAddr: 0x10001A1CC, symSize: 0x4C }
  - { offsetInCU: 0x2892B, offset: 0x2892B, size: 0x8, addend: 0x0, symName: __ZNSt3__117__compressed_pairIPNS_6vectorINS_12basic_stringIcNS_11char_traitsIcEENS_9allocatorIcEEEENS5_IS7_EEEENS5_IS9_EEE6secondB7v160006Ev, symObjAddr: 0x160C0, symBinAddr: 0x10001A254, symSize: 0x24 }
  - { offsetInCU: 0x28951, offset: 0x28951, size: 0x8, addend: 0x0, symName: __ZNSt3__122__compressed_pair_elemINS_9allocatorINS_6vectorINS_12basic_stringIcNS_11char_traitsIcEENS1_IcEEEENS1_IS7_EEEEEELi1ELb1EE5__getB7v160006Ev, symObjAddr: 0x160E4, symBinAddr: 0x10001A278, symSize: 0x14 }
  - { offsetInCU: 0x28977, offset: 0x28977, size: 0x8, addend: 0x0, symName: __ZNSt3__16vectorINS0_INS_12basic_stringIcNS_11char_traitsIcEENS_9allocatorIcEEEENS4_IS6_EEEENS4_IS8_EEE21_ConstructTransactionD2B7v160006Ev, symObjAddr: 0x160F8, symBinAddr: 0x10001A28C, symSize: 0x20 }
  - { offsetInCU: 0x289A1, offset: 0x289A1, size: 0x8, addend: 0x0, symName: __ZNKSt3__16vectorINS0_INS_12basic_stringIcNS_11char_traitsIcEENS_9allocatorIcEEEENS4_IS6_EEEENS4_IS8_EEE11__recommendB7v160006Em, symObjAddr: 0x16118, symBinAddr: 0x10001A2AC, symSize: 0xB4 }
  - { offsetInCU: 0x289F6, offset: 0x289F6, size: 0x8, addend: 0x0, symName: __ZNSt3__114__split_bufferINS_6vectorINS_12basic_stringIcNS_11char_traitsIcEENS_9allocatorIcEEEENS5_IS7_EEEERNS5_IS9_EEEC1EmmSB_, symObjAddr: 0x161CC, symBinAddr: 0x10001A360, symSize: 0x44 }
  - { offsetInCU: 0x28A4C, offset: 0x28A4C, size: 0x8, addend: 0x0, symName: __ZNSt3__114__split_bufferINS_6vectorINS_12basic_stringIcNS_11char_traitsIcEENS_9allocatorIcEEEENS5_IS7_EEEERNS5_IS9_EEED1Ev, symObjAddr: 0x16328, symBinAddr: 0x10001A4BC, symSize: 0x2C }
  - { offsetInCU: 0x28A78, offset: 0x28A78, size: 0x8, addend: 0x0, symName: __ZNKSt3__16vectorINS0_INS_12basic_stringIcNS_11char_traitsIcEENS_9allocatorIcEEEENS4_IS6_EEEENS4_IS8_EEE8max_sizeEv, symObjAddr: 0x16354, symBinAddr: 0x10001A4E8, symSize: 0x60 }
  - { offsetInCU: 0x28AA0, offset: 0x28AA0, size: 0x8, addend: 0x0, symName: __ZNKSt3__16vectorINS0_INS_12basic_stringIcNS_11char_traitsIcEENS_9allocatorIcEEEENS4_IS6_EEEENS4_IS8_EEE20__throw_length_errorB7v160006Ev, symObjAddr: 0x163B4, symBinAddr: 0x10001A548, symSize: 0x1C }
  - { offsetInCU: 0x28AC6, offset: 0x28AC6, size: 0x8, addend: 0x0, symName: __ZNKSt3__16vectorINS0_INS_12basic_stringIcNS_11char_traitsIcEENS_9allocatorIcEEEENS4_IS6_EEEENS4_IS8_EEE8capacityB7v160006Ev, symObjAddr: 0x163D0, symBinAddr: 0x10001A564, symSize: 0x40 }
  - { offsetInCU: 0x28AF7, offset: 0x28AF7, size: 0x8, addend: 0x0, symName: __ZNSt3__116allocator_traitsINS_9allocatorINS_6vectorINS_12basic_stringIcNS_11char_traitsIcEENS1_IcEEEENS1_IS7_EEEEEEE8max_sizeB7v160006ISA_vvEEmRKSA_, symObjAddr: 0x16410, symBinAddr: 0x10001A5A4, symSize: 0x28 }
  - { offsetInCU: 0x28B22, offset: 0x28B22, size: 0x8, addend: 0x0, symName: __ZNKSt3__16vectorINS0_INS_12basic_stringIcNS_11char_traitsIcEENS_9allocatorIcEEEENS4_IS6_EEEENS4_IS8_EEE7__allocB7v160006Ev, symObjAddr: 0x16438, symBinAddr: 0x10001A5CC, symSize: 0x28 }
  - { offsetInCU: 0x28B48, offset: 0x28B48, size: 0x8, addend: 0x0, symName: __ZNKSt3__117__compressed_pairIPNS_6vectorINS_12basic_stringIcNS_11char_traitsIcEENS_9allocatorIcEEEENS5_IS7_EEEENS5_IS9_EEE6secondB7v160006Ev, symObjAddr: 0x16460, symBinAddr: 0x10001A5F4, symSize: 0x24 }
  - { offsetInCU: 0x28B6E, offset: 0x28B6E, size: 0x8, addend: 0x0, symName: __ZNKSt3__122__compressed_pair_elemINS_9allocatorINS_6vectorINS_12basic_stringIcNS_11char_traitsIcEENS1_IcEEEENS1_IS7_EEEEEELi1ELb1EE5__getB7v160006Ev, symObjAddr: 0x16484, symBinAddr: 0x10001A618, symSize: 0x14 }
  - { offsetInCU: 0x28B94, offset: 0x28B94, size: 0x8, addend: 0x0, symName: __ZNKSt3__16vectorINS0_INS_12basic_stringIcNS_11char_traitsIcEENS_9allocatorIcEEEENS4_IS6_EEEENS4_IS8_EEE9__end_capB7v160006Ev, symObjAddr: 0x16498, symBinAddr: 0x10001A62C, symSize: 0x28 }
  - { offsetInCU: 0x28BBA, offset: 0x28BBA, size: 0x8, addend: 0x0, symName: __ZNKSt3__117__compressed_pairIPNS_6vectorINS_12basic_stringIcNS_11char_traitsIcEENS_9allocatorIcEEEENS5_IS7_EEEENS5_IS9_EEE5firstB7v160006Ev, symObjAddr: 0x164C0, symBinAddr: 0x10001A654, symSize: 0x24 }
  - { offsetInCU: 0x28BE0, offset: 0x28BE0, size: 0x8, addend: 0x0, symName: __ZNKSt3__122__compressed_pair_elemIPNS_6vectorINS_12basic_stringIcNS_11char_traitsIcEENS_9allocatorIcEEEENS5_IS7_EEEELi0ELb0EE5__getB7v160006Ev, symObjAddr: 0x164E4, symBinAddr: 0x10001A678, symSize: 0x14 }
  - { offsetInCU: 0x28C06, offset: 0x28C06, size: 0x8, addend: 0x0, symName: __ZNSt3__114__split_bufferINS_6vectorINS_12basic_stringIcNS_11char_traitsIcEENS_9allocatorIcEEEENS5_IS7_EEEERNS5_IS9_EEEC2EmmSB_, symObjAddr: 0x164F8, symBinAddr: 0x10001A68C, symSize: 0xE0 }
  - { offsetInCU: 0x28C79, offset: 0x28C79, size: 0x8, addend: 0x0, symName: __ZNSt3__117__compressed_pairIPNS_6vectorINS_12basic_stringIcNS_11char_traitsIcEENS_9allocatorIcEEEENS5_IS7_EEEERNS5_IS9_EEEC1B7v160006IDnSC_EEOT_OT0_, symObjAddr: 0x165D8, symBinAddr: 0x10001A76C, symSize: 0x3C }
  - { offsetInCU: 0x28CD1, offset: 0x28CD1, size: 0x8, addend: 0x0, symName: __ZNSt3__114__split_bufferINS_6vectorINS_12basic_stringIcNS_11char_traitsIcEENS_9allocatorIcEEEENS5_IS7_EEEERNS5_IS9_EEE7__allocB7v160006Ev, symObjAddr: 0x16654, symBinAddr: 0x10001A7E8, symSize: 0x28 }
  - { offsetInCU: 0x28CF7, offset: 0x28CF7, size: 0x8, addend: 0x0, symName: __ZNSt3__114__split_bufferINS_6vectorINS_12basic_stringIcNS_11char_traitsIcEENS_9allocatorIcEEEENS5_IS7_EEEERNS5_IS9_EEE9__end_capB7v160006Ev, symObjAddr: 0x1667C, symBinAddr: 0x10001A810, symSize: 0x28 }
  - { offsetInCU: 0x28D1D, offset: 0x28D1D, size: 0x8, addend: 0x0, symName: __ZNSt3__117__compressed_pairIPNS_6vectorINS_12basic_stringIcNS_11char_traitsIcEENS_9allocatorIcEEEENS5_IS7_EEEERNS5_IS9_EEEC2B7v160006IDnSC_EEOT_OT0_, symObjAddr: 0x166A4, symBinAddr: 0x10001A838, symSize: 0x48 }
  - { offsetInCU: 0x28D75, offset: 0x28D75, size: 0x8, addend: 0x0, symName: __ZNSt3__122__compressed_pair_elemIPNS_6vectorINS_12basic_stringIcNS_11char_traitsIcEENS_9allocatorIcEEEENS5_IS7_EEEELi0ELb0EEC2B7v160006IDnvEEOT_, symObjAddr: 0x166EC, symBinAddr: 0x10001A880, symSize: 0x1C }
  - { offsetInCU: 0x28DB7, offset: 0x28DB7, size: 0x8, addend: 0x0, symName: __ZNSt3__122__compressed_pair_elemIRNS_9allocatorINS_6vectorINS_12basic_stringIcNS_11char_traitsIcEENS1_IcEEEENS1_IS7_EEEEEELi1ELb0EEC2B7v160006ISB_vEEOT_, symObjAddr: 0x16708, symBinAddr: 0x10001A89C, symSize: 0x20 }
  - { offsetInCU: 0x28DF9, offset: 0x28DF9, size: 0x8, addend: 0x0, symName: __ZNSt3__19allocatorINS_6vectorINS_12basic_stringIcNS_11char_traitsIcEENS0_IcEEEENS0_IS6_EEEEE8allocateB7v160006Em, symObjAddr: 0x16728, symBinAddr: 0x10001A8BC, symSize: 0x5C }
  - { offsetInCU: 0x28E2D, offset: 0x28E2D, size: 0x8, addend: 0x0, symName: __ZNSt3__117__compressed_pairIPNS_6vectorINS_12basic_stringIcNS_11char_traitsIcEENS_9allocatorIcEEEENS5_IS7_EEEERNS5_IS9_EEE6secondB7v160006Ev, symObjAddr: 0x16784, symBinAddr: 0x10001A918, symSize: 0x28 }
  - { offsetInCU: 0x28E53, offset: 0x28E53, size: 0x8, addend: 0x0, symName: __ZNSt3__122__compressed_pair_elemIRNS_9allocatorINS_6vectorINS_12basic_stringIcNS_11char_traitsIcEENS1_IcEEEENS1_IS7_EEEEEELi1ELb0EE5__getB7v160006Ev, symObjAddr: 0x167AC, symBinAddr: 0x10001A940, symSize: 0x18 }
  - { offsetInCU: 0x28E79, offset: 0x28E79, size: 0x8, addend: 0x0, symName: __ZNSt3__117__compressed_pairIPNS_6vectorINS_12basic_stringIcNS_11char_traitsIcEENS_9allocatorIcEEEENS5_IS7_EEEERNS5_IS9_EEE5firstB7v160006Ev, symObjAddr: 0x167C4, symBinAddr: 0x10001A958, symSize: 0x24 }
  - { offsetInCU: 0x28E9F, offset: 0x28E9F, size: 0x8, addend: 0x0, symName: __ZNKSt3__16vectorINS0_INS_12basic_stringIcNS_11char_traitsIcEENS_9allocatorIcEEEENS4_IS6_EEEENS4_IS8_EEE17__annotate_deleteB7v160006Ev, symObjAddr: 0x167E8, symBinAddr: 0x10001A97C, symSize: 0xD4 }
  - { offsetInCU: 0x28EC5, offset: 0x28EC5, size: 0x8, addend: 0x0, symName: __ZNSt3__116reverse_iteratorIPNS_6vectorINS_12basic_stringIcNS_11char_traitsIcEENS_9allocatorIcEEEENS5_IS7_EEEEEC1B7v160006ESA_, symObjAddr: 0x169E8, symBinAddr: 0x10001AB7C, symSize: 0x34 }
  - { offsetInCU: 0x28EFD, offset: 0x28EFD, size: 0x8, addend: 0x0, symName: __ZNKSt3__116reverse_iteratorIPNS_6vectorINS_12basic_stringIcNS_11char_traitsIcEENS_9allocatorIcEEEENS5_IS7_EEEEE4baseB7v160006Ev, symObjAddr: 0x16A1C, symBinAddr: 0x10001ABB0, symSize: 0x18 }
  - { offsetInCU: 0x28F23, offset: 0x28F23, size: 0x8, addend: 0x0, symName: __ZNKSt3__16vectorINS0_INS_12basic_stringIcNS_11char_traitsIcEENS_9allocatorIcEEEENS4_IS6_EEEENS4_IS8_EEE14__annotate_newB7v160006Em, symObjAddr: 0x16A70, symBinAddr: 0x10001AC04, symSize: 0xC8 }
  - { offsetInCU: 0x28F58, offset: 0x28F58, size: 0x8, addend: 0x0, symName: __ZNKSt3__16vectorINS0_INS_12basic_stringIcNS_11char_traitsIcEENS_9allocatorIcEEEENS4_IS6_EEEENS4_IS8_EEE31__annotate_contiguous_containerB7v160006EPKvSC_SC_SC_, symObjAddr: 0x16B48, symBinAddr: 0x10001ACDC, symSize: 0x20 }
  - { offsetInCU: 0x28FAA, offset: 0x28FAA, size: 0x8, addend: 0x0, symName: __ZNKSt3__16vectorINS0_INS_12basic_stringIcNS_11char_traitsIcEENS_9allocatorIcEEEENS4_IS6_EEEENS4_IS8_EEE4dataB7v160006Ev, symObjAddr: 0x16B68, symBinAddr: 0x10001ACFC, symSize: 0x28 }
  - { offsetInCU: 0x28FD0, offset: 0x28FD0, size: 0x8, addend: 0x0, symName: __ZNSt3__129_AllocatorDestroyRangeReverseINS_9allocatorINS_6vectorINS_12basic_stringIcNS_11char_traitsIcEENS1_IcEEEENS1_IS7_EEEEEENS_16reverse_iteratorIPS9_EEEC1B7v160006ERSA_RSD_SG_, symObjAddr: 0x16BDC, symBinAddr: 0x10001AD70, symSize: 0x44 }
  - { offsetInCU: 0x29027, offset: 0x29027, size: 0x8, addend: 0x0, symName: __ZNKSt3__116reverse_iteratorIPNS_6vectorINS_12basic_stringIcNS_11char_traitsIcEENS_9allocatorIcEEEENS5_IS7_EEEEEdeB7v160006Ev, symObjAddr: 0x16C8C, symBinAddr: 0x10001AE20, symSize: 0x28 }
  - { offsetInCU: 0x2905B, offset: 0x2905B, size: 0x8, addend: 0x0, symName: __ZNSt3__116reverse_iteratorIPNS_6vectorINS_12basic_stringIcNS_11char_traitsIcEENS_9allocatorIcEEEENS5_IS7_EEEEEppB7v160006Ev, symObjAddr: 0x16CB4, symBinAddr: 0x10001AE48, symSize: 0x20 }
  - { offsetInCU: 0x29081, offset: 0x29081, size: 0x8, addend: 0x0, symName: __ZNSt3__128__exception_guard_exceptionsINS_29_AllocatorDestroyRangeReverseINS_9allocatorINS_6vectorINS_12basic_stringIcNS_11char_traitsIcEENS2_IcEEEENS2_IS8_EEEEEENS_16reverse_iteratorIPSA_EEEEE10__completeB7v160006Ev, symObjAddr: 0x16CD4, symBinAddr: 0x10001AE68, symSize: 0x1C }
  - { offsetInCU: 0x290A7, offset: 0x290A7, size: 0x8, addend: 0x0, symName: __ZNSt3__128__exception_guard_exceptionsINS_29_AllocatorDestroyRangeReverseINS_9allocatorINS_6vectorINS_12basic_stringIcNS_11char_traitsIcEENS2_IcEEEENS2_IS8_EEEEEENS_16reverse_iteratorIPSA_EEEEED1B7v160006Ev, symObjAddr: 0x16CF0, symBinAddr: 0x10001AE84, symSize: 0x2C }
  - { offsetInCU: 0x290D1, offset: 0x290D1, size: 0x8, addend: 0x0, symName: __ZNSt3__128__exception_guard_exceptionsINS_29_AllocatorDestroyRangeReverseINS_9allocatorINS_6vectorINS_12basic_stringIcNS_11char_traitsIcEENS2_IcEEEENS2_IS8_EEEEEENS_16reverse_iteratorIPSA_EEEEEC1B7v160006ESF_, symObjAddr: 0x16D1C, symBinAddr: 0x10001AEB0, symSize: 0x34 }
  - { offsetInCU: 0x2910A, offset: 0x2910A, size: 0x8, addend: 0x0, symName: __ZNSt3__128__exception_guard_exceptionsINS_29_AllocatorDestroyRangeReverseINS_9allocatorINS_6vectorINS_12basic_stringIcNS_11char_traitsIcEENS2_IcEEEENS2_IS8_EEEEEENS_16reverse_iteratorIPSA_EEEEEC2B7v160006ESF_, symObjAddr: 0x16D50, symBinAddr: 0x10001AEE4, symSize: 0x30 }
  - { offsetInCU: 0x29143, offset: 0x29143, size: 0x8, addend: 0x0, symName: __ZNSt3__129_AllocatorDestroyRangeReverseINS_9allocatorINS_6vectorINS_12basic_stringIcNS_11char_traitsIcEENS1_IcEEEENS1_IS7_EEEEEENS_16reverse_iteratorIPS9_EEEC2B7v160006ERSA_RSD_SG_, symObjAddr: 0x16D80, symBinAddr: 0x10001AF14, symSize: 0x38 }
  - { offsetInCU: 0x291A0, offset: 0x291A0, size: 0x8, addend: 0x0, symName: __ZNSt3__119__to_address_helperINS_16reverse_iteratorIPNS_6vectorINS_12basic_stringIcNS_11char_traitsIcEENS_9allocatorIcEEEENS6_IS8_EEEEEEvE6__callB7v160006ERKSC_, symObjAddr: 0x16DB8, symBinAddr: 0x10001AF4C, symSize: 0x38 }
  - { offsetInCU: 0x291C3, offset: 0x291C3, size: 0x8, addend: 0x0, symName: __ZNKSt3__116reverse_iteratorIPNS_6vectorINS_12basic_stringIcNS_11char_traitsIcEENS_9allocatorIcEEEENS5_IS7_EEEEEptB7v160006Ev, symObjAddr: 0x16DF0, symBinAddr: 0x10001AF84, symSize: 0x2C }
  - { offsetInCU: 0x291E9, offset: 0x291E9, size: 0x8, addend: 0x0, symName: __ZNSt3__128__exception_guard_exceptionsINS_29_AllocatorDestroyRangeReverseINS_9allocatorINS_6vectorINS_12basic_stringIcNS_11char_traitsIcEENS2_IcEEEENS2_IS8_EEEEEENS_16reverse_iteratorIPSA_EEEEED2B7v160006Ev, symObjAddr: 0x16EEC, symBinAddr: 0x10001B080, symSize: 0x50 }
  - { offsetInCU: 0x29213, offset: 0x29213, size: 0x8, addend: 0x0, symName: __ZNKSt3__129_AllocatorDestroyRangeReverseINS_9allocatorINS_6vectorINS_12basic_stringIcNS_11char_traitsIcEENS1_IcEEEENS1_IS7_EEEEEENS_16reverse_iteratorIPS9_EEEclB7v160006Ev, symObjAddr: 0x16F3C, symBinAddr: 0x10001B0D0, symSize: 0xB4 }
  - { offsetInCU: 0x2923A, offset: 0x2923A, size: 0x8, addend: 0x0, symName: __ZNSt3__116reverse_iteratorINS0_IPNS_6vectorINS_12basic_stringIcNS_11char_traitsIcEENS_9allocatorIcEEEENS5_IS7_EEEEEEEC1B7v160006ESB_, symObjAddr: 0x17060, symBinAddr: 0x10001B1F4, symSize: 0x3C }
  - { offsetInCU: 0x29272, offset: 0x29272, size: 0x8, addend: 0x0, symName: __ZNSt3__116allocator_traitsINS_9allocatorINS_6vectorINS_12basic_stringIcNS_11char_traitsIcEENS1_IcEEEENS1_IS7_EEEEEEE7destroyB7v160006IS9_vvEEvRSA_PT_, symObjAddr: 0x170FC, symBinAddr: 0x10001B290, symSize: 0x28 }
  - { offsetInCU: 0x292AC, offset: 0x292AC, size: 0x8, addend: 0x0, symName: __ZNSt3__116reverse_iteratorINS0_IPNS_6vectorINS_12basic_stringIcNS_11char_traitsIcEENS_9allocatorIcEEEENS5_IS7_EEEEEEEppB7v160006Ev, symObjAddr: 0x17148, symBinAddr: 0x10001B2DC, symSize: 0x30 }
  - { offsetInCU: 0x292D2, offset: 0x292D2, size: 0x8, addend: 0x0, symName: __ZNKSt3__116reverse_iteratorINS0_IPNS_6vectorINS_12basic_stringIcNS_11char_traitsIcEENS_9allocatorIcEEEENS5_IS7_EEEEEEE4baseB7v160006Ev, symObjAddr: 0x17178, symBinAddr: 0x10001B30C, symSize: 0x24 }
  - { offsetInCU: 0x292FE, offset: 0x292FE, size: 0x8, addend: 0x0, symName: __ZNSt3__119__to_address_helperINS_16reverse_iteratorINS1_IPNS_6vectorINS_12basic_stringIcNS_11char_traitsIcEENS_9allocatorIcEEEENS6_IS8_EEEEEEEEvE6__callB7v160006ERKSD_, symObjAddr: 0x171E4, symBinAddr: 0x10001B378, symSize: 0x38 }
  - { offsetInCU: 0x29321, offset: 0x29321, size: 0x8, addend: 0x0, symName: __ZNKSt3__116reverse_iteratorINS0_IPNS_6vectorINS_12basic_stringIcNS_11char_traitsIcEENS_9allocatorIcEEEENS5_IS7_EEEEEEEptB7v160006Ev, symObjAddr: 0x1721C, symBinAddr: 0x10001B3B0, symSize: 0x4C }
  - { offsetInCU: 0x29347, offset: 0x29347, size: 0x8, addend: 0x0, symName: __ZNSt3__116reverse_iteratorIPNS_6vectorINS_12basic_stringIcNS_11char_traitsIcEENS_9allocatorIcEEEENS5_IS7_EEEEEpLB7v160006El, symObjAddr: 0x17344, symBinAddr: 0x10001B4D8, symSize: 0x30 }
  - { offsetInCU: 0x2937B, offset: 0x2937B, size: 0x8, addend: 0x0, symName: __ZNSt3__116reverse_iteratorIPNS_6vectorINS_12basic_stringIcNS_11char_traitsIcEENS_9allocatorIcEEEENS5_IS7_EEEEEmmB7v160006Ev, symObjAddr: 0x17374, symBinAddr: 0x10001B508, symSize: 0x20 }
  - { offsetInCU: 0x293A1, offset: 0x293A1, size: 0x8, addend: 0x0, symName: __ZNSt3__116reverse_iteratorINS0_IPNS_6vectorINS_12basic_stringIcNS_11char_traitsIcEENS_9allocatorIcEEEENS5_IS7_EEEEEEEC2B7v160006ESB_, symObjAddr: 0x17394, symBinAddr: 0x10001B528, symSize: 0x2C }
  - { offsetInCU: 0x293D9, offset: 0x293D9, size: 0x8, addend: 0x0, symName: __ZNSt3__116reverse_iteratorIPNS_6vectorINS_12basic_stringIcNS_11char_traitsIcEENS_9allocatorIcEEEENS5_IS7_EEEEEC2B7v160006ESA_, symObjAddr: 0x173C0, symBinAddr: 0x10001B554, symSize: 0x28 }
  - { offsetInCU: 0x29411, offset: 0x29411, size: 0x8, addend: 0x0, symName: __ZNSt3__114__split_bufferINS_6vectorINS_12basic_stringIcNS_11char_traitsIcEENS_9allocatorIcEEEENS5_IS7_EEEERNS5_IS9_EEED2Ev, symObjAddr: 0x173E8, symBinAddr: 0x10001B57C, symSize: 0x8C }
  - { offsetInCU: 0x2943D, offset: 0x2943D, size: 0x8, addend: 0x0, symName: __ZNSt3__114__split_bufferINS_6vectorINS_12basic_stringIcNS_11char_traitsIcEENS_9allocatorIcEEEENS5_IS7_EEEERNS5_IS9_EEE5clearB7v160006Ev, symObjAddr: 0x17474, symBinAddr: 0x10001B608, symSize: 0x28 }
  - { offsetInCU: 0x29463, offset: 0x29463, size: 0x8, addend: 0x0, symName: __ZNSt3__116allocator_traitsINS_9allocatorINS_6vectorINS_12basic_stringIcNS_11char_traitsIcEENS1_IcEEEENS1_IS7_EEEEEEE10deallocateB7v160006ERSA_PS9_m, symObjAddr: 0x1749C, symBinAddr: 0x10001B630, symSize: 0x34 }
  - { offsetInCU: 0x294A5, offset: 0x294A5, size: 0x8, addend: 0x0, symName: __ZNKSt3__114__split_bufferINS_6vectorINS_12basic_stringIcNS_11char_traitsIcEENS_9allocatorIcEEEENS5_IS7_EEEERNS5_IS9_EEE8capacityB7v160006Ev, symObjAddr: 0x174D0, symBinAddr: 0x10001B664, symSize: 0x40 }
  - { offsetInCU: 0x294CB, offset: 0x294CB, size: 0x8, addend: 0x0, symName: __ZNSt3__114__split_bufferINS_6vectorINS_12basic_stringIcNS_11char_traitsIcEENS_9allocatorIcEEEENS5_IS7_EEEERNS5_IS9_EEE17__destruct_at_endB7v160006EPS9_, symObjAddr: 0x17510, symBinAddr: 0x10001B6A4, symSize: 0x2C }
  - { offsetInCU: 0x294FF, offset: 0x294FF, size: 0x8, addend: 0x0, symName: __ZNSt3__114__split_bufferINS_6vectorINS_12basic_stringIcNS_11char_traitsIcEENS_9allocatorIcEEEENS5_IS7_EEEERNS5_IS9_EEE17__destruct_at_endB7v160006EPS9_NS_17integral_constantIbLb0EEE, symObjAddr: 0x1753C, symBinAddr: 0x10001B6D0, symSize: 0x80 }
  - { offsetInCU: 0x29540, offset: 0x29540, size: 0x8, addend: 0x0, symName: __ZNSt3__19allocatorINS_6vectorINS_12basic_stringIcNS_11char_traitsIcEENS0_IcEEEENS0_IS6_EEEEE10deallocateB7v160006EPS8_m, symObjAddr: 0x175BC, symBinAddr: 0x10001B750, symSize: 0x44 }
  - { offsetInCU: 0x29582, offset: 0x29582, size: 0x8, addend: 0x0, symName: __ZNKSt3__114__split_bufferINS_6vectorINS_12basic_stringIcNS_11char_traitsIcEENS_9allocatorIcEEEENS5_IS7_EEEERNS5_IS9_EEE9__end_capB7v160006Ev, symObjAddr: 0x17600, symBinAddr: 0x10001B794, symSize: 0x28 }
  - { offsetInCU: 0x295A8, offset: 0x295A8, size: 0x8, addend: 0x0, symName: __ZNKSt3__117__compressed_pairIPNS_6vectorINS_12basic_stringIcNS_11char_traitsIcEENS_9allocatorIcEEEENS5_IS7_EEEERNS5_IS9_EEE5firstB7v160006Ev, symObjAddr: 0x17628, symBinAddr: 0x10001B7BC, symSize: 0x24 }
  - { offsetInCU: 0x295CE, offset: 0x295CE, size: 0x8, addend: 0x0, symName: __ZNSt3__115__hash_iteratorIPNS_11__hash_nodeINS_17__hash_value_typeIiNS_6vectorINS_12basic_stringIcNS_11char_traitsIcEENS_9allocatorIcEEEENS7_IS9_EEEEEEPvEEEppB7v160006Ev, symObjAddr: 0x1764C, symBinAddr: 0x10001B7E0, symSize: 0x20 }
  - { offsetInCU: 0x295F4, offset: 0x295F4, size: 0x8, addend: 0x0, symName: __ZNSt3__113unordered_mapIiNS_6vectorINS_12basic_stringIcNS_11char_traitsIcEENS_9allocatorIcEEEENS5_IS7_EEEENS_4hashIiEENS_8equal_toIiEENS5_INS_4pairIKiS9_EEEEED2B7v160006Ev, symObjAddr: 0x1766C, symBinAddr: 0x10001B800, symSize: 0x2C }
  - { offsetInCU: 0x2961E, offset: 0x2961E, size: 0x8, addend: 0x0, symName: __ZNSt3__112__hash_tableINS_17__hash_value_typeIiNS_6vectorINS_12basic_stringIcNS_11char_traitsIcEENS_9allocatorIcEEEENS6_IS8_EEEEEENS_22__unordered_map_hasherIiSB_NS_4hashIiEENS_8equal_toIiEELb1EEENS_21__unordered_map_equalIiSB_SG_SE_Lb1EEENS6_ISB_EEED1Ev, symObjAddr: 0x17698, symBinAddr: 0x10001B82C, symSize: 0x2C }
  - { offsetInCU: 0x2964A, offset: 0x2964A, size: 0x8, addend: 0x0, symName: __ZNSt3__112__hash_tableINS_17__hash_value_typeIiNS_6vectorINS_12basic_stringIcNS_11char_traitsIcEENS_9allocatorIcEEEENS6_IS8_EEEEEENS_22__unordered_map_hasherIiSB_NS_4hashIiEENS_8equal_toIiEELb1EEENS_21__unordered_map_equalIiSB_SG_SE_Lb1EEENS6_ISB_EEED2Ev, symObjAddr: 0x176C4, symBinAddr: 0x10001B858, symSize: 0x58 }
  - { offsetInCU: 0x29676, offset: 0x29676, size: 0x8, addend: 0x0, symName: __ZNSt3__112__hash_tableINS_17__hash_value_typeIiNS_6vectorINS_12basic_stringIcNS_11char_traitsIcEENS_9allocatorIcEEEENS6_IS8_EEEEEENS_22__unordered_map_hasherIiSB_NS_4hashIiEENS_8equal_toIiEELb1EEENS_21__unordered_map_equalIiSB_SG_SE_Lb1EEENS6_ISB_EEE17__deallocate_nodeEPNS_16__hash_node_baseIPNS_11__hash_nodeISB_PvEEEE, symObjAddr: 0x1771C, symBinAddr: 0x10001B8B0, symSize: 0xA8 }
  - { offsetInCU: 0x296E0, offset: 0x296E0, size: 0x8, addend: 0x0, symName: __ZNSt3__110unique_ptrIA_PNS_16__hash_node_baseIPNS_11__hash_nodeINS_17__hash_value_typeIiNS_6vectorINS_12basic_stringIcNS_11char_traitsIcEENS_9allocatorIcEEEENS8_ISA_EEEEEEPvEEEENS_25__bucket_list_deallocatorINS8_ISI_EEEEED1B7v160006Ev, symObjAddr: 0x177D4, symBinAddr: 0x10001B968, symSize: 0x2C }
  - { offsetInCU: 0x2970A, offset: 0x2970A, size: 0x8, addend: 0x0, symName: __ZNSt3__110unique_ptrIA_PNS_16__hash_node_baseIPNS_11__hash_nodeINS_17__hash_value_typeIiNS_6vectorINS_12basic_stringIcNS_11char_traitsIcEENS_9allocatorIcEEEENS8_ISA_EEEEEEPvEEEENS_25__bucket_list_deallocatorINS8_ISI_EEEEED2B7v160006Ev, symObjAddr: 0x17800, symBinAddr: 0x10001B994, symSize: 0x30 }
  - { offsetInCU: 0x29734, offset: 0x29734, size: 0x8, addend: 0x0, symName: __ZNSt3__110unique_ptrIA_PNS_16__hash_node_baseIPNS_11__hash_nodeINS_17__hash_value_typeIiNS_6vectorINS_12basic_stringIcNS_11char_traitsIcEENS_9allocatorIcEEEENS8_ISA_EEEEEEPvEEEENS_25__bucket_list_deallocatorINS8_ISI_EEEEE5resetB7v160006EDn, symObjAddr: 0x17830, symBinAddr: 0x10001B9C4, symSize: 0x6C }
  - { offsetInCU: 0x29774, offset: 0x29774, size: 0x8, addend: 0x0, symName: __ZN9UnionFindD2Ev, symObjAddr: 0x1789C, symBinAddr: 0x10001BA30, symSize: 0x2C }
  - { offsetInCU: 0x297A0, offset: 0x297A0, size: 0x8, addend: 0x0, symName: __ZNKSt3__16vectorINS0_INS_12basic_stringIcNS_11char_traitsIcEENS_9allocatorIcEEEENS4_IS6_EEEENS4_IS8_EEE5beginB7v160006Ev, symObjAddr: 0x17918, symBinAddr: 0x10001BAAC, symSize: 0x30 }
  - { offsetInCU: 0x297C8, offset: 0x297C8, size: 0x8, addend: 0x0, symName: __ZNKSt3__16vectorINS0_INS_12basic_stringIcNS_11char_traitsIcEENS_9allocatorIcEEEENS4_IS6_EEEENS4_IS8_EEE3endB7v160006Ev, symObjAddr: 0x17948, symBinAddr: 0x10001BADC, symSize: 0x30 }
  - { offsetInCU: 0x297FB, offset: 0x297FB, size: 0x8, addend: 0x0, symName: __ZNKSt3__110__equal_toclB7v160006INS_6vectorINS_12basic_stringIcNS_11char_traitsIcEENS_9allocatorIcEEEENS6_IS8_EEEESA_EEbRKT_RKT0_, symObjAddr: 0x17A5C, symBinAddr: 0x10001BBF0, symSize: 0x34 }
  - { offsetInCU: 0x2984F, offset: 0x2984F, size: 0x8, addend: 0x0, symName: __ZNKSt3__111__wrap_iterIPKNS_6vectorINS_12basic_stringIcNS_11char_traitsIcEENS_9allocatorIcEEEENS5_IS7_EEEEEdeB7v160006Ev, symObjAddr: 0x17A90, symBinAddr: 0x10001BC24, symSize: 0x18 }
  - { offsetInCU: 0x29875, offset: 0x29875, size: 0x8, addend: 0x0, symName: __ZNSt3__111__wrap_iterIPKNS_6vectorINS_12basic_stringIcNS_11char_traitsIcEENS_9allocatorIcEEEENS5_IS7_EEEEEppB7v160006Ev, symObjAddr: 0x17AA8, symBinAddr: 0x10001BC3C, symSize: 0x20 }
  - { offsetInCU: 0x2989B, offset: 0x2989B, size: 0x8, addend: 0x0, symName: __ZNKSt3__111__wrap_iterIPKNS_6vectorINS_12basic_stringIcNS_11char_traitsIcEENS_9allocatorIcEEEENS5_IS7_EEEEE4baseB7v160006Ev, symObjAddr: 0x17B10, symBinAddr: 0x10001BCA4, symSize: 0x18 }
  - { offsetInCU: 0x298C1, offset: 0x298C1, size: 0x8, addend: 0x0, symName: __ZNKSt3__110__equal_toclB7v160006INS_12basic_stringIcNS_11char_traitsIcEENS_9allocatorIcEEEES7_EEbRKT_RKT0_, symObjAddr: 0x17CC4, symBinAddr: 0x10001BE58, symSize: 0x34 }
  - { offsetInCU: 0x29915, offset: 0x29915, size: 0x8, addend: 0x0, symName: __ZNKSt3__16vectorINS0_INS_12basic_stringIcNS_11char_traitsIcEENS_9allocatorIcEEEENS4_IS6_EEEENS4_IS8_EEE11__make_iterB7v160006EPKS8_, symObjAddr: 0x17CF8, symBinAddr: 0x10001BE8C, symSize: 0x34 }
  - { offsetInCU: 0x2994A, offset: 0x2994A, size: 0x8, addend: 0x0, symName: __ZNSt3__111__wrap_iterIPKNS_6vectorINS_12basic_stringIcNS_11char_traitsIcEENS_9allocatorIcEEEENS5_IS7_EEEEEC1B7v160006EPKvSB_, symObjAddr: 0x17D2C, symBinAddr: 0x10001BEC0, symSize: 0x3C }
  - { offsetInCU: 0x29990, offset: 0x29990, size: 0x8, addend: 0x0, symName: __ZNSt3__111__wrap_iterIPKNS_6vectorINS_12basic_stringIcNS_11char_traitsIcEENS_9allocatorIcEEEENS5_IS7_EEEEEC2B7v160006EPKvSB_, symObjAddr: 0x17D68, symBinAddr: 0x10001BEFC, symSize: 0x24 }
  - { offsetInCU: 0x299D6, offset: 0x299D6, size: 0x8, addend: 0x0, symName: __ZNSt3__16vectorINS0_INS_12basic_stringIcNS_11char_traitsIcEENS_9allocatorIcEEEENS4_IS6_EEEENS4_IS8_EEED2B7v160006Ev, symObjAddr: 0x17D8C, symBinAddr: 0x10001BF20, symSize: 0x44 }
  - { offsetInCU: 0x29A00, offset: 0x29A00, size: 0x8, addend: 0x0, symName: __ZNSt3__16vectorINS0_INS_12basic_stringIcNS_11char_traitsIcEENS_9allocatorIcEEEENS4_IS6_EEEENS4_IS8_EEE16__destroy_vectorC1ERSA_, symObjAddr: 0x17DD0, symBinAddr: 0x10001BF64, symSize: 0x34 }
  - { offsetInCU: 0x29A39, offset: 0x29A39, size: 0x8, addend: 0x0, symName: __ZNSt3__16vectorINS0_INS_12basic_stringIcNS_11char_traitsIcEENS_9allocatorIcEEEENS4_IS6_EEEENS4_IS8_EEE16__destroy_vectorclB7v160006Ev, symObjAddr: 0x17E04, symBinAddr: 0x10001BF98, symSize: 0x9C }
  - { offsetInCU: 0x29A5F, offset: 0x29A5F, size: 0x8, addend: 0x0, symName: __ZNSt3__16vectorINS0_INS_12basic_stringIcNS_11char_traitsIcEENS_9allocatorIcEEEENS4_IS6_EEEENS4_IS8_EEE16__destroy_vectorC2ERSA_, symObjAddr: 0x17EA0, symBinAddr: 0x10001C034, symSize: 0x20 }
  - { offsetInCU: 0x29A98, offset: 0x29A98, size: 0x8, addend: 0x0, symName: __ZNSt3__16vectorINS0_INS_12basic_stringIcNS_11char_traitsIcEENS_9allocatorIcEEEENS4_IS6_EEEENS4_IS8_EEE7__clearB7v160006Ev, symObjAddr: 0x17ED0, symBinAddr: 0x10001C064, symSize: 0x28 }
  - { offsetInCU: 0x29ABE, offset: 0x29ABE, size: 0x8, addend: 0x0, symName: __ZNSt3__16vectorINS0_INS_12basic_stringIcNS_11char_traitsIcEENS_9allocatorIcEEEENS4_IS6_EEEENS4_IS8_EEE22__base_destruct_at_endB7v160006EPS8_, symObjAddr: 0x17EF8, symBinAddr: 0x10001C08C, symSize: 0x8C }
  - { offsetInCU: 0x29B02, offset: 0x29B02, size: 0x8, addend: 0x0, symName: __ZN8SolutionD2Ev, symObjAddr: 0x17F84, symBinAddr: 0x10001C118, symSize: 0x38 }
  - { offsetInCU: 0x29B2E, offset: 0x29B2E, size: 0x8, addend: 0x0, symName: __ZNSt3__16vectorI13nameANDemailsNS_9allocatorIS1_EEED1B7v160006Ev, symObjAddr: 0x17FBC, symBinAddr: 0x10001C150, symSize: 0x2C }
  - { offsetInCU: 0x29B58, offset: 0x29B58, size: 0x8, addend: 0x0, symName: __ZNSt3__113unordered_mapINS_12basic_stringIcNS_11char_traitsIcEENS_9allocatorIcEEEEiNS_4hashIS6_EENS_8equal_toIS6_EENS4_INS_4pairIKS6_iEEEEED1B7v160006Ev, symObjAddr: 0x17FE8, symBinAddr: 0x10001C17C, symSize: 0x2C }
  - { offsetInCU: 0x29B82, offset: 0x29B82, size: 0x8, addend: 0x0, symName: __ZNSt3__16vectorI13nameANDemailsNS_9allocatorIS1_EEED2B7v160006Ev, symObjAddr: 0x18014, symBinAddr: 0x10001C1A8, symSize: 0x44 }
  - { offsetInCU: 0x29BAC, offset: 0x29BAC, size: 0x8, addend: 0x0, symName: __ZNSt3__16vectorI13nameANDemailsNS_9allocatorIS1_EEE16__destroy_vectorC1ERS4_, symObjAddr: 0x18058, symBinAddr: 0x10001C1EC, symSize: 0x34 }
  - { offsetInCU: 0x29BE5, offset: 0x29BE5, size: 0x8, addend: 0x0, symName: __ZNSt3__16vectorI13nameANDemailsNS_9allocatorIS1_EEE16__destroy_vectorclB7v160006Ev, symObjAddr: 0x1808C, symBinAddr: 0x10001C220, symSize: 0x9C }
  - { offsetInCU: 0x29C0B, offset: 0x29C0B, size: 0x8, addend: 0x0, symName: __ZNSt3__16vectorI13nameANDemailsNS_9allocatorIS1_EEE16__destroy_vectorC2ERS4_, symObjAddr: 0x18128, symBinAddr: 0x10001C2BC, symSize: 0x20 }
  - { offsetInCU: 0x29C44, offset: 0x29C44, size: 0x8, addend: 0x0, symName: __ZNSt3__16vectorI13nameANDemailsNS_9allocatorIS1_EEE7__clearB7v160006Ev, symObjAddr: 0x18158, symBinAddr: 0x10001C2EC, symSize: 0x28 }
  - { offsetInCU: 0x29C6A, offset: 0x29C6A, size: 0x8, addend: 0x0, symName: __ZNSt3__16vectorI13nameANDemailsNS_9allocatorIS1_EEE22__base_destruct_at_endB7v160006EPS1_, symObjAddr: 0x18180, symBinAddr: 0x10001C314, symSize: 0x8C }
  - { offsetInCU: 0x29CAE, offset: 0x29CAE, size: 0x8, addend: 0x0, symName: __ZNSt3__113unordered_mapINS_12basic_stringIcNS_11char_traitsIcEENS_9allocatorIcEEEEiNS_4hashIS6_EENS_8equal_toIS6_EENS4_INS_4pairIKS6_iEEEEED2B7v160006Ev, symObjAddr: 0x1820C, symBinAddr: 0x10001C3A0, symSize: 0x2C }
  - { offsetInCU: 0x29CD8, offset: 0x29CD8, size: 0x8, addend: 0x0, symName: __ZNSt3__112__hash_tableINS_17__hash_value_typeINS_12basic_stringIcNS_11char_traitsIcEENS_9allocatorIcEEEEiEENS_22__unordered_map_hasherIS7_S8_NS_4hashIS7_EENS_8equal_toIS7_EELb1EEENS_21__unordered_map_equalIS7_S8_SD_SB_Lb1EEENS5_IS8_EEED1Ev, symObjAddr: 0x18238, symBinAddr: 0x10001C3CC, symSize: 0x2C }
  - { offsetInCU: 0x29D04, offset: 0x29D04, size: 0x8, addend: 0x0, symName: __ZNSt3__112__hash_tableINS_17__hash_value_typeINS_12basic_stringIcNS_11char_traitsIcEENS_9allocatorIcEEEEiEENS_22__unordered_map_hasherIS7_S8_NS_4hashIS7_EENS_8equal_toIS7_EELb1EEENS_21__unordered_map_equalIS7_S8_SD_SB_Lb1EEENS5_IS8_EEED2Ev, symObjAddr: 0x18264, symBinAddr: 0x10001C3F8, symSize: 0x58 }
  - { offsetInCU: 0x29D30, offset: 0x29D30, size: 0x8, addend: 0x0, symName: __ZNSt3__112__hash_tableINS_17__hash_value_typeINS_12basic_stringIcNS_11char_traitsIcEENS_9allocatorIcEEEEiEENS_22__unordered_map_hasherIS7_S8_NS_4hashIS7_EENS_8equal_toIS7_EELb1EEENS_21__unordered_map_equalIS7_S8_SD_SB_Lb1EEENS5_IS8_EEE17__deallocate_nodeEPNS_16__hash_node_baseIPNS_11__hash_nodeIS8_PvEEEE, symObjAddr: 0x182BC, symBinAddr: 0x10001C450, symSize: 0xA8 }
  - { offsetInCU: 0x29D9A, offset: 0x29D9A, size: 0x8, addend: 0x0, symName: __ZNSt3__110unique_ptrIA_PNS_16__hash_node_baseIPNS_11__hash_nodeINS_17__hash_value_typeINS_12basic_stringIcNS_11char_traitsIcEENS_9allocatorIcEEEEiEEPvEEEENS_25__bucket_list_deallocatorINS7_ISF_EEEEED1B7v160006Ev, symObjAddr: 0x18374, symBinAddr: 0x10001C508, symSize: 0x2C }
  - { offsetInCU: 0x29DC4, offset: 0x29DC4, size: 0x8, addend: 0x0, symName: __ZNSt3__110unique_ptrIA_PNS_16__hash_node_baseIPNS_11__hash_nodeINS_17__hash_value_typeINS_12basic_stringIcNS_11char_traitsIcEENS_9allocatorIcEEEEiEEPvEEEENS_25__bucket_list_deallocatorINS7_ISF_EEEEED2B7v160006Ev, symObjAddr: 0x183A0, symBinAddr: 0x10001C534, symSize: 0x30 }
  - { offsetInCU: 0x29DEE, offset: 0x29DEE, size: 0x8, addend: 0x0, symName: __ZNSt3__110unique_ptrIA_PNS_16__hash_node_baseIPNS_11__hash_nodeINS_17__hash_value_typeINS_12basic_stringIcNS_11char_traitsIcEENS_9allocatorIcEEEEiEEPvEEEENS_25__bucket_list_deallocatorINS7_ISF_EEEEE5resetB7v160006EDn, symObjAddr: 0x183D0, symBinAddr: 0x10001C564, symSize: 0x6C }
  - { offsetInCU: 0x29E2E, offset: 0x29E2E, size: 0x8, addend: 0x0, symName: __ZNSt3__112basic_stringIcNS_11char_traitsIcEENS_9allocatorIcEEEC2B7v160006IDnEEPKc, symObjAddr: 0x1843C, symBinAddr: 0x10001C5D0, symSize: 0x60 }
  - { offsetInCU: 0x29E6C, offset: 0x29E6C, size: 0x8, addend: 0x0, symName: __ZNSt3__117__compressed_pairINS_12basic_stringIcNS_11char_traitsIcEENS_9allocatorIcEEE5__repES5_EC1B7v160006INS_18__default_init_tagESA_EEOT_OT0_, symObjAddr: 0x1849C, symBinAddr: 0x10001C630, symSize: 0x3C }
  - { offsetInCU: 0x29EC4, offset: 0x29EC4, size: 0x8, addend: 0x0, symName: __ZNSt3__111char_traitsIcE6lengthEPKc, symObjAddr: 0x184D8, symBinAddr: 0x10001C66C, symSize: 0x34 }
  - { offsetInCU: 0x29EE7, offset: 0x29EE7, size: 0x8, addend: 0x0, symName: __ZNSt3__117__compressed_pairINS_12basic_stringIcNS_11char_traitsIcEENS_9allocatorIcEEE5__repES5_EC2B7v160006INS_18__default_init_tagESA_EEOT_OT0_, symObjAddr: 0x1850C, symBinAddr: 0x10001C6A0, symSize: 0x3C }
  - { offsetInCU: 0x29F3F, offset: 0x29F3F, size: 0x8, addend: 0x0, symName: __ZNSt3__122__compressed_pair_elemINS_12basic_stringIcNS_11char_traitsIcEENS_9allocatorIcEEE5__repELi0ELb0EEC2B7v160006ENS_18__default_init_tagE, symObjAddr: 0x18548, symBinAddr: 0x10001C6DC, symSize: 0x14 }
  - { offsetInCU: 0x29F74, offset: 0x29F74, size: 0x8, addend: 0x0, symName: __ZNSt3__122__compressed_pair_elemINS_9allocatorIcEELi1ELb1EEC2B7v160006ENS_18__default_init_tagE, symObjAddr: 0x1855C, symBinAddr: 0x10001C6F0, symSize: 0x2C }
  - { offsetInCU: 0x29FA9, offset: 0x29FA9, size: 0x8, addend: 0x0, symName: __ZNSt3__19allocatorIcEC2B7v160006Ev, symObjAddr: 0x18588, symBinAddr: 0x10001C71C, symSize: 0x2C }
  - { offsetInCU: 0x29FD3, offset: 0x29FD3, size: 0x8, addend: 0x0, symName: __ZNSt3__116__non_trivial_ifILb1ENS_9allocatorIcEEEC2B7v160006Ev, symObjAddr: 0x185B4, symBinAddr: 0x10001C748, symSize: 0x14 }
  - { offsetInCU: 0x29FFD, offset: 0x29FFD, size: 0x8, addend: 0x0, symName: __ZNSt3__16vectorINS_12basic_stringIcNS_11char_traitsIcEENS_9allocatorIcEEEENS4_IS6_EEEC2B7v160006ESt16initializer_listIS6_E, symObjAddr: 0x185EC, symBinAddr: 0x10001C780, symSize: 0x128 }
  - { offsetInCU: 0x2A04D, offset: 0x2A04D, size: 0x8, addend: 0x0, symName: __ZNKSt16initializer_listINSt3__112basic_stringIcNS0_11char_traitsIcEENS0_9allocatorIcEEEEE4sizeB7v160006Ev, symObjAddr: 0x18714, symBinAddr: 0x10001C8A8, symSize: 0x18 }
  - { offsetInCU: 0x2A073, offset: 0x2A073, size: 0x8, addend: 0x0, symName: __ZNSt3__16vectorINS_12basic_stringIcNS_11char_traitsIcEENS_9allocatorIcEEEENS4_IS6_EEE18__construct_at_endIPKS6_Li0EEEvT_SC_m, symObjAddr: 0x1872C, symBinAddr: 0x10001C8C0, symSize: 0x8C }
  - { offsetInCU: 0x2A0E6, offset: 0x2A0E6, size: 0x8, addend: 0x0, symName: __ZNKSt16initializer_listINSt3__112basic_stringIcNS0_11char_traitsIcEENS0_9allocatorIcEEEEE5beginB7v160006Ev, symObjAddr: 0x187B8, symBinAddr: 0x10001C94C, symSize: 0x18 }
  - { offsetInCU: 0x2A10C, offset: 0x2A10C, size: 0x8, addend: 0x0, symName: __ZNKSt16initializer_listINSt3__112basic_stringIcNS0_11char_traitsIcEENS0_9allocatorIcEEEEE3endB7v160006Ev, symObjAddr: 0x187D0, symBinAddr: 0x10001C964, symSize: 0x28 }
  - { offsetInCU: 0x2A132, offset: 0x2A132, size: 0x8, addend: 0x0, symName: __ZNSt3__16vectorINS0_INS_12basic_stringIcNS_11char_traitsIcEENS_9allocatorIcEEEENS4_IS6_EEEENS4_IS8_EEEC2B7v160006ESt16initializer_listIS8_E, symObjAddr: 0x188EC, symBinAddr: 0x10001CA80, symSize: 0x124 }
  - { offsetInCU: 0x2A183, offset: 0x2A183, size: 0x8, addend: 0x0, symName: __ZNSt3__117__compressed_pairIPNS_6vectorINS_12basic_stringIcNS_11char_traitsIcEENS_9allocatorIcEEEENS5_IS7_EEEENS5_IS9_EEEC1B7v160006IDnNS_18__default_init_tagEEEOT_OT0_, symObjAddr: 0x18A10, symBinAddr: 0x10001CBA4, symSize: 0x3C }
  - { offsetInCU: 0x2A1DB, offset: 0x2A1DB, size: 0x8, addend: 0x0, symName: __ZNKSt16initializer_listINSt3__16vectorINS0_12basic_stringIcNS0_11char_traitsIcEENS0_9allocatorIcEEEENS5_IS7_EEEEE4sizeB7v160006Ev, symObjAddr: 0x18A9C, symBinAddr: 0x10001CC30, symSize: 0x18 }
  - { offsetInCU: 0x2A201, offset: 0x2A201, size: 0x8, addend: 0x0, symName: __ZNSt3__16vectorINS0_INS_12basic_stringIcNS_11char_traitsIcEENS_9allocatorIcEEEENS4_IS6_EEEENS4_IS8_EEE11__vallocateB7v160006Em, symObjAddr: 0x18AB4, symBinAddr: 0x10001CC48, symSize: 0xB4 }
  - { offsetInCU: 0x2A245, offset: 0x2A245, size: 0x8, addend: 0x0, symName: __ZNSt3__16vectorINS0_INS_12basic_stringIcNS_11char_traitsIcEENS_9allocatorIcEEEENS4_IS6_EEEENS4_IS8_EEE18__construct_at_endIPKS8_Li0EEEvT_SE_m, symObjAddr: 0x18B68, symBinAddr: 0x10001CCFC, symSize: 0x8C }
  - { offsetInCU: 0x2A2B8, offset: 0x2A2B8, size: 0x8, addend: 0x0, symName: __ZNKSt16initializer_listINSt3__16vectorINS0_12basic_stringIcNS0_11char_traitsIcEENS0_9allocatorIcEEEENS5_IS7_EEEEE5beginB7v160006Ev, symObjAddr: 0x18BF4, symBinAddr: 0x10001CD88, symSize: 0x18 }
  - { offsetInCU: 0x2A2DE, offset: 0x2A2DE, size: 0x8, addend: 0x0, symName: __ZNKSt16initializer_listINSt3__16vectorINS0_12basic_stringIcNS0_11char_traitsIcEENS0_9allocatorIcEEEENS5_IS7_EEEEE3endB7v160006Ev, symObjAddr: 0x18C0C, symBinAddr: 0x10001CDA0, symSize: 0x28 }
  - { offsetInCU: 0x2A304, offset: 0x2A304, size: 0x8, addend: 0x0, symName: __ZNSt3__128__exception_guard_exceptionsINS_6vectorINS1_INS_12basic_stringIcNS_11char_traitsIcEENS_9allocatorIcEEEENS5_IS7_EEEENS5_IS9_EEE16__destroy_vectorEE10__completeB7v160006Ev, symObjAddr: 0x18C34, symBinAddr: 0x10001CDC8, symSize: 0x1C }
  - { offsetInCU: 0x2A32A, offset: 0x2A32A, size: 0x8, addend: 0x0, symName: __ZNSt3__128__exception_guard_exceptionsINS_6vectorINS1_INS_12basic_stringIcNS_11char_traitsIcEENS_9allocatorIcEEEENS5_IS7_EEEENS5_IS9_EEE16__destroy_vectorEED1B7v160006Ev, symObjAddr: 0x18C50, symBinAddr: 0x10001CDE4, symSize: 0x2C }
  - { offsetInCU: 0x2A354, offset: 0x2A354, size: 0x8, addend: 0x0, symName: __ZNSt3__117__compressed_pairIPNS_6vectorINS_12basic_stringIcNS_11char_traitsIcEENS_9allocatorIcEEEENS5_IS7_EEEENS5_IS9_EEEC2B7v160006IDnNS_18__default_init_tagEEEOT_OT0_, symObjAddr: 0x18C7C, symBinAddr: 0x10001CE10, symSize: 0x40 }
  - { offsetInCU: 0x2A3AC, offset: 0x2A3AC, size: 0x8, addend: 0x0, symName: __ZNSt3__122__compressed_pair_elemINS_9allocatorINS_6vectorINS_12basic_stringIcNS_11char_traitsIcEENS1_IcEEEENS1_IS7_EEEEEELi1ELb1EEC2B7v160006ENS_18__default_init_tagE, symObjAddr: 0x18CBC, symBinAddr: 0x10001CE50, symSize: 0x2C }
  - { offsetInCU: 0x2A3E1, offset: 0x2A3E1, size: 0x8, addend: 0x0, symName: __ZNSt3__19allocatorINS_6vectorINS_12basic_stringIcNS_11char_traitsIcEENS0_IcEEEENS0_IS6_EEEEEC2B7v160006Ev, symObjAddr: 0x18CE8, symBinAddr: 0x10001CE7C, symSize: 0x2C }
  - { offsetInCU: 0x2A40B, offset: 0x2A40B, size: 0x8, addend: 0x0, symName: __ZNSt3__116__non_trivial_ifILb1ENS_9allocatorINS_6vectorINS_12basic_stringIcNS_11char_traitsIcEENS1_IcEEEENS1_IS7_EEEEEEEC2B7v160006Ev, symObjAddr: 0x18D14, symBinAddr: 0x10001CEA8, symSize: 0x14 }
  - { offsetInCU: 0x2A435, offset: 0x2A435, size: 0x8, addend: 0x0, symName: __ZNSt3__128__exception_guard_exceptionsINS_6vectorINS1_INS_12basic_stringIcNS_11char_traitsIcEENS_9allocatorIcEEEENS5_IS7_EEEENS5_IS9_EEE16__destroy_vectorEEC1B7v160006ESC_, symObjAddr: 0x18D28, symBinAddr: 0x10001CEBC, symSize: 0x34 }
  - { offsetInCU: 0x2A46D, offset: 0x2A46D, size: 0x8, addend: 0x0, symName: __ZNSt3__128__exception_guard_exceptionsINS_6vectorINS1_INS_12basic_stringIcNS_11char_traitsIcEENS_9allocatorIcEEEENS5_IS7_EEEENS5_IS9_EEE16__destroy_vectorEEC2B7v160006ESC_, symObjAddr: 0x18D5C, symBinAddr: 0x10001CEF0, symSize: 0x24 }
  - { offsetInCU: 0x2A4A5, offset: 0x2A4A5, size: 0x8, addend: 0x0, symName: __ZNSt3__129_AllocatorDestroyRangeReverseINS_9allocatorINS_6vectorINS_12basic_stringIcNS_11char_traitsIcEENS1_IcEEEENS1_IS7_EEEEEEPS9_EC1B7v160006ERSA_RSB_SE_, symObjAddr: 0x18EC0, symBinAddr: 0x10001D054, symSize: 0x44 }
  - { offsetInCU: 0x2A4FC, offset: 0x2A4FC, size: 0x8, addend: 0x0, symName: __ZNSt3__116allocator_traitsINS_9allocatorINS_6vectorINS_12basic_stringIcNS_11char_traitsIcEENS1_IcEEEENS1_IS7_EEEEEEE9constructB7v160006IS9_JRKS9_EvvEEvRSA_PT_DpOT0_, symObjAddr: 0x18F04, symBinAddr: 0x10001D098, symSize: 0x30 }
  - { offsetInCU: 0x2A550, offset: 0x2A550, size: 0x8, addend: 0x0, symName: __ZNSt3__128__exception_guard_exceptionsINS_29_AllocatorDestroyRangeReverseINS_9allocatorINS_6vectorINS_12basic_stringIcNS_11char_traitsIcEENS2_IcEEEENS2_IS8_EEEEEEPSA_EEE10__completeB7v160006Ev, symObjAddr: 0x18F34, symBinAddr: 0x10001D0C8, symSize: 0x1C }
  - { offsetInCU: 0x2A576, offset: 0x2A576, size: 0x8, addend: 0x0, symName: __ZNSt3__128__exception_guard_exceptionsINS_29_AllocatorDestroyRangeReverseINS_9allocatorINS_6vectorINS_12basic_stringIcNS_11char_traitsIcEENS2_IcEEEENS2_IS8_EEEEEEPSA_EEED1B7v160006Ev, symObjAddr: 0x18F50, symBinAddr: 0x10001D0E4, symSize: 0x2C }
  - { offsetInCU: 0x2A5A0, offset: 0x2A5A0, size: 0x8, addend: 0x0, symName: __ZNSt3__128__exception_guard_exceptionsINS_29_AllocatorDestroyRangeReverseINS_9allocatorINS_6vectorINS_12basic_stringIcNS_11char_traitsIcEENS2_IcEEEENS2_IS8_EEEEEEPSA_EEEC1B7v160006ESD_, symObjAddr: 0x18F7C, symBinAddr: 0x10001D110, symSize: 0x34 }
  - { offsetInCU: 0x2A5D9, offset: 0x2A5D9, size: 0x8, addend: 0x0, symName: __ZNSt3__128__exception_guard_exceptionsINS_29_AllocatorDestroyRangeReverseINS_9allocatorINS_6vectorINS_12basic_stringIcNS_11char_traitsIcEENS2_IcEEEENS2_IS8_EEEEEEPSA_EEEC2B7v160006ESD_, symObjAddr: 0x18FB0, symBinAddr: 0x10001D144, symSize: 0x30 }
  - { offsetInCU: 0x2A612, offset: 0x2A612, size: 0x8, addend: 0x0, symName: __ZNSt3__129_AllocatorDestroyRangeReverseINS_9allocatorINS_6vectorINS_12basic_stringIcNS_11char_traitsIcEENS1_IcEEEENS1_IS7_EEEEEEPS9_EC2B7v160006ERSA_RSB_SE_, symObjAddr: 0x18FE0, symBinAddr: 0x10001D174, symSize: 0x38 }
  - { offsetInCU: 0x2A669, offset: 0x2A669, size: 0x8, addend: 0x0, symName: __ZNSt3__128__exception_guard_exceptionsINS_29_AllocatorDestroyRangeReverseINS_9allocatorINS_6vectorINS_12basic_stringIcNS_11char_traitsIcEENS2_IcEEEENS2_IS8_EEEEEEPSA_EEED2B7v160006Ev, symObjAddr: 0x19054, symBinAddr: 0x10001D1E8, symSize: 0x50 }
  - { offsetInCU: 0x2A693, offset: 0x2A693, size: 0x8, addend: 0x0, symName: __ZNKSt3__129_AllocatorDestroyRangeReverseINS_9allocatorINS_6vectorINS_12basic_stringIcNS_11char_traitsIcEENS1_IcEEEENS1_IS7_EEEEEEPS9_EclB7v160006Ev, symObjAddr: 0x190A4, symBinAddr: 0x10001D238, symSize: 0x68 }
  - { offsetInCU: 0x2A6B9, offset: 0x2A6B9, size: 0x8, addend: 0x0, symName: __ZNSt3__128__exception_guard_exceptionsINS_6vectorINS1_INS_12basic_stringIcNS_11char_traitsIcEENS_9allocatorIcEEEENS5_IS7_EEEENS5_IS9_EEE16__destroy_vectorEED2B7v160006Ev, symObjAddr: 0x1917C, symBinAddr: 0x10001D310, symSize: 0x50 }
  - { offsetInCU: 0x2A6E3, offset: 0x2A6E3, size: 0x8, addend: 0x0, symName: __ZNSt3__16vectorINS_12basic_stringIcNS_11char_traitsIcEENS_9allocatorIcEEEENS4_IS6_EEED2B7v160006Ev, symObjAddr: 0x191CC, symBinAddr: 0x10001D360, symSize: 0x44 }
  - { offsetInCU: 0x2A70D, offset: 0x2A70D, size: 0x8, addend: 0x0, symName: __ZNSt3__16vectorINS0_INS_12basic_stringIcNS_11char_traitsIcEENS_9allocatorIcEEEENS4_IS6_EEEENS4_IS8_EEEC2B7v160006Ev, symObjAddr: 0x19210, symBinAddr: 0x10001D3A4, symSize: 0x54 }
  - { offsetInCU: 0x2A737, offset: 0x2A737, size: 0x8, addend: 0x0, symName: __ZNSt3__16vectorINS0_INS_12basic_stringIcNS_11char_traitsIcEENS_9allocatorIcEEEENS4_IS6_EEEENS4_IS8_EEE21__push_back_slow_pathIS8_EEvOT_, symObjAddr: 0x19264, symBinAddr: 0x10001D3F8, symSize: 0xD8 }
  - { offsetInCU: 0x2A7B7, offset: 0x2A7B7, size: 0x8, addend: 0x0, symName: __ZNKSt3__16chrono10time_pointINS0_12steady_clockENS0_8durationIxNS_5ratioILl1ELl1000000000EEEEEE16time_since_epochB7v160006Ev, symObjAddr: 0x193AC, symBinAddr: 0x10001D540, symSize: 0x20 }
  - { offsetInCU: 0x2A7DD, offset: 0x2A7DD, size: 0x8, addend: 0x0, symName: __ZNKSt3__16chrono8durationIxNS_5ratioILl1ELl1000000000EEEE5countB7v160006Ev, symObjAddr: 0x193CC, symBinAddr: 0x10001D560, symSize: 0x18 }
  - { offsetInCU: 0x2A80E, offset: 0x2A80E, size: 0x8, addend: 0x0, symName: __ZNSt3__16chrono8durationIxNS_5ratioILl1ELl1000000000EEEEC1B7v160006IxEERKT_PNS_9enable_ifIXaasr14is_convertibleIS8_xEE5valueooL_ZNS_17integral_constantIbLb0EE5valueEEntsr23treat_as_floating_pointIS6_EE5valueEvE4typeE, symObjAddr: 0x193E4, symBinAddr: 0x10001D578, symSize: 0x3C }
  - { offsetInCU: 0x2A85A, offset: 0x2A85A, size: 0x8, addend: 0x0, symName: __ZNSt3__16chrono8durationIxNS_5ratioILl1ELl1000000000EEEEC2B7v160006IxEERKT_PNS_9enable_ifIXaasr14is_convertibleIS8_xEE5valueooL_ZNS_17integral_constantIbLb0EE5valueEEntsr23treat_as_floating_pointIS6_EE5valueEvE4typeE, symObjAddr: 0x19420, symBinAddr: 0x10001D5B4, symSize: 0x28 }
  - { offsetInCU: 0x2A8A6, offset: 0x2A8A6, size: 0x8, addend: 0x0, symName: __ZNSt3__16chrono8durationIdNS_5ratioILl1ELl1EEEEC2B7v160006IxNS2_ILl1ELl1000000000EEEEERKNS1_IT_T0_EEPNS_9enable_ifIXaasr13__no_overflowIS8_S3_EE5valueooL_ZNS_17integral_constantIbLb1EE5valueEEaaeqsr13__no_overflowIS8_S3_E4typeE3denLi1Entsr23treat_as_floating_pointIS7_EE5valueEvE4typeE, symObjAddr: 0x19448, symBinAddr: 0x10001D5DC, symSize: 0x48 }
  - { offsetInCU: 0x2A907, offset: 0x2A907, size: 0x8, addend: 0x0, symName: __ZNSt3__16chrono8durationIdNS_5ratioILl1ELl1EEEEC1B7v160006IdEERKT_PNS_9enable_ifIXaasr14is_convertibleIS8_dEE5valueooL_ZNS_17integral_constantIbLb1EE5valueEEntsr23treat_as_floating_pointIS6_EE5valueEvE4typeE, symObjAddr: 0x19510, symBinAddr: 0x10001D6A4, symSize: 0x3C }
  - { offsetInCU: 0x2A953, offset: 0x2A953, size: 0x8, addend: 0x0, symName: __ZNSt3__16chrono8durationIdNS_5ratioILl1ELl1EEEEC2B7v160006IdEERKT_PNS_9enable_ifIXaasr14is_convertibleIS8_dEE5valueooL_ZNS_17integral_constantIbLb1EE5valueEEntsr23treat_as_floating_pointIS6_EE5valueEvE4typeE, symObjAddr: 0x1954C, symBinAddr: 0x10001D6E0, symSize: 0x28 }
  - { offsetInCU: 0x2A9C2, offset: 0x2A9C2, size: 0x8, addend: 0x0, symName: __ZNKSt3__113basic_ostreamIcNS_11char_traitsIcEEE6sentrycvbB7v160006Ev, symObjAddr: 0x19760, symBinAddr: 0x10001D8F4, symSize: 0x1C }
  - { offsetInCU: 0x2A9E8, offset: 0x2A9E8, size: 0x8, addend: 0x0, symName: __ZNSt3__119ostreambuf_iteratorIcNS_11char_traitsIcEEEC1B7v160006ERNS_13basic_ostreamIcS2_EE, symObjAddr: 0x199BC, symBinAddr: 0x10001DB50, symSize: 0x34 }
  - { offsetInCU: 0x2AA20, offset: 0x2AA20, size: 0x8, addend: 0x0, symName: __ZNKSt3__18ios_base5flagsB7v160006Ev, symObjAddr: 0x199F0, symBinAddr: 0x10001DB84, symSize: 0x18 }
  - { offsetInCU: 0x2AA48, offset: 0x2AA48, size: 0x8, addend: 0x0, symName: __ZNKSt3__19basic_iosIcNS_11char_traitsIcEEE4fillB7v160006Ev, symObjAddr: 0x19A08, symBinAddr: 0x10001DB9C, symSize: 0x64 }
  - { offsetInCU: 0x2AA70, offset: 0x2AA70, size: 0x8, addend: 0x0, symName: __ZNKSt3__119ostreambuf_iteratorIcNS_11char_traitsIcEEE6failedB7v160006Ev, symObjAddr: 0x19A6C, symBinAddr: 0x10001DC00, symSize: 0x24 }
  - { offsetInCU: 0x2AA96, offset: 0x2AA96, size: 0x8, addend: 0x0, symName: __ZNSt3__19basic_iosIcNS_11char_traitsIcEEE8setstateB7v160006Ej, symObjAddr: 0x19A90, symBinAddr: 0x10001DC24, symSize: 0x2C }
  - { offsetInCU: 0x2AACB, offset: 0x2AACB, size: 0x8, addend: 0x0, symName: __ZNKSt3__18ios_base5widthB7v160006Ev, symObjAddr: 0x19ABC, symBinAddr: 0x10001DC50, symSize: 0x18 }
  - { offsetInCU: 0x2AAF3, offset: 0x2AAF3, size: 0x8, addend: 0x0, symName: __ZNSt3__115basic_streambufIcNS_11char_traitsIcEEE5sputnB7v160006EPKcl, symObjAddr: 0x19AD4, symBinAddr: 0x10001DC68, symSize: 0x3C }
  - { offsetInCU: 0x2AB35, offset: 0x2AB35, size: 0x8, addend: 0x0, symName: __ZNSt3__112basic_stringIcNS_11char_traitsIcEENS_9allocatorIcEEEC1B7v160006Emc, symObjAddr: 0x19B10, symBinAddr: 0x10001DCA4, symSize: 0x3C }
  - { offsetInCU: 0x2AB7D, offset: 0x2AB7D, size: 0x8, addend: 0x0, symName: __ZNSt3__112basic_stringIcNS_11char_traitsIcEENS_9allocatorIcEEE4dataB7v160006Ev, symObjAddr: 0x19B4C, symBinAddr: 0x10001DCE0, symSize: 0x28 }
  - { offsetInCU: 0x2ABA3, offset: 0x2ABA3, size: 0x8, addend: 0x0, symName: __ZNSt3__18ios_base5widthB7v160006El, symObjAddr: 0x19B74, symBinAddr: 0x10001DD08, symSize: 0x2C }
  - { offsetInCU: 0x2ABE9, offset: 0x2ABE9, size: 0x8, addend: 0x0, symName: __ZNSt3__112basic_stringIcNS_11char_traitsIcEENS_9allocatorIcEEEC2B7v160006Emc, symObjAddr: 0x19BA0, symBinAddr: 0x10001DD34, symSize: 0x54 }
  - { offsetInCU: 0x2AC31, offset: 0x2AC31, size: 0x8, addend: 0x0, symName: __ZNSt3__112basic_stringIcNS_11char_traitsIcEENS_9allocatorIcEEE13__get_pointerB7v160006Ev, symObjAddr: 0x19C08, symBinAddr: 0x10001DD9C, symSize: 0x54 }
  - { offsetInCU: 0x2AC57, offset: 0x2AC57, size: 0x8, addend: 0x0, symName: __ZNSt3__119ostreambuf_iteratorIcNS_11char_traitsIcEEEC2B7v160006ERNS_13basic_ostreamIcS2_EE, symObjAddr: 0x19C5C, symBinAddr: 0x10001DDF0, symSize: 0x54 }
  - { offsetInCU: 0x2AC8F, offset: 0x2AC8F, size: 0x8, addend: 0x0, symName: __ZNKSt3__19basic_iosIcNS_11char_traitsIcEEE5rdbufB7v160006Ev, symObjAddr: 0x19CB0, symBinAddr: 0x10001DE44, symSize: 0x24 }
  - { offsetInCU: 0x2ACB7, offset: 0x2ACB7, size: 0x8, addend: 0x0, symName: __ZNKSt3__18ios_base5rdbufB7v160006Ev, symObjAddr: 0x19CD4, symBinAddr: 0x10001DE68, symSize: 0x18 }
  - { offsetInCU: 0x2ACDD, offset: 0x2ACDD, size: 0x8, addend: 0x0, symName: __ZNSt3__111char_traitsIcE11eq_int_typeEii, symObjAddr: 0x19CEC, symBinAddr: 0x10001DE80, symSize: 0x28 }
  - { offsetInCU: 0x2AD0E, offset: 0x2AD0E, size: 0x8, addend: 0x0, symName: __ZNSt3__111char_traitsIcE3eofEv, symObjAddr: 0x19D14, symBinAddr: 0x10001DEA8, symSize: 0x8 }
  - { offsetInCU: 0x2AD22, offset: 0x2AD22, size: 0x8, addend: 0x0, symName: __ZNKSt3__19basic_iosIcNS_11char_traitsIcEEE5widenB7v160006Ec, symObjAddr: 0x19D1C, symBinAddr: 0x10001DEB0, symSize: 0x84 }
  - { offsetInCU: 0x2AD97, offset: 0x2AD97, size: 0x8, addend: 0x0, symName: __ZNKSt3__15ctypeIcE5widenB7v160006Ec, symObjAddr: 0x19DCC, symBinAddr: 0x10001DF60, symSize: 0x38 }
  - { offsetInCU: 0x2ADCC, offset: 0x2ADCC, size: 0x8, addend: 0x0, symName: __ZNSt3__18ios_base8setstateB7v160006Ej, symObjAddr: 0x19E04, symBinAddr: 0x10001DF98, symSize: 0x34 }
...
