---
triple:          'arm64-apple-darwin'
binary-path:     lc208
relocations:
  - { offsetInCU: 0x5C, offset: 0x5C, size: 0x8, addend: 0x0, symName: __ZNSt3__1L19piecewise_constructE, symObjAddr: 0xA93C, symBinAddr: 0x10000B88C, symSize: 0x0 }
  - { offsetInCU: 0x4903, offset: 0x4903, size: 0x8, addend: 0x0, symName: __ZNSt3__17advanceB7v160006IPNS_12basic_stringIcNS_11char_traitsIcEENS_9allocatorIcEEEEllvEEvRT_T0_, symObjAddr: 0x355C, symBinAddr: 0x1000041A0, symSize: 0x50 }
  - { offsetInCU: 0x5F26, offset: 0x5F26, size: 0x8, addend: 0x0, symName: __ZNSt3__17advanceB7v160006IPNS_4pairINS_12basic_stringIcNS_11char_traitsIcEENS_9allocatorIcEEEENS_6vectorIS7_NS5_IS7_EEEEEEllvEEvRT_T0_, symObjAddr: 0x4F24, symBinAddr: 0x100005B68, symSize: 0x50 }
  - { offsetInCU: 0xA4A0, offset: 0xA4A0, size: 0x8, addend: 0x0, symName: __ZNSt3__124__put_character_sequenceB7v160006IcNS_11char_traitsIcEEEERNS_13basic_ostreamIT_T0_EES7_PKS4_m, symObjAddr: 0x9BB4, symBinAddr: 0x10000A7F8, symSize: 0x1EC }
  - { offsetInCU: 0xC4C5, offset: 0xC4C5, size: 0x8, addend: 0x0, symName: __ZNSt3__1neB7v160006IPNS_4pairINS_12basic_stringIcNS_11char_traitsIcEENS_9allocatorIcEEEENS_6vectorIS7_NS5_IS7_EEEEEEEEbRKNS_11__wrap_iterIT_EESH_, symObjAddr: 0x1B74, symBinAddr: 0x1000027B8, symSize: 0x34 }
  - { offsetInCU: 0xC508, offset: 0xC508, size: 0x8, addend: 0x0, symName: __ZNSt3__1eqB7v160006IcNS_11char_traitsIcEENS_9allocatorIcEEEEbRKNS_12basic_stringIT_T0_T1_EEPKS6_, symObjAddr: 0x1BC0, symBinAddr: 0x100002804, symSize: 0x5C }
  - { offsetInCU: 0xC560, offset: 0xC560, size: 0x8, addend: 0x0, symName: __ZNSt3__1lsB7v160006INS_11char_traitsIcEEEERNS_13basic_ostreamIcT_EES6_PKc, symObjAddr: 0x1E18, symBinAddr: 0x100002A5C, symSize: 0x48 }
  - { offsetInCU: 0xC5A6, offset: 0xC5A6, size: 0x8, addend: 0x0, symName: __ZNSt3__1lsB7v160006IcNS_11char_traitsIcEENS_9allocatorIcEEEERNS_13basic_ostreamIT_T0_EES9_RKNS_12basic_stringIS6_S7_T1_EE, symObjAddr: 0x1E60, symBinAddr: 0x100002AA4, symSize: 0x4C }
  - { offsetInCU: 0xC5FE, offset: 0xC5FE, size: 0x8, addend: 0x0, symName: __ZNSt3__14endlB7v160006IcNS_11char_traitsIcEEEERNS_13basic_ostreamIT_T0_EES7_, symObjAddr: 0x1F40, symBinAddr: 0x100002B84, symSize: 0x58 }
  - { offsetInCU: 0xC63E, offset: 0xC63E, size: 0x8, addend: 0x0, symName: __ZNSt3__119__debug_db_insert_cB7v160006INS_12basic_stringIcNS_11char_traitsIcEENS_9allocatorIcEEEEEEvPT_, symObjAddr: 0x21B8, symBinAddr: 0x100002DFC, symSize: 0x10 }
  - { offsetInCU: 0xC66F, offset: 0xC66F, size: 0x8, addend: 0x0, symName: __ZNSt3__118__constexpr_strlenB7v160006EPKc, symObjAddr: 0x2284, symBinAddr: 0x100002EC8, symSize: 0x24 }
  - { offsetInCU: 0xC69B, offset: 0xC69B, size: 0x8, addend: 0x0, symName: __ZNSt3__122__make_exception_guardB7v160006INS_6vectorINS_12basic_stringIcNS_11char_traitsIcEENS_9allocatorIcEEEENS5_IS7_EEE16__destroy_vectorEEENS_28__exception_guard_exceptionsIT_EESC_, symObjAddr: 0x2414, symBinAddr: 0x100003058, symSize: 0x40 }
  - { offsetInCU: 0xC6D0, offset: 0xC6D0, size: 0x8, addend: 0x0, symName: __ZNSt3__119__debug_db_insert_cB7v160006INS_6vectorINS_12basic_stringIcNS_11char_traitsIcEENS_9allocatorIcEEEENS5_IS7_EEEEEEvPT_, symObjAddr: 0x2488, symBinAddr: 0x1000030CC, symSize: 0x10 }
  - { offsetInCU: 0xC701, offset: 0xC701, size: 0x8, addend: 0x0, symName: __ZNSt3__119__allocate_at_leastB7v160006INS_9allocatorINS_12basic_stringIcNS_11char_traitsIcEENS1_IcEEEEEEEENS_19__allocation_resultINS_16allocator_traitsIT_E7pointerEEERSA_m, symObjAddr: 0x2834, symBinAddr: 0x100003478, symSize: 0x40 }
  - { offsetInCU: 0xC744, offset: 0xC744, size: 0x8, addend: 0x0, symName: __ZNSt3__13minB7v160006ImEERKT_S3_S3_, symObjAddr: 0x298C, symBinAddr: 0x1000035D0, symSize: 0x2C }
  - { offsetInCU: 0xC971, offset: 0xC971, size: 0x8, addend: 0x0, symName: __ZNSt3__13minB7v160006ImNS_6__lessImmEEEERKT_S5_S5_T0_, symObjAddr: 0x2A1C, symBinAddr: 0x100003660, symSize: 0x54 }
  - { offsetInCU: 0xCA06, offset: 0xCA06, size: 0x8, addend: 0x0, symName: __ZNSt3__120__throw_length_errorB7v160006EPKc, symObjAddr: 0x2B00, symBinAddr: 0x100003744, symSize: 0x64 }
  - { offsetInCU: 0xCA2E, offset: 0xCA2E, size: 0x8, addend: 0x0, symName: __ZNSt3__117__libcpp_allocateB7v160006Emm, symObjAddr: 0x2C74, symBinAddr: 0x1000038B8, symSize: 0x60 }
  - { offsetInCU: 0xCA88, offset: 0xCA88, size: 0x8, addend: 0x0, symName: __ZNSt3__124__is_overaligned_for_newB7v160006Em, symObjAddr: 0x2CD4, symBinAddr: 0x100003918, symSize: 0x20 }
  - { offsetInCU: 0xCAB6, offset: 0xCAB6, size: 0x8, addend: 0x0, symName: __ZNSt3__121__libcpp_operator_newB7v160006IJmSt11align_val_tEEEPvDpT_, symObjAddr: 0x2CF4, symBinAddr: 0x100003938, symSize: 0x2C }
  - { offsetInCU: 0xCB03, offset: 0xCB03, size: 0x8, addend: 0x0, symName: __ZNSt3__121__libcpp_operator_newB7v160006IJmEEEPvDpT_, symObjAddr: 0x2D20, symBinAddr: 0x100003964, symSize: 0x24 }
  - { offsetInCU: 0xCB3C, offset: 0xCB3C, size: 0x8, addend: 0x0, symName: __ZNSt3__112__to_addressB7v160006INS_12basic_stringIcNS_11char_traitsIcEENS_9allocatorIcEEEEEEPT_S8_, symObjAddr: 0x2E3C, symBinAddr: 0x100003A80, symSize: 0x14 }
  - { offsetInCU: 0xCB71, offset: 0xCB71, size: 0x8, addend: 0x0, symName: __ZNSt3__130__uninitialized_allocator_copyB7v160006INS_9allocatorINS_12basic_stringIcNS_11char_traitsIcEENS1_IcEEEEEEPKS6_S9_PS6_EET2_RT_T0_T1_SB_, symObjAddr: 0x2EEC, symBinAddr: 0x100003B30, symSize: 0xF4 }
  - { offsetInCU: 0xCC0F, offset: 0xCC0F, size: 0x8, addend: 0x0, symName: __ZNSt3__122__make_exception_guardB7v160006INS_29_AllocatorDestroyRangeReverseINS_9allocatorINS_12basic_stringIcNS_11char_traitsIcEENS2_IcEEEEEEPS7_EEEENS_28__exception_guard_exceptionsIT_EESC_, symObjAddr: 0x3058, symBinAddr: 0x100003C9C, symSize: 0x4C }
  - { offsetInCU: 0xCC6A, offset: 0xCC6A, size: 0x8, addend: 0x0, symName: __ZNSt3__112construct_atB7v160006INS_12basic_stringIcNS_11char_traitsIcEENS_9allocatorIcEEEEJRKS6_EPS6_EEPT_SB_DpOT0_, symObjAddr: 0x31FC, symBinAddr: 0x100003E40, symSize: 0x3C }
  - { offsetInCU: 0xCCDA, offset: 0xCCDA, size: 0x8, addend: 0x0, symName: __ZNSt3__119__allocator_destroyB7v160006INS_9allocatorINS_12basic_stringIcNS_11char_traitsIcEENS1_IcEEEEEENS_16reverse_iteratorIPS6_EESA_EEvRT_T0_T1_, symObjAddr: 0x32F0, symBinAddr: 0x100003F34, symSize: 0x70 }
  - { offsetInCU: 0xCD3D, offset: 0xCD3D, size: 0x8, addend: 0x0, symName: __ZNSt3__1neB7v160006IPNS_12basic_stringIcNS_11char_traitsIcEENS_9allocatorIcEEEES7_EEbRKNS_16reverse_iteratorIT_EERKNS8_IT0_EE, symObjAddr: 0x3394, symBinAddr: 0x100003FD8, symSize: 0x48 }
  - { offsetInCU: 0xCD89, offset: 0xCD89, size: 0x8, addend: 0x0, symName: __ZNSt3__112__to_addressB7v160006INS_16reverse_iteratorIPNS_12basic_stringIcNS_11char_traitsIcEENS_9allocatorIcEEEEEEvEENS_5decayIDTclsr19__to_address_helperIT_EE6__callclsr3stdE7declvalIRKSB_EEEEE4typeESD_, symObjAddr: 0x3404, symBinAddr: 0x100004048, symSize: 0x24 }
  - { offsetInCU: 0xCDBF, offset: 0xCDBF, size: 0x8, addend: 0x0, symName: __ZNSt3__110destroy_atB7v160006INS_12basic_stringIcNS_11char_traitsIcEENS_9allocatorIcEEEELi0EEEvPT_, symObjAddr: 0x3460, symBinAddr: 0x1000040A4, symSize: 0x24 }
  - { offsetInCU: 0xCDF6, offset: 0xCDF6, size: 0x8, addend: 0x0, symName: __ZNSt3__112__destroy_atB7v160006INS_12basic_stringIcNS_11char_traitsIcEENS_9allocatorIcEEEELi0EEEvPT_, symObjAddr: 0x3484, symBinAddr: 0x1000040C8, symSize: 0x24 }
  - { offsetInCU: 0xCE56, offset: 0xCE56, size: 0x8, addend: 0x0, symName: __ZNSt3__14prevB7v160006IPNS_12basic_stringIcNS_11char_traitsIcEENS_9allocatorIcEEEEEENS_9enable_ifIXsr25__is_cpp17_input_iteratorIT_EE5valueES9_E4typeES9_NS_15iterator_traitsIS9_E15difference_typeE, symObjAddr: 0x350C, symBinAddr: 0x100004150, symSize: 0x50 }
  - { offsetInCU: 0xCE99, offset: 0xCE99, size: 0x8, addend: 0x0, symName: __ZNSt3__121__convert_to_integralB7v160006El, symObjAddr: 0x35AC, symBinAddr: 0x1000041F0, symSize: 0x14 }
  - { offsetInCU: 0xCEC5, offset: 0xCEC5, size: 0x8, addend: 0x0, symName: __ZNSt3__19__advanceB7v160006IPNS_12basic_stringIcNS_11char_traitsIcEENS_9allocatorIcEEEEEEvRT_NS_15iterator_traitsIS8_E15difference_typeENS_26random_access_iterator_tagE, symObjAddr: 0x35C0, symBinAddr: 0x100004204, symSize: 0x30 }
  - { offsetInCU: 0xCF0E, offset: 0xCF0E, size: 0x8, addend: 0x0, symName: __ZNSt3__118__debug_db_erase_cB7v160006INS_6vectorINS_12basic_stringIcNS_11char_traitsIcEENS_9allocatorIcEEEENS5_IS7_EEEEEEvPT_, symObjAddr: 0x37F8, symBinAddr: 0x10000443C, symSize: 0x10 }
  - { offsetInCU: 0xCF3F, offset: 0xCF3F, size: 0x8, addend: 0x0, symName: __ZNSt3__119__libcpp_deallocateB7v160006EPvmm, symObjAddr: 0x395C, symBinAddr: 0x1000045A0, symSize: 0x60 }
  - { offsetInCU: 0xCFA4, offset: 0xCFA4, size: 0x8, addend: 0x0, symName: __ZNSt3__127__do_deallocate_handle_sizeB7v160006IJSt11align_val_tEEEvPvmDpT_, symObjAddr: 0x39BC, symBinAddr: 0x100004600, symSize: 0x30 }
  - { offsetInCU: 0xCFF7, offset: 0xCFF7, size: 0x8, addend: 0x0, symName: __ZNSt3__127__do_deallocate_handle_sizeB7v160006IJEEEvPvmDpT_, symObjAddr: 0x39EC, symBinAddr: 0x100004630, symSize: 0x28 }
  - { offsetInCU: 0xD035, offset: 0xD035, size: 0x8, addend: 0x0, symName: __ZNSt3__124__libcpp_operator_deleteB7v160006IJPvSt11align_val_tEEEvDpT_, symObjAddr: 0x3A14, symBinAddr: 0x100004658, symSize: 0x2C }
  - { offsetInCU: 0xD07E, offset: 0xD07E, size: 0x8, addend: 0x0, symName: __ZNSt3__124__libcpp_operator_deleteB7v160006IJPvEEEvDpT_, symObjAddr: 0x3A40, symBinAddr: 0x100004684, symSize: 0x24 }
  - { offsetInCU: 0xD0B3, offset: 0xD0B3, size: 0x8, addend: 0x0, symName: __ZNSt3__130__uninitialized_allocator_copyB7v160006INS_9allocatorINS_12basic_stringIcNS_11char_traitsIcEENS1_IcEEEEEEPS6_S8_S8_EET2_RT_T0_T1_S9_, symObjAddr: 0x3D4C, symBinAddr: 0x100004990, symSize: 0xF4 }
  - { offsetInCU: 0xD151, offset: 0xD151, size: 0x8, addend: 0x0, symName: __ZNSt3__112construct_atB7v160006INS_12basic_stringIcNS_11char_traitsIcEENS_9allocatorIcEEEEJRS6_EPS6_EEPT_SA_DpOT0_, symObjAddr: 0x3E70, symBinAddr: 0x100004AB4, symSize: 0x3C }
  - { offsetInCU: 0xD1C1, offset: 0xD1C1, size: 0x8, addend: 0x0, symName: __ZNSt3__122__make_exception_guardB7v160006INS_6vectorINS_4pairINS_12basic_stringIcNS_11char_traitsIcEENS_9allocatorIcEEEENS1_IS8_NS6_IS8_EEEEEENS6_ISB_EEE16__destroy_vectorEEENS_28__exception_guard_exceptionsIT_EESG_, symObjAddr: 0x400C, symBinAddr: 0x100004C50, symSize: 0x40 }
  - { offsetInCU: 0xD1F6, offset: 0xD1F6, size: 0x8, addend: 0x0, symName: __ZNSt3__119__debug_db_insert_cB7v160006INS_6vectorINS_4pairINS_12basic_stringIcNS_11char_traitsIcEENS_9allocatorIcEEEENS1_IS8_NS6_IS8_EEEEEENS6_ISB_EEEEEEvPT_, symObjAddr: 0x4080, symBinAddr: 0x100004CC4, symSize: 0x10 }
  - { offsetInCU: 0xD227, offset: 0xD227, size: 0x8, addend: 0x0, symName: __ZNSt3__119__allocate_at_leastB7v160006INS_9allocatorINS_4pairINS_12basic_stringIcNS_11char_traitsIcEENS1_IcEEEENS_6vectorIS7_NS1_IS7_EEEEEEEEEENS_19__allocation_resultINS_16allocator_traitsIT_E7pointerEEERSF_m, symObjAddr: 0x442C, symBinAddr: 0x100005070, symSize: 0x40 }
  - { offsetInCU: 0xD26A, offset: 0xD26A, size: 0x8, addend: 0x0, symName: __ZNSt3__112__to_addressB7v160006INS_4pairINS_12basic_stringIcNS_11char_traitsIcEENS_9allocatorIcEEEENS_6vectorIS7_NS5_IS7_EEEEEEEEPT_SD_, symObjAddr: 0x4760, symBinAddr: 0x1000053A4, symSize: 0x14 }
  - { offsetInCU: 0xD29F, offset: 0xD29F, size: 0x8, addend: 0x0, symName: __ZNSt3__130__uninitialized_allocator_copyB7v160006INS_9allocatorINS_4pairINS_12basic_stringIcNS_11char_traitsIcEENS1_IcEEEENS_6vectorIS7_NS1_IS7_EEEEEEEEPKSB_SE_PSB_EET2_RT_T0_T1_SG_, symObjAddr: 0x4810, symBinAddr: 0x100005454, symSize: 0xF4 }
  - { offsetInCU: 0xD33D, offset: 0xD33D, size: 0x8, addend: 0x0, symName: __ZNSt3__122__make_exception_guardB7v160006INS_29_AllocatorDestroyRangeReverseINS_9allocatorINS_4pairINS_12basic_stringIcNS_11char_traitsIcEENS2_IcEEEENS_6vectorIS8_NS2_IS8_EEEEEEEEPSC_EEEENS_28__exception_guard_exceptionsIT_EESH_, symObjAddr: 0x497C, symBinAddr: 0x1000055C0, symSize: 0x4C }
  - { offsetInCU: 0xD398, offset: 0xD398, size: 0x8, addend: 0x0, symName: __ZNSt3__112construct_atB7v160006INS_4pairINS_12basic_stringIcNS_11char_traitsIcEENS_9allocatorIcEEEENS_6vectorIS7_NS5_IS7_EEEEEEJRKSB_EPSB_EEPT_SG_DpOT0_, symObjAddr: 0x4B20, symBinAddr: 0x100005764, symSize: 0x3C }
  - { offsetInCU: 0xD408, offset: 0xD408, size: 0x8, addend: 0x0, symName: __ZNSt3__119__allocator_destroyB7v160006INS_9allocatorINS_4pairINS_12basic_stringIcNS_11char_traitsIcEENS1_IcEEEENS_6vectorIS7_NS1_IS7_EEEEEEEENS_16reverse_iteratorIPSB_EESF_EEvRT_T0_T1_, symObjAddr: 0x4CB8, symBinAddr: 0x1000058FC, symSize: 0x70 }
  - { offsetInCU: 0xD46B, offset: 0xD46B, size: 0x8, addend: 0x0, symName: __ZNSt3__1neB7v160006IPNS_4pairINS_12basic_stringIcNS_11char_traitsIcEENS_9allocatorIcEEEENS_6vectorIS7_NS5_IS7_EEEEEESC_EEbRKNS_16reverse_iteratorIT_EERKNSD_IT0_EE, symObjAddr: 0x4D5C, symBinAddr: 0x1000059A0, symSize: 0x48 }
  - { offsetInCU: 0xD4B7, offset: 0xD4B7, size: 0x8, addend: 0x0, symName: __ZNSt3__112__to_addressB7v160006INS_16reverse_iteratorIPNS_4pairINS_12basic_stringIcNS_11char_traitsIcEENS_9allocatorIcEEEENS_6vectorIS8_NS6_IS8_EEEEEEEEvEENS_5decayIDTclsr19__to_address_helperIT_EE6__callclsr3stdE7declvalIRKSG_EEEEE4typeESI_, symObjAddr: 0x4DCC, symBinAddr: 0x100005A10, symSize: 0x24 }
  - { offsetInCU: 0xD4ED, offset: 0xD4ED, size: 0x8, addend: 0x0, symName: __ZNSt3__110destroy_atB7v160006INS_4pairINS_12basic_stringIcNS_11char_traitsIcEENS_9allocatorIcEEEENS_6vectorIS7_NS5_IS7_EEEEEELi0EEEvPT_, symObjAddr: 0x4E28, symBinAddr: 0x100005A6C, symSize: 0x24 }
  - { offsetInCU: 0xD524, offset: 0xD524, size: 0x8, addend: 0x0, symName: __ZNSt3__112__destroy_atB7v160006INS_4pairINS_12basic_stringIcNS_11char_traitsIcEENS_9allocatorIcEEEENS_6vectorIS7_NS5_IS7_EEEEEELi0EEEvPT_, symObjAddr: 0x4E4C, symBinAddr: 0x100005A90, symSize: 0x24 }
  - { offsetInCU: 0xD584, offset: 0xD584, size: 0x8, addend: 0x0, symName: __ZNSt3__14prevB7v160006IPNS_4pairINS_12basic_stringIcNS_11char_traitsIcEENS_9allocatorIcEEEENS_6vectorIS7_NS5_IS7_EEEEEEEENS_9enable_ifIXsr25__is_cpp17_input_iteratorIT_EE5valueESE_E4typeESE_NS_15iterator_traitsISE_E15difference_typeE, symObjAddr: 0x4ED4, symBinAddr: 0x100005B18, symSize: 0x50 }
  - { offsetInCU: 0xD5C7, offset: 0xD5C7, size: 0x8, addend: 0x0, symName: __ZNSt3__19__advanceB7v160006IPNS_4pairINS_12basic_stringIcNS_11char_traitsIcEENS_9allocatorIcEEEENS_6vectorIS7_NS5_IS7_EEEEEEEEvRT_NS_15iterator_traitsISD_E15difference_typeENS_26random_access_iterator_tagE, symObjAddr: 0x4F74, symBinAddr: 0x100005BB8, symSize: 0x30 }
  - { offsetInCU: 0xD610, offset: 0xD610, size: 0x8, addend: 0x0, symName: __ZNSt3__118__debug_db_erase_cB7v160006INS_6vectorINS_4pairINS_12basic_stringIcNS_11char_traitsIcEENS_9allocatorIcEEEENS1_IS8_NS6_IS8_EEEEEENS6_ISB_EEEEEEvPT_, symObjAddr: 0x51AC, symBinAddr: 0x100005DF0, symSize: 0x10 }
  - { offsetInCU: 0xD65D, offset: 0xD65D, size: 0x8, addend: 0x0, symName: __ZNSt3__119__allocate_at_leastB7v160006INS_9allocatorImEEEENS_19__allocation_resultINS_16allocator_traitsIT_E7pointerEEERS5_m, symObjAddr: 0x57F4, symBinAddr: 0x100006438, symSize: 0x40 }
  - { offsetInCU: 0xD6A0, offset: 0xD6A0, size: 0x8, addend: 0x0, symName: __ZNSt3__18distanceB7v160006IPKbEENS_15iterator_traitsIT_E15difference_typeES4_S4_, symObjAddr: 0x5A10, symBinAddr: 0x100006654, symSize: 0x2C }
  - { offsetInCU: 0xD6E3, offset: 0xD6E3, size: 0x8, addend: 0x0, symName: __ZNSt3__14copyB7v160006IPKbNS_14__bit_iteratorINS_6vectorIbNS_9allocatorIbEEEELb0ELm0EEEEET0_T_SA_S9_, symObjAddr: 0x5A3C, symBinAddr: 0x100006680, symSize: 0x80 }
  - { offsetInCU: 0xD73E, offset: 0xD73E, size: 0x8, addend: 0x0, symName: __ZNSt3__110__distanceB7v160006IPKbEENS_15iterator_traitsIT_E15difference_typeES4_S4_NS_26random_access_iterator_tagE, symObjAddr: 0x5B20, symBinAddr: 0x100006764, symSize: 0x20 }
  - { offsetInCU: 0xD78B, offset: 0xD78B, size: 0x8, addend: 0x0, symName: __ZNSt3__16__copyB7v160006INS_17_ClassicAlgPolicyEPKbS3_NS_14__bit_iteratorINS_6vectorIbNS_9allocatorIbEEEELb0ELm0EEEEENS_4pairIT0_T2_EESB_T1_SC_, symObjAddr: 0x5B40, symBinAddr: 0x100006784, symSize: 0x6C }
  - { offsetInCU: 0xD7F8, offset: 0xD7F8, size: 0x8, addend: 0x0, symName: __ZNSt3__123__dispatch_copy_or_moveB7v160006INS_17_ClassicAlgPolicyENS_11__copy_loopIS1_EENS_14__copy_trivialEPKbS6_NS_14__bit_iteratorINS_6vectorIbNS_9allocatorIbEEEELb0ELm0EEEEENS_4pairIT2_T4_EESE_T3_SF_, symObjAddr: 0x5BE0, symBinAddr: 0x100006824, symSize: 0x6C }
  - { offsetInCU: 0xD877, offset: 0xD877, size: 0x8, addend: 0x0, symName: __ZNSt3__121__unwrap_and_dispatchB7v160006INS_10__overloadINS_11__copy_loopINS_17_ClassicAlgPolicyEEENS_14__copy_trivialEEEPKbS8_NS_14__bit_iteratorINS_6vectorIbNS_9allocatorIbEEEELb0ELm0EEELi0EEENS_4pairIT0_T2_EESG_T1_SH_, symObjAddr: 0x5C4C, symBinAddr: 0x100006890, symSize: 0xFC }
  - { offsetInCU: 0xD907, offset: 0xD907, size: 0x8, addend: 0x0, symName: __ZNSt3__114__unwrap_rangeB7v160006IPKbS2_EEDaT_T0_, symObjAddr: 0x5D48, symBinAddr: 0x10000698C, symSize: 0x3C }
  - { offsetInCU: 0xDA82, offset: 0xDA82, size: 0x8, addend: 0x0, symName: __ZNSt3__113__unwrap_iterB7v160006INS_14__bit_iteratorINS_6vectorIbNS_9allocatorIbEEEELb0ELm0EEENS_18__unwrap_iter_implIS6_Lb0EEELi0EEEDTclsrT0_8__unwrapclsr3stdE7declvalIT_EEEESA_, symObjAddr: 0x5E2C, symBinAddr: 0x100006A70, symSize: 0x44 }
  - { offsetInCU: 0xDAC7, offset: 0xDAC7, size: 0x8, addend: 0x0, symName: __ZNSt3__19make_pairB7v160006IPKbNS_14__bit_iteratorINS_6vectorIbNS_9allocatorIbEEEELb0ELm0EEEEENS_4pairINS_18__unwrap_ref_decayIT_E4typeENSA_IT0_E4typeEEEOSB_OSE_, symObjAddr: 0x5E70, symBinAddr: 0x100006AB4, symSize: 0x40 }
  - { offsetInCU: 0xDB16, offset: 0xDB16, size: 0x8, addend: 0x0, symName: __ZNSt3__114__rewrap_rangeB7v160006IPKbS2_S2_EET0_S3_T1_, symObjAddr: 0x5EB0, symBinAddr: 0x100006AF4, symSize: 0x2C }
  - { offsetInCU: 0xDB6B, offset: 0xDB6B, size: 0x8, addend: 0x0, symName: __ZNSt3__113__rewrap_iterB7v160006INS_14__bit_iteratorINS_6vectorIbNS_9allocatorIbEEEELb0ELm0EEES6_NS_18__unwrap_iter_implIS6_Lb0EEEEET_S9_T0_, symObjAddr: 0x5EDC, symBinAddr: 0x100006B20, symSize: 0x74 }
  - { offsetInCU: 0xDCDE, offset: 0xDCDE, size: 0x8, addend: 0x0, symName: __ZNSt3__113__unwrap_iterB7v160006IPKbNS_18__unwrap_iter_implIS2_Lb1EEELi0EEEDTclsrT0_8__unwrapclsr3stdE7declvalIT_EEEES6_, symObjAddr: 0x5FA8, symBinAddr: 0x100006BEC, symSize: 0x24 }
  - { offsetInCU: 0xDD75, offset: 0xDD75, size: 0x8, addend: 0x0, symName: __ZNSt3__112__to_addressB7v160006IKbEEPT_S3_, symObjAddr: 0x602C, symBinAddr: 0x100006C70, symSize: 0x14 }
  - { offsetInCU: 0xDDF2, offset: 0xDDF2, size: 0x8, addend: 0x0, symName: __ZNSt3__113__rewrap_iterB7v160006IPKbS2_NS_18__unwrap_iter_implIS2_Lb1EEEEET_S5_T0_, symObjAddr: 0x62D0, symBinAddr: 0x100006F14, symSize: 0x3C }
  - { offsetInCU: 0xDE47, offset: 0xDE47, size: 0x8, addend: 0x0, symName: __ZNSt3__1eqB7v160006IPNS_4pairINS_12basic_stringIcNS_11char_traitsIcEENS_9allocatorIcEEEENS_6vectorIS7_NS5_IS7_EEEEEEEEbRKNS_11__wrap_iterIT_EESH_, symObjAddr: 0x64D0, symBinAddr: 0x100007114, symSize: 0x48 }
  - { offsetInCU: 0xDE8A, offset: 0xDE8A, size: 0x8, addend: 0x0, symName: __ZNSt3__1eqB7v160006IcNS_11char_traitsIcEEEEbNS_17basic_string_viewIT_T0_EES6_, symObjAddr: 0x6530, symBinAddr: 0x100007174, symSize: 0xB0 }
  - { offsetInCU: 0xDED9, offset: 0xDED9, size: 0x8, addend: 0x0, symName: __ZNSt3__118__constexpr_memcmpB7v160006IcEEiPKT_S3_m, symObjAddr: 0x683C, symBinAddr: 0x100007480, symSize: 0x34 }
  - { offsetInCU: 0xDF2A, offset: 0xDF2A, size: 0x8, addend: 0x0, symName: __ZNSt3__112__to_addressB7v160006IKcEEPT_S3_, symObjAddr: 0x6928, symBinAddr: 0x10000756C, symSize: 0x14 }
  - { offsetInCU: 0xDF92, offset: 0xDF92, size: 0x8, addend: 0x0, symName: __ZNSt3__128__char_traits_length_checkedB7v160006INS_11char_traitsIcEEEEmPKNT_9char_typeE, symObjAddr: 0x6B54, symBinAddr: 0x100007798, symSize: 0x24 }
  - { offsetInCU: 0xDFC7, offset: 0xDFC7, size: 0x8, addend: 0x0, symName: __ZNSt3__1neB7v160006IPcEEbRKNS_11__wrap_iterIT_EES6_, symObjAddr: 0x6C18, symBinAddr: 0x10000785C, symSize: 0x34 }
  - { offsetInCU: 0xE00A, offset: 0xE00A, size: 0x8, addend: 0x0, symName: __ZNSt3__1eqB7v160006IPcEEbRKNS_11__wrap_iterIT_EES6_, symObjAddr: 0x6F14, symBinAddr: 0x100007B58, symSize: 0x48 }
  - { offsetInCU: 0xE04D, offset: 0xE04D, size: 0x8, addend: 0x0, symName: __ZNSt3__1neB7v160006ERKNS_25__hash_map_const_iteratorINS_21__hash_const_iteratorIPNS_11__hash_nodeINS_17__hash_value_typeIcPN4Trie8TrieNodeEEEPvEEEEEESE_, symObjAddr: 0x6F74, symBinAddr: 0x100007BB8, symSize: 0x30 }
  - { offsetInCU: 0xE08A, offset: 0xE08A, size: 0x8, addend: 0x0, symName: __ZNSt3__1neB7v160006ERKNS_21__hash_const_iteratorIPNS_11__hash_nodeINS_17__hash_value_typeIcPN4Trie8TrieNodeEEEPvEEEESC_, symObjAddr: 0x701C, symBinAddr: 0x100007C60, symSize: 0x34 }
  - { offsetInCU: 0xE0C7, offset: 0xE0C7, size: 0x8, addend: 0x0, symName: __ZNSt3__1eqB7v160006ERKNS_21__hash_const_iteratorIPNS_11__hash_nodeINS_17__hash_value_typeIcPN4Trie8TrieNodeEEEPvEEEESC_, symObjAddr: 0x7050, symBinAddr: 0x100007C94, symSize: 0x30 }
  - { offsetInCU: 0xE104, offset: 0xE104, size: 0x8, addend: 0x0, symName: __ZNSt3__116__constrain_hashB7v160006Emm, symObjAddr: 0x72F0, symBinAddr: 0x100007F34, symSize: 0x98 }
  - { offsetInCU: 0xE13E, offset: 0xE13E, size: 0x8, addend: 0x0, symName: __ZNSt3__17launderB7v160006IKNS_4pairIKcPN4Trie8TrieNodeEEEEEPT_S9_, symObjAddr: 0x76AC, symBinAddr: 0x1000082F0, symSize: 0x24 }
  - { offsetInCU: 0xE175, offset: 0xE175, size: 0x8, addend: 0x0, symName: __ZNSt3__19__launderB7v160006IKNS_4pairIKcPN4Trie8TrieNodeEEEEEPT_S9_, symObjAddr: 0x76D0, symBinAddr: 0x100008314, symSize: 0x14 }
  - { offsetInCU: 0xE1DF, offset: 0xE1DF, size: 0x8, addend: 0x0, symName: __ZNSt3__119__debug_db_insert_cB7v160006INS_13unordered_mapIcPN4Trie8TrieNodeENS_4hashIcEENS_8equal_toIcEENS_9allocatorINS_4pairIKcS4_EEEEEEEEvPT_, symObjAddr: 0x7800, symBinAddr: 0x100008444, symSize: 0x10 }
  - { offsetInCU: 0xE247, offset: 0xE247, size: 0x8, addend: 0x0, symName: __ZNSt3__116forward_as_tupleB7v160006IJRKcEEENS_5tupleIJDpOT_EEES6_, symObjAddr: 0x8280, symBinAddr: 0x100008EC4, symSize: 0x2C }
  - { offsetInCU: 0xE280, offset: 0xE280, size: 0x8, addend: 0x0, symName: __ZNSt3__116forward_as_tupleB7v160006IJEEENS_5tupleIJDpOT_EEES4_, symObjAddr: 0x82AC, symBinAddr: 0x100008EF0, symSize: 0x4 }
  - { offsetInCU: 0xE2A4, offset: 0xE2A4, size: 0x8, addend: 0x0, symName: __ZNSt3__13maxB7v160006ImEERKT_S3_S3_, symObjAddr: 0x8520, symBinAddr: 0x100009164, symSize: 0x2C }
  - { offsetInCU: 0xE2E7, offset: 0xE2E7, size: 0x8, addend: 0x0, symName: __ZNSt3__116__is_hash_power2B7v160006Em, symObjAddr: 0x854C, symBinAddr: 0x100009190, symSize: 0x50 }
  - { offsetInCU: 0xE356, offset: 0xE356, size: 0x8, addend: 0x0, symName: __ZNSt3__112construct_atB7v160006INS_4pairIKcPN4Trie8TrieNodeEEEJRKNS_21piecewise_construct_tENS_5tupleIJRS2_EEENSA_IJEEEEPS6_EEPT_SG_DpOT0_, symObjAddr: 0x8B08, symBinAddr: 0x10000974C, symSize: 0x50 }
  - { offsetInCU: 0xE3F7, offset: 0xE3F7, size: 0x8, addend: 0x0, symName: __ZNSt3__13getB7v160006ILm0EJRKcEEERNS_13tuple_elementIXT_ENS_5tupleIJDpT0_EEEE4typeERS7_, symObjAddr: 0x8C20, symBinAddr: 0x100009864, symSize: 0x24 }
  - { offsetInCU: 0xE43A, offset: 0xE43A, size: 0x8, addend: 0x0, symName: __ZNSt3__116__next_hash_pow2B7v160006Em, symObjAddr: 0x912C, symBinAddr: 0x100009D70, symSize: 0x6C }
  - { offsetInCU: 0xE466, offset: 0xE466, size: 0x8, addend: 0x0, symName: __ZNSt3__125__debug_db_invalidate_allB7v160006INS_12__hash_tableINS_17__hash_value_typeIcPN4Trie8TrieNodeEEENS_22__unordered_map_hasherIcS6_NS_4hashIcEENS_8equal_toIcEELb1EEENS_21__unordered_map_equalIcS6_SB_S9_Lb1EEENS_9allocatorIS6_EEEEEEvPT_, symObjAddr: 0x9198, symBinAddr: 0x100009DDC, symSize: 0x10 }
  - { offsetInCU: 0xE497, offset: 0xE497, size: 0x8, addend: 0x0, symName: __ZNSt3__112__libcpp_clzB7v160006Em, symObjAddr: 0x94D4, symBinAddr: 0x10000A118, symSize: 0x1C }
  - { offsetInCU: 0xE4C3, offset: 0xE4C3, size: 0x8, addend: 0x0, symName: __ZNSt3__13maxB7v160006ImNS_6__lessImmEEEERKT_S5_S5_T0_, symObjAddr: 0x94F0, symBinAddr: 0x10000A134, symSize: 0x54 }
  - { offsetInCU: 0xE51D, offset: 0xE51D, size: 0x8, addend: 0x0, symName: __ZNSt3__110destroy_atB7v160006INS_4pairIKcPN4Trie8TrieNodeEEELi0EEEvPT_, symObjAddr: 0x9764, symBinAddr: 0x10000A3A8, symSize: 0x24 }
  - { offsetInCU: 0xE554, offset: 0xE554, size: 0x8, addend: 0x0, symName: __ZNSt3__112__destroy_atB7v160006INS_4pairIKcPN4Trie8TrieNodeEEELi0EEEvPT_, symObjAddr: 0x9788, symBinAddr: 0x10000A3CC, symSize: 0x10 }
  - { offsetInCU: 0xE5E2, offset: 0xE5E2, size: 0x8, addend: 0x0, symName: __ZNSt3__17launderB7v160006INS_4pairIKcPN4Trie8TrieNodeEEEEEPT_S8_, symObjAddr: 0x9938, symBinAddr: 0x10000A57C, symSize: 0x24 }
  - { offsetInCU: 0xE619, offset: 0xE619, size: 0x8, addend: 0x0, symName: __ZNSt3__19__launderB7v160006INS_4pairIKcPN4Trie8TrieNodeEEEEEPT_S8_, symObjAddr: 0x995C, symBinAddr: 0x10000A5A0, symSize: 0x14 }
  - { offsetInCU: 0xE650, offset: 0xE650, size: 0x8, addend: 0x0, symName: __ZNSt3__125__debug_db_invalidate_allB7v160006INS_6vectorIbNS_9allocatorIbEEE16__destroy_vectorEEEvPT_, symObjAddr: 0x9B20, symBinAddr: 0x10000A764, symSize: 0x10 }
  - { offsetInCU: 0xE681, offset: 0xE681, size: 0x8, addend: 0x0, symName: __ZNSt3__116__pad_and_outputB7v160006IcNS_11char_traitsIcEEEENS_19ostreambuf_iteratorIT_T0_EES6_PKS4_S8_S8_RNS_8ios_baseES4_, symObjAddr: 0x9DBC, symBinAddr: 0x10000AA00, symSize: 0x240 }
  - { offsetInCU: 0xE750, offset: 0xE750, size: 0x8, addend: 0x0, symName: __ZNSt3__112__to_addressB7v160006IcEEPT_S2_, symObjAddr: 0xA234, symBinAddr: 0x10000AE78, symSize: 0x14 }
  - { offsetInCU: 0xE785, offset: 0xE785, size: 0x8, addend: 0x0, symName: __ZNSt3__19use_facetB7v160006INS_5ctypeIcEEEERKT_RKNS_6localeE, symObjAddr: 0xA38C, symBinAddr: 0x10000AFD0, symSize: 0x2C }
  - { offsetInCU: 0xF14E, offset: 0xF14E, size: 0x8, addend: 0x0, symName: __ZSt28__throw_bad_array_new_lengthB7v160006v, symObjAddr: 0x2C40, symBinAddr: 0x100003884, symSize: 0x34 }
  - { offsetInCU: 0x1268B, offset: 0x1268B, size: 0x8, addend: 0x0, symName: _main, symObjAddr: 0x0, symBinAddr: 0x100000C44, symSize: 0x196C }
  - { offsetInCU: 0x12756, offset: 0x12756, size: 0x8, addend: 0x0, symName: __ZNSt3__112basic_stringIcNS_11char_traitsIcEENS_9allocatorIcEEEC1B7v160006IDnEEPKc, symObjAddr: 0x196C, symBinAddr: 0x1000025B0, symSize: 0x34 }
  - { offsetInCU: 0x12794, offset: 0x12794, size: 0x8, addend: 0x0, symName: __ZNSt3__16vectorINS_12basic_stringIcNS_11char_traitsIcEENS_9allocatorIcEEEENS4_IS6_EEEC1B7v160006ESt16initializer_listIS6_E, symObjAddr: 0x19A0, symBinAddr: 0x1000025E4, symSize: 0x3C }
  - { offsetInCU: 0x127CF, offset: 0x127CF, size: 0x8, addend: 0x0, symName: __ZNSt3__14pairINS_12basic_stringIcNS_11char_traitsIcEENS_9allocatorIcEEEENS_6vectorIS6_NS4_IS6_EEEEEC1B7v160006ILb1ELPv0EEERKS6_RKS9_, symObjAddr: 0x19DC, symBinAddr: 0x100002620, symSize: 0x3C }
  - { offsetInCU: 0x12825, offset: 0x12825, size: 0x8, addend: 0x0, symName: __ZNSt3__16vectorINS_4pairINS_12basic_stringIcNS_11char_traitsIcEENS_9allocatorIcEEEENS0_IS7_NS5_IS7_EEEEEENS5_ISA_EEEC1B7v160006ESt16initializer_listISA_E, symObjAddr: 0x1A18, symBinAddr: 0x10000265C, symSize: 0x3C }
  - { offsetInCU: 0x12860, offset: 0x12860, size: 0x8, addend: 0x0, symName: __ZNSt3__14pairINS_12basic_stringIcNS_11char_traitsIcEENS_9allocatorIcEEEENS_6vectorIS6_NS4_IS6_EEEEED1Ev, symObjAddr: 0x1A54, symBinAddr: 0x100002698, symSize: 0x2C }
  - { offsetInCU: 0x1288C, offset: 0x1288C, size: 0x8, addend: 0x0, symName: __ZNSt3__16vectorINS_12basic_stringIcNS_11char_traitsIcEENS_9allocatorIcEEEENS4_IS6_EEED1B7v160006Ev, symObjAddr: 0x1A80, symBinAddr: 0x1000026C4, symSize: 0x2C }
  - { offsetInCU: 0x128B6, offset: 0x128B6, size: 0x8, addend: 0x0, symName: __ZNSt3__16vectorIbNS_9allocatorIbEEEC1ESt16initializer_listIbE, symObjAddr: 0x1AAC, symBinAddr: 0x1000026F0, symSize: 0x3C }
  - { offsetInCU: 0x128F1, offset: 0x128F1, size: 0x8, addend: 0x0, symName: __ZN4TrieC1Ev, symObjAddr: 0x1AE8, symBinAddr: 0x10000272C, symSize: 0x2C }
  - { offsetInCU: 0x1291B, offset: 0x1291B, size: 0x8, addend: 0x0, symName: __ZNSt3__16vectorINS_4pairINS_12basic_stringIcNS_11char_traitsIcEENS_9allocatorIcEEEENS0_IS7_NS5_IS7_EEEEEENS5_ISA_EEE5beginB7v160006Ev, symObjAddr: 0x1B14, symBinAddr: 0x100002758, symSize: 0x30 }
  - { offsetInCU: 0x12943, offset: 0x12943, size: 0x8, addend: 0x0, symName: __ZNSt3__16vectorINS_4pairINS_12basic_stringIcNS_11char_traitsIcEENS_9allocatorIcEEEENS0_IS7_NS5_IS7_EEEEEENS5_ISA_EEE3endB7v160006Ev, symObjAddr: 0x1B44, symBinAddr: 0x100002788, symSize: 0x30 }
  - { offsetInCU: 0x1296B, offset: 0x1296B, size: 0x8, addend: 0x0, symName: __ZNKSt3__111__wrap_iterIPNS_4pairINS_12basic_stringIcNS_11char_traitsIcEENS_9allocatorIcEEEENS_6vectorIS7_NS5_IS7_EEEEEEEdeB7v160006Ev, symObjAddr: 0x1BA8, symBinAddr: 0x1000027EC, symSize: 0x18 }
  - { offsetInCU: 0x12991, offset: 0x12991, size: 0x8, addend: 0x0, symName: __ZN4Trie6insertENSt3__112basic_stringIcNS0_11char_traitsIcEENS0_9allocatorIcEEEE, symObjAddr: 0x1C1C, symBinAddr: 0x100002860, symSize: 0xF4 }
  - { offsetInCU: 0x12A25, offset: 0x12A25, size: 0x8, addend: 0x0, symName: __ZNKSt3__16vectorINS_12basic_stringIcNS_11char_traitsIcEENS_9allocatorIcEEEENS4_IS6_EEEixB7v160006Em, symObjAddr: 0x1D10, symBinAddr: 0x100002954, symSize: 0x2C }
  - { offsetInCU: 0x12A5C, offset: 0x12A5C, size: 0x8, addend: 0x0, symName: __ZN4Trie6searchENSt3__112basic_stringIcNS0_11char_traitsIcEENS0_9allocatorIcEEEE, symObjAddr: 0x1D3C, symBinAddr: 0x100002980, symSize: 0xDC }
  - { offsetInCU: 0x12AF0, offset: 0x12AF0, size: 0x8, addend: 0x0, symName: __ZNSt3__16vectorIbNS_9allocatorIbEEEixB7v160006Em, symObjAddr: 0x1EAC, symBinAddr: 0x100002AF0, symSize: 0x3C }
  - { offsetInCU: 0x12B25, offset: 0x12B25, size: 0x8, addend: 0x0, symName: __ZNKSt3__115__bit_referenceINS_6vectorIbNS_9allocatorIbEEEELb1EEcvbB7v160006Ev, symObjAddr: 0x1EE8, symBinAddr: 0x100002B2C, symSize: 0x2C }
  - { offsetInCU: 0x12B4B, offset: 0x12B4B, size: 0x8, addend: 0x0, symName: __ZNSt3__113basic_ostreamIcNS_11char_traitsIcEEElsB7v160006EPFRS3_S4_E, symObjAddr: 0x1F14, symBinAddr: 0x100002B58, symSize: 0x2C }
  - { offsetInCU: 0x12B7F, offset: 0x12B7F, size: 0x8, addend: 0x0, symName: __ZN4Trie10startsWithENSt3__112basic_stringIcNS0_11char_traitsIcEENS0_9allocatorIcEEEE, symObjAddr: 0x1F98, symBinAddr: 0x100002BDC, symSize: 0xD8 }
  - { offsetInCU: 0x12C13, offset: 0x12C13, size: 0x8, addend: 0x0, symName: __ZNSt3__111__wrap_iterIPNS_4pairINS_12basic_stringIcNS_11char_traitsIcEENS_9allocatorIcEEEENS_6vectorIS7_NS5_IS7_EEEEEEEppB7v160006Ev, symObjAddr: 0x2070, symBinAddr: 0x100002CB4, symSize: 0x20 }
  - { offsetInCU: 0x12C39, offset: 0x12C39, size: 0x8, addend: 0x0, symName: __ZNSt3__16vectorIbNS_9allocatorIbEEED1B7v160006Ev, symObjAddr: 0x2090, symBinAddr: 0x100002CD4, symSize: 0x2C }
  - { offsetInCU: 0x12C63, offset: 0x12C63, size: 0x8, addend: 0x0, symName: __ZNSt3__16vectorINS_4pairINS_12basic_stringIcNS_11char_traitsIcEENS_9allocatorIcEEEENS0_IS7_NS5_IS7_EEEEEENS5_ISA_EEED1B7v160006Ev, symObjAddr: 0x20BC, symBinAddr: 0x100002D00, symSize: 0x2C }
  - { offsetInCU: 0x12C8D, offset: 0x12C8D, size: 0x8, addend: 0x0, symName: __ZNSt3__112basic_stringIcNS_11char_traitsIcEENS_9allocatorIcEEEC2B7v160006IDnEEPKc, symObjAddr: 0x20E8, symBinAddr: 0x100002D2C, symSize: 0x60 }
  - { offsetInCU: 0x12CD1, offset: 0x12CD1, size: 0x8, addend: 0x0, symName: __ZNSt3__117__compressed_pairINS_12basic_stringIcNS_11char_traitsIcEENS_9allocatorIcEEE5__repES5_EC1B7v160006INS_18__default_init_tagESA_EEOT_OT0_, symObjAddr: 0x2148, symBinAddr: 0x100002D8C, symSize: 0x3C }
  - { offsetInCU: 0x12D29, offset: 0x12D29, size: 0x8, addend: 0x0, symName: __ZNSt3__111char_traitsIcE6lengthEPKc, symObjAddr: 0x2184, symBinAddr: 0x100002DC8, symSize: 0x34 }
  - { offsetInCU: 0x12D4C, offset: 0x12D4C, size: 0x8, addend: 0x0, symName: __ZNSt3__117__compressed_pairINS_12basic_stringIcNS_11char_traitsIcEENS_9allocatorIcEEE5__repES5_EC2B7v160006INS_18__default_init_tagESA_EEOT_OT0_, symObjAddr: 0x21C8, symBinAddr: 0x100002E0C, symSize: 0x3C }
  - { offsetInCU: 0x12DA4, offset: 0x12DA4, size: 0x8, addend: 0x0, symName: __ZNSt3__122__compressed_pair_elemINS_12basic_stringIcNS_11char_traitsIcEENS_9allocatorIcEEE5__repELi0ELb0EEC2B7v160006ENS_18__default_init_tagE, symObjAddr: 0x2204, symBinAddr: 0x100002E48, symSize: 0x14 }
  - { offsetInCU: 0x12DD8, offset: 0x12DD8, size: 0x8, addend: 0x0, symName: __ZNSt3__122__compressed_pair_elemINS_9allocatorIcEELi1ELb1EEC2B7v160006ENS_18__default_init_tagE, symObjAddr: 0x2218, symBinAddr: 0x100002E5C, symSize: 0x2C }
  - { offsetInCU: 0x12E0C, offset: 0x12E0C, size: 0x8, addend: 0x0, symName: __ZNSt3__19allocatorIcEC2B7v160006Ev, symObjAddr: 0x2244, symBinAddr: 0x100002E88, symSize: 0x2C }
  - { offsetInCU: 0x12E36, offset: 0x12E36, size: 0x8, addend: 0x0, symName: __ZNSt3__116__non_trivial_ifILb1ENS_9allocatorIcEEEC2B7v160006Ev, symObjAddr: 0x2270, symBinAddr: 0x100002EB4, symSize: 0x14 }
  - { offsetInCU: 0x12E60, offset: 0x12E60, size: 0x8, addend: 0x0, symName: __ZNSt3__16vectorINS_12basic_stringIcNS_11char_traitsIcEENS_9allocatorIcEEEENS4_IS6_EEEC2B7v160006ESt16initializer_listIS6_E, symObjAddr: 0x22B4, symBinAddr: 0x100002EF8, symSize: 0x124 }
  - { offsetInCU: 0x12EB7, offset: 0x12EB7, size: 0x8, addend: 0x0, symName: __ZNSt3__117__compressed_pairIPNS_12basic_stringIcNS_11char_traitsIcEENS_9allocatorIcEEEENS4_IS6_EEEC1B7v160006IDnNS_18__default_init_tagEEEOT_OT0_, symObjAddr: 0x23D8, symBinAddr: 0x10000301C, symSize: 0x3C }
  - { offsetInCU: 0x12F0F, offset: 0x12F0F, size: 0x8, addend: 0x0, symName: __ZNSt3__16vectorINS_12basic_stringIcNS_11char_traitsIcEENS_9allocatorIcEEEENS4_IS6_EEE16__destroy_vectorC1ERS8_, symObjAddr: 0x2454, symBinAddr: 0x100003098, symSize: 0x34 }
  - { offsetInCU: 0x12F48, offset: 0x12F48, size: 0x8, addend: 0x0, symName: __ZNKSt16initializer_listINSt3__112basic_stringIcNS0_11char_traitsIcEENS0_9allocatorIcEEEEE4sizeB7v160006Ev, symObjAddr: 0x2498, symBinAddr: 0x1000030DC, symSize: 0x18 }
  - { offsetInCU: 0x12F6E, offset: 0x12F6E, size: 0x8, addend: 0x0, symName: __ZNSt3__16vectorINS_12basic_stringIcNS_11char_traitsIcEENS_9allocatorIcEEEENS4_IS6_EEE11__vallocateB7v160006Em, symObjAddr: 0x24B0, symBinAddr: 0x1000030F4, symSize: 0xB4 }
  - { offsetInCU: 0x12FB2, offset: 0x12FB2, size: 0x8, addend: 0x0, symName: __ZNSt3__16vectorINS_12basic_stringIcNS_11char_traitsIcEENS_9allocatorIcEEEENS4_IS6_EEE18__construct_at_endIPKS6_Li0EEEvT_SC_m, symObjAddr: 0x2564, symBinAddr: 0x1000031A8, symSize: 0x8C }
  - { offsetInCU: 0x13025, offset: 0x13025, size: 0x8, addend: 0x0, symName: __ZNKSt16initializer_listINSt3__112basic_stringIcNS0_11char_traitsIcEENS0_9allocatorIcEEEEE5beginB7v160006Ev, symObjAddr: 0x25F0, symBinAddr: 0x100003234, symSize: 0x18 }
  - { offsetInCU: 0x1304B, offset: 0x1304B, size: 0x8, addend: 0x0, symName: __ZNKSt16initializer_listINSt3__112basic_stringIcNS0_11char_traitsIcEENS0_9allocatorIcEEEEE3endB7v160006Ev, symObjAddr: 0x2608, symBinAddr: 0x10000324C, symSize: 0x28 }
  - { offsetInCU: 0x13071, offset: 0x13071, size: 0x8, addend: 0x0, symName: __ZNSt3__128__exception_guard_exceptionsINS_6vectorINS_12basic_stringIcNS_11char_traitsIcEENS_9allocatorIcEEEENS5_IS7_EEE16__destroy_vectorEE10__completeB7v160006Ev, symObjAddr: 0x2630, symBinAddr: 0x100003274, symSize: 0x1C }
  - { offsetInCU: 0x13097, offset: 0x13097, size: 0x8, addend: 0x0, symName: __ZNSt3__128__exception_guard_exceptionsINS_6vectorINS_12basic_stringIcNS_11char_traitsIcEENS_9allocatorIcEEEENS5_IS7_EEE16__destroy_vectorEED1B7v160006Ev, symObjAddr: 0x264C, symBinAddr: 0x100003290, symSize: 0x2C }
  - { offsetInCU: 0x130C1, offset: 0x130C1, size: 0x8, addend: 0x0, symName: __ZNSt3__117__compressed_pairIPNS_12basic_stringIcNS_11char_traitsIcEENS_9allocatorIcEEEENS4_IS6_EEEC2B7v160006IDnNS_18__default_init_tagEEEOT_OT0_, symObjAddr: 0x2678, symBinAddr: 0x1000032BC, symSize: 0x40 }
  - { offsetInCU: 0x13119, offset: 0x13119, size: 0x8, addend: 0x0, symName: __ZNSt3__122__compressed_pair_elemIPNS_12basic_stringIcNS_11char_traitsIcEENS_9allocatorIcEEEELi0ELb0EEC2B7v160006IDnvEEOT_, symObjAddr: 0x26B8, symBinAddr: 0x1000032FC, symSize: 0x1C }
  - { offsetInCU: 0x1315B, offset: 0x1315B, size: 0x8, addend: 0x0, symName: __ZNSt3__122__compressed_pair_elemINS_9allocatorINS_12basic_stringIcNS_11char_traitsIcEENS1_IcEEEEEELi1ELb1EEC2B7v160006ENS_18__default_init_tagE, symObjAddr: 0x26D4, symBinAddr: 0x100003318, symSize: 0x2C }
  - { offsetInCU: 0x1318F, offset: 0x1318F, size: 0x8, addend: 0x0, symName: __ZNSt3__19allocatorINS_12basic_stringIcNS_11char_traitsIcEENS0_IcEEEEEC2B7v160006Ev, symObjAddr: 0x2700, symBinAddr: 0x100003344, symSize: 0x2C }
  - { offsetInCU: 0x131B9, offset: 0x131B9, size: 0x8, addend: 0x0, symName: __ZNSt3__116__non_trivial_ifILb1ENS_9allocatorINS_12basic_stringIcNS_11char_traitsIcEENS1_IcEEEEEEEC2B7v160006Ev, symObjAddr: 0x272C, symBinAddr: 0x100003370, symSize: 0x14 }
  - { offsetInCU: 0x131E3, offset: 0x131E3, size: 0x8, addend: 0x0, symName: __ZNSt3__128__exception_guard_exceptionsINS_6vectorINS_12basic_stringIcNS_11char_traitsIcEENS_9allocatorIcEEEENS5_IS7_EEE16__destroy_vectorEEC1B7v160006ESA_, symObjAddr: 0x2740, symBinAddr: 0x100003384, symSize: 0x34 }
  - { offsetInCU: 0x1321B, offset: 0x1321B, size: 0x8, addend: 0x0, symName: __ZNSt3__128__exception_guard_exceptionsINS_6vectorINS_12basic_stringIcNS_11char_traitsIcEENS_9allocatorIcEEEENS5_IS7_EEE16__destroy_vectorEEC2B7v160006ESA_, symObjAddr: 0x2774, symBinAddr: 0x1000033B8, symSize: 0x24 }
  - { offsetInCU: 0x13253, offset: 0x13253, size: 0x8, addend: 0x0, symName: __ZNSt3__16vectorINS_12basic_stringIcNS_11char_traitsIcEENS_9allocatorIcEEEENS4_IS6_EEE16__destroy_vectorC2ERS8_, symObjAddr: 0x2798, symBinAddr: 0x1000033DC, symSize: 0x20 }
  - { offsetInCU: 0x1328C, offset: 0x1328C, size: 0x8, addend: 0x0, symName: __ZNKSt3__16vectorINS_12basic_stringIcNS_11char_traitsIcEENS_9allocatorIcEEEENS4_IS6_EEE8max_sizeEv, symObjAddr: 0x27B8, symBinAddr: 0x1000033FC, symSize: 0x60 }
  - { offsetInCU: 0x132B4, offset: 0x132B4, size: 0x8, addend: 0x0, symName: __ZNKSt3__16vectorINS_12basic_stringIcNS_11char_traitsIcEENS_9allocatorIcEEEENS4_IS6_EEE20__throw_length_errorB7v160006Ev, symObjAddr: 0x2818, symBinAddr: 0x10000345C, symSize: 0x1C }
  - { offsetInCU: 0x132DA, offset: 0x132DA, size: 0x8, addend: 0x0, symName: __ZNSt3__16vectorINS_12basic_stringIcNS_11char_traitsIcEENS_9allocatorIcEEEENS4_IS6_EEE7__allocB7v160006Ev, symObjAddr: 0x2874, symBinAddr: 0x1000034B8, symSize: 0x28 }
  - { offsetInCU: 0x13300, offset: 0x13300, size: 0x8, addend: 0x0, symName: __ZNSt3__16vectorINS_12basic_stringIcNS_11char_traitsIcEENS_9allocatorIcEEEENS4_IS6_EEE9__end_capB7v160006Ev, symObjAddr: 0x289C, symBinAddr: 0x1000034E0, symSize: 0x28 }
  - { offsetInCU: 0x13326, offset: 0x13326, size: 0x8, addend: 0x0, symName: __ZNKSt3__16vectorINS_12basic_stringIcNS_11char_traitsIcEENS_9allocatorIcEEEENS4_IS6_EEE14__annotate_newB7v160006Em, symObjAddr: 0x28C4, symBinAddr: 0x100003508, symSize: 0xC8 }
  - { offsetInCU: 0x13366, offset: 0x13366, size: 0x8, addend: 0x0, symName: __ZNSt3__116allocator_traitsINS_9allocatorINS_12basic_stringIcNS_11char_traitsIcEENS1_IcEEEEEEE8max_sizeB7v160006IS7_vvEEmRKS7_, symObjAddr: 0x29B8, symBinAddr: 0x1000035FC, symSize: 0x28 }
  - { offsetInCU: 0x13392, offset: 0x13392, size: 0x8, addend: 0x0, symName: __ZNKSt3__16vectorINS_12basic_stringIcNS_11char_traitsIcEENS_9allocatorIcEEEENS4_IS6_EEE7__allocB7v160006Ev, symObjAddr: 0x29E0, symBinAddr: 0x100003624, symSize: 0x28 }
  - { offsetInCU: 0x133B8, offset: 0x133B8, size: 0x8, addend: 0x0, symName: __ZNSt3__114numeric_limitsIlE3maxB7v160006Ev, symObjAddr: 0x2A08, symBinAddr: 0x10000364C, symSize: 0x14 }
  - { offsetInCU: 0x133D6, offset: 0x133D6, size: 0x8, addend: 0x0, symName: __ZNKSt3__16__lessImmEclB7v160006ERKmS3_, symObjAddr: 0x2A70, symBinAddr: 0x1000036B4, symSize: 0x34 }
  - { offsetInCU: 0x13418, offset: 0x13418, size: 0x8, addend: 0x0, symName: __ZNSt3__114numeric_limitsImE3maxB7v160006Ev, symObjAddr: 0x2AA4, symBinAddr: 0x1000036E8, symSize: 0x14 }
  - { offsetInCU: 0x1342C, offset: 0x1342C, size: 0x8, addend: 0x0, symName: __ZNSt3__123__libcpp_numeric_limitsImLb1EE3maxB7v160006Ev, symObjAddr: 0x2AB8, symBinAddr: 0x1000036FC, symSize: 0x8 }
  - { offsetInCU: 0x13440, offset: 0x13440, size: 0x8, addend: 0x0, symName: __ZNKSt3__117__compressed_pairIPNS_12basic_stringIcNS_11char_traitsIcEENS_9allocatorIcEEEENS4_IS6_EEE6secondB7v160006Ev, symObjAddr: 0x2AC0, symBinAddr: 0x100003704, symSize: 0x24 }
  - { offsetInCU: 0x13466, offset: 0x13466, size: 0x8, addend: 0x0, symName: __ZNKSt3__122__compressed_pair_elemINS_9allocatorINS_12basic_stringIcNS_11char_traitsIcEENS1_IcEEEEEELi1ELb1EE5__getB7v160006Ev, symObjAddr: 0x2AE4, symBinAddr: 0x100003728, symSize: 0x14 }
  - { offsetInCU: 0x1348C, offset: 0x1348C, size: 0x8, addend: 0x0, symName: __ZNSt3__123__libcpp_numeric_limitsIlLb1EE3maxB7v160006Ev, symObjAddr: 0x2AF8, symBinAddr: 0x10000373C, symSize: 0x8 }
  - { offsetInCU: 0x134A0, offset: 0x134A0, size: 0x8, addend: 0x0, symName: __ZNSt12length_errorC1B7v160006EPKc, symObjAddr: 0x2B64, symBinAddr: 0x1000037A8, symSize: 0x34 }
  - { offsetInCU: 0x134D8, offset: 0x134D8, size: 0x8, addend: 0x0, symName: __ZNSt12length_errorC2B7v160006EPKc, symObjAddr: 0x2B98, symBinAddr: 0x1000037DC, symSize: 0x4C }
  - { offsetInCU: 0x13510, offset: 0x13510, size: 0x8, addend: 0x0, symName: __ZNSt3__19allocatorINS_12basic_stringIcNS_11char_traitsIcEENS0_IcEEEEE8allocateB7v160006Em, symObjAddr: 0x2BE4, symBinAddr: 0x100003828, symSize: 0x5C }
  - { offsetInCU: 0x13544, offset: 0x13544, size: 0x8, addend: 0x0, symName: __ZNSt3__117__compressed_pairIPNS_12basic_stringIcNS_11char_traitsIcEENS_9allocatorIcEEEENS4_IS6_EEE6secondB7v160006Ev, symObjAddr: 0x2D44, symBinAddr: 0x100003988, symSize: 0x24 }
  - { offsetInCU: 0x1356A, offset: 0x1356A, size: 0x8, addend: 0x0, symName: __ZNSt3__122__compressed_pair_elemINS_9allocatorINS_12basic_stringIcNS_11char_traitsIcEENS1_IcEEEEEELi1ELb1EE5__getB7v160006Ev, symObjAddr: 0x2D68, symBinAddr: 0x1000039AC, symSize: 0x14 }
  - { offsetInCU: 0x13590, offset: 0x13590, size: 0x8, addend: 0x0, symName: __ZNSt3__117__compressed_pairIPNS_12basic_stringIcNS_11char_traitsIcEENS_9allocatorIcEEEENS4_IS6_EEE5firstB7v160006Ev, symObjAddr: 0x2D7C, symBinAddr: 0x1000039C0, symSize: 0x24 }
  - { offsetInCU: 0x135B6, offset: 0x135B6, size: 0x8, addend: 0x0, symName: __ZNSt3__122__compressed_pair_elemIPNS_12basic_stringIcNS_11char_traitsIcEENS_9allocatorIcEEEELi0ELb0EE5__getB7v160006Ev, symObjAddr: 0x2DA0, symBinAddr: 0x1000039E4, symSize: 0x14 }
  - { offsetInCU: 0x135DC, offset: 0x135DC, size: 0x8, addend: 0x0, symName: __ZNKSt3__16vectorINS_12basic_stringIcNS_11char_traitsIcEENS_9allocatorIcEEEENS4_IS6_EEE31__annotate_contiguous_containerB7v160006EPKvSA_SA_SA_, symObjAddr: 0x2DB4, symBinAddr: 0x1000039F8, symSize: 0x20 }
  - { offsetInCU: 0x13632, offset: 0x13632, size: 0x8, addend: 0x0, symName: __ZNKSt3__16vectorINS_12basic_stringIcNS_11char_traitsIcEENS_9allocatorIcEEEENS4_IS6_EEE4dataB7v160006Ev, symObjAddr: 0x2DD4, symBinAddr: 0x100003A18, symSize: 0x28 }
  - { offsetInCU: 0x13658, offset: 0x13658, size: 0x8, addend: 0x0, symName: __ZNKSt3__16vectorINS_12basic_stringIcNS_11char_traitsIcEENS_9allocatorIcEEEENS4_IS6_EEE8capacityB7v160006Ev, symObjAddr: 0x2DFC, symBinAddr: 0x100003A40, symSize: 0x40 }
  - { offsetInCU: 0x1367E, offset: 0x1367E, size: 0x8, addend: 0x0, symName: __ZNKSt3__16vectorINS_12basic_stringIcNS_11char_traitsIcEENS_9allocatorIcEEEENS4_IS6_EEE9__end_capB7v160006Ev, symObjAddr: 0x2E50, symBinAddr: 0x100003A94, symSize: 0x28 }
  - { offsetInCU: 0x136A4, offset: 0x136A4, size: 0x8, addend: 0x0, symName: __ZNKSt3__117__compressed_pairIPNS_12basic_stringIcNS_11char_traitsIcEENS_9allocatorIcEEEENS4_IS6_EEE5firstB7v160006Ev, symObjAddr: 0x2E78, symBinAddr: 0x100003ABC, symSize: 0x24 }
  - { offsetInCU: 0x136CA, offset: 0x136CA, size: 0x8, addend: 0x0, symName: __ZNKSt3__122__compressed_pair_elemIPNS_12basic_stringIcNS_11char_traitsIcEENS_9allocatorIcEEEELi0ELb0EE5__getB7v160006Ev, symObjAddr: 0x2E9C, symBinAddr: 0x100003AE0, symSize: 0x14 }
  - { offsetInCU: 0x1370B, offset: 0x1370B, size: 0x8, addend: 0x0, symName: __ZNSt3__16vectorINS_12basic_stringIcNS_11char_traitsIcEENS_9allocatorIcEEEENS4_IS6_EEE21_ConstructTransactionC1B7v160006ERS8_m, symObjAddr: 0x2EB0, symBinAddr: 0x100003AF4, symSize: 0x3C }
  - { offsetInCU: 0x13753, offset: 0x13753, size: 0x8, addend: 0x0, symName: __ZNSt3__16vectorINS_12basic_stringIcNS_11char_traitsIcEENS_9allocatorIcEEEENS4_IS6_EEE21_ConstructTransactionD1B7v160006Ev, symObjAddr: 0x2FE0, symBinAddr: 0x100003C24, symSize: 0x2C }
  - { offsetInCU: 0x1377D, offset: 0x1377D, size: 0x8, addend: 0x0, symName: __ZNSt3__16vectorINS_12basic_stringIcNS_11char_traitsIcEENS_9allocatorIcEEEENS4_IS6_EEE21_ConstructTransactionC2B7v160006ERS8_m, symObjAddr: 0x300C, symBinAddr: 0x100003C50, symSize: 0x4C }
  - { offsetInCU: 0x137C5, offset: 0x137C5, size: 0x8, addend: 0x0, symName: __ZNSt3__129_AllocatorDestroyRangeReverseINS_9allocatorINS_12basic_stringIcNS_11char_traitsIcEENS1_IcEEEEEEPS6_EC1B7v160006ERS7_RS8_SB_, symObjAddr: 0x30A4, symBinAddr: 0x100003CE8, symSize: 0x44 }
  - { offsetInCU: 0x1381C, offset: 0x1381C, size: 0x8, addend: 0x0, symName: __ZNSt3__116allocator_traitsINS_9allocatorINS_12basic_stringIcNS_11char_traitsIcEENS1_IcEEEEEEE9constructB7v160006IS6_JRKS6_EvvEEvRS7_PT_DpOT0_, symObjAddr: 0x30E8, symBinAddr: 0x100003D2C, symSize: 0x30 }
  - { offsetInCU: 0x13871, offset: 0x13871, size: 0x8, addend: 0x0, symName: __ZNSt3__128__exception_guard_exceptionsINS_29_AllocatorDestroyRangeReverseINS_9allocatorINS_12basic_stringIcNS_11char_traitsIcEENS2_IcEEEEEEPS7_EEE10__completeB7v160006Ev, symObjAddr: 0x3118, symBinAddr: 0x100003D5C, symSize: 0x1C }
  - { offsetInCU: 0x13897, offset: 0x13897, size: 0x8, addend: 0x0, symName: __ZNSt3__128__exception_guard_exceptionsINS_29_AllocatorDestroyRangeReverseINS_9allocatorINS_12basic_stringIcNS_11char_traitsIcEENS2_IcEEEEEEPS7_EEED1B7v160006Ev, symObjAddr: 0x3134, symBinAddr: 0x100003D78, symSize: 0x2C }
  - { offsetInCU: 0x138C1, offset: 0x138C1, size: 0x8, addend: 0x0, symName: __ZNSt3__128__exception_guard_exceptionsINS_29_AllocatorDestroyRangeReverseINS_9allocatorINS_12basic_stringIcNS_11char_traitsIcEENS2_IcEEEEEEPS7_EEEC1B7v160006ESA_, symObjAddr: 0x3160, symBinAddr: 0x100003DA4, symSize: 0x34 }
  - { offsetInCU: 0x138FA, offset: 0x138FA, size: 0x8, addend: 0x0, symName: __ZNSt3__128__exception_guard_exceptionsINS_29_AllocatorDestroyRangeReverseINS_9allocatorINS_12basic_stringIcNS_11char_traitsIcEENS2_IcEEEEEEPS7_EEEC2B7v160006ESA_, symObjAddr: 0x3194, symBinAddr: 0x100003DD8, symSize: 0x30 }
  - { offsetInCU: 0x13933, offset: 0x13933, size: 0x8, addend: 0x0, symName: __ZNSt3__129_AllocatorDestroyRangeReverseINS_9allocatorINS_12basic_stringIcNS_11char_traitsIcEENS1_IcEEEEEEPS6_EC2B7v160006ERS7_RS8_SB_, symObjAddr: 0x31C4, symBinAddr: 0x100003E08, symSize: 0x38 }
  - { offsetInCU: 0x1398A, offset: 0x1398A, size: 0x8, addend: 0x0, symName: __ZNSt3__128__exception_guard_exceptionsINS_29_AllocatorDestroyRangeReverseINS_9allocatorINS_12basic_stringIcNS_11char_traitsIcEENS2_IcEEEEEEPS7_EEED2B7v160006Ev, symObjAddr: 0x3238, symBinAddr: 0x100003E7C, symSize: 0x50 }
  - { offsetInCU: 0x139B4, offset: 0x139B4, size: 0x8, addend: 0x0, symName: __ZNKSt3__129_AllocatorDestroyRangeReverseINS_9allocatorINS_12basic_stringIcNS_11char_traitsIcEENS1_IcEEEEEEPS6_EclB7v160006Ev, symObjAddr: 0x3288, symBinAddr: 0x100003ECC, symSize: 0x68 }
  - { offsetInCU: 0x139DA, offset: 0x139DA, size: 0x8, addend: 0x0, symName: __ZNSt3__116reverse_iteratorIPNS_12basic_stringIcNS_11char_traitsIcEENS_9allocatorIcEEEEEC1B7v160006ES7_, symObjAddr: 0x3360, symBinAddr: 0x100003FA4, symSize: 0x34 }
  - { offsetInCU: 0x13A12, offset: 0x13A12, size: 0x8, addend: 0x0, symName: __ZNSt3__116allocator_traitsINS_9allocatorINS_12basic_stringIcNS_11char_traitsIcEENS1_IcEEEEEEE7destroyB7v160006IS6_vvEEvRS7_PT_, symObjAddr: 0x33DC, symBinAddr: 0x100004020, symSize: 0x28 }
  - { offsetInCU: 0x13A4D, offset: 0x13A4D, size: 0x8, addend: 0x0, symName: __ZNSt3__116reverse_iteratorIPNS_12basic_stringIcNS_11char_traitsIcEENS_9allocatorIcEEEEEppB7v160006Ev, symObjAddr: 0x3428, symBinAddr: 0x10000406C, symSize: 0x20 }
  - { offsetInCU: 0x13A73, offset: 0x13A73, size: 0x8, addend: 0x0, symName: __ZNKSt3__116reverse_iteratorIPNS_12basic_stringIcNS_11char_traitsIcEENS_9allocatorIcEEEEE4baseB7v160006Ev, symObjAddr: 0x3448, symBinAddr: 0x10000408C, symSize: 0x18 }
  - { offsetInCU: 0x13A9F, offset: 0x13A9F, size: 0x8, addend: 0x0, symName: __ZNSt3__119__to_address_helperINS_16reverse_iteratorIPNS_12basic_stringIcNS_11char_traitsIcEENS_9allocatorIcEEEEEEvE6__callB7v160006ERKS9_, symObjAddr: 0x34A8, symBinAddr: 0x1000040EC, symSize: 0x38 }
  - { offsetInCU: 0x13AC2, offset: 0x13AC2, size: 0x8, addend: 0x0, symName: __ZNKSt3__116reverse_iteratorIPNS_12basic_stringIcNS_11char_traitsIcEENS_9allocatorIcEEEEEptB7v160006Ev, symObjAddr: 0x34E0, symBinAddr: 0x100004124, symSize: 0x2C }
  - { offsetInCU: 0x13AE8, offset: 0x13AE8, size: 0x8, addend: 0x0, symName: __ZNSt3__116reverse_iteratorIPNS_12basic_stringIcNS_11char_traitsIcEENS_9allocatorIcEEEEEC2B7v160006ES7_, symObjAddr: 0x35F0, symBinAddr: 0x100004234, symSize: 0x28 }
  - { offsetInCU: 0x13B20, offset: 0x13B20, size: 0x8, addend: 0x0, symName: __ZNSt3__16vectorINS_12basic_stringIcNS_11char_traitsIcEENS_9allocatorIcEEEENS4_IS6_EEE21_ConstructTransactionD2B7v160006Ev, symObjAddr: 0x3618, symBinAddr: 0x10000425C, symSize: 0x20 }
  - { offsetInCU: 0x13B4A, offset: 0x13B4A, size: 0x8, addend: 0x0, symName: __ZNSt3__128__exception_guard_exceptionsINS_6vectorINS_12basic_stringIcNS_11char_traitsIcEENS_9allocatorIcEEEENS5_IS7_EEE16__destroy_vectorEED2B7v160006Ev, symObjAddr: 0x3638, symBinAddr: 0x10000427C, symSize: 0x50 }
  - { offsetInCU: 0x13B74, offset: 0x13B74, size: 0x8, addend: 0x0, symName: __ZNSt3__16vectorINS_12basic_stringIcNS_11char_traitsIcEENS_9allocatorIcEEEENS4_IS6_EEE16__destroy_vectorclB7v160006Ev, symObjAddr: 0x3688, symBinAddr: 0x1000042CC, symSize: 0x9C }
  - { offsetInCU: 0x13B9A, offset: 0x13B9A, size: 0x8, addend: 0x0, symName: __ZNKSt3__16vectorINS_12basic_stringIcNS_11char_traitsIcEENS_9allocatorIcEEEENS4_IS6_EEE17__annotate_deleteB7v160006Ev, symObjAddr: 0x3724, symBinAddr: 0x100004368, symSize: 0xD4 }
  - { offsetInCU: 0x13BC0, offset: 0x13BC0, size: 0x8, addend: 0x0, symName: __ZNSt3__16vectorINS_12basic_stringIcNS_11char_traitsIcEENS_9allocatorIcEEEENS4_IS6_EEE7__clearB7v160006Ev, symObjAddr: 0x3808, symBinAddr: 0x10000444C, symSize: 0x28 }
  - { offsetInCU: 0x13BE6, offset: 0x13BE6, size: 0x8, addend: 0x0, symName: __ZNSt3__116allocator_traitsINS_9allocatorINS_12basic_stringIcNS_11char_traitsIcEENS1_IcEEEEEEE10deallocateB7v160006ERS7_PS6_m, symObjAddr: 0x3830, symBinAddr: 0x100004474, symSize: 0x34 }
  - { offsetInCU: 0x13C28, offset: 0x13C28, size: 0x8, addend: 0x0, symName: __ZNKSt3__16vectorINS_12basic_stringIcNS_11char_traitsIcEENS_9allocatorIcEEEENS4_IS6_EEE4sizeB7v160006Ev, symObjAddr: 0x3864, symBinAddr: 0x1000044A8, symSize: 0x28 }
  - { offsetInCU: 0x13C4E, offset: 0x13C4E, size: 0x8, addend: 0x0, symName: __ZNSt3__16vectorINS_12basic_stringIcNS_11char_traitsIcEENS_9allocatorIcEEEENS4_IS6_EEE22__base_destruct_at_endB7v160006EPS6_, symObjAddr: 0x388C, symBinAddr: 0x1000044D0, symSize: 0x8C }
  - { offsetInCU: 0x13C92, offset: 0x13C92, size: 0x8, addend: 0x0, symName: __ZNSt3__19allocatorINS_12basic_stringIcNS_11char_traitsIcEENS0_IcEEEEE10deallocateB7v160006EPS5_m, symObjAddr: 0x3918, symBinAddr: 0x10000455C, symSize: 0x44 }
  - { offsetInCU: 0x13CD4, offset: 0x13CD4, size: 0x8, addend: 0x0, symName: __ZNSt3__14pairINS_12basic_stringIcNS_11char_traitsIcEENS_9allocatorIcEEEENS_6vectorIS6_NS4_IS6_EEEEEC2B7v160006ILb1ELPv0EEERKS6_RKS9_, symObjAddr: 0x3A64, symBinAddr: 0x1000046A8, symSize: 0x70 }
  - { offsetInCU: 0x13D2A, offset: 0x13D2A, size: 0x8, addend: 0x0, symName: __ZNSt3__16vectorINS_12basic_stringIcNS_11char_traitsIcEENS_9allocatorIcEEEENS4_IS6_EEEC1ERKS8_, symObjAddr: 0x3AD4, symBinAddr: 0x100004718, symSize: 0x34 }
  - { offsetInCU: 0x13D65, offset: 0x13D65, size: 0x8, addend: 0x0, symName: __ZNSt3__16vectorINS_12basic_stringIcNS_11char_traitsIcEENS_9allocatorIcEEEENS4_IS6_EEEC2ERKS8_, symObjAddr: 0x3B08, symBinAddr: 0x10000474C, symSize: 0x110 }
  - { offsetInCU: 0x13DC4, offset: 0x13DC4, size: 0x8, addend: 0x0, symName: __ZNSt3__116allocator_traitsINS_9allocatorINS_12basic_stringIcNS_11char_traitsIcEENS1_IcEEEEEEE37select_on_container_copy_constructionB7v160006IS7_vvEES7_RKS7_, symObjAddr: 0x3C18, symBinAddr: 0x10000485C, symSize: 0x10 }
  - { offsetInCU: 0x13DF9, offset: 0x13DF9, size: 0x8, addend: 0x0, symName: __ZNSt3__117__compressed_pairIPNS_12basic_stringIcNS_11char_traitsIcEENS_9allocatorIcEEEENS4_IS6_EEEC1B7v160006IDnS8_EEOT_OT0_, symObjAddr: 0x3C28, symBinAddr: 0x10000486C, symSize: 0x3C }
  - { offsetInCU: 0x13E51, offset: 0x13E51, size: 0x8, addend: 0x0, symName: __ZNSt3__16vectorINS_12basic_stringIcNS_11char_traitsIcEENS_9allocatorIcEEEENS4_IS6_EEE18__construct_at_endIPS6_Li0EEEvT_SB_m, symObjAddr: 0x3C64, symBinAddr: 0x1000048A8, symSize: 0x8C }
  - { offsetInCU: 0x13EC4, offset: 0x13EC4, size: 0x8, addend: 0x0, symName: __ZNSt3__117__compressed_pairIPNS_12basic_stringIcNS_11char_traitsIcEENS_9allocatorIcEEEENS4_IS6_EEEC2B7v160006IDnS8_EEOT_OT0_, symObjAddr: 0x3CF0, symBinAddr: 0x100004934, symSize: 0x44 }
  - { offsetInCU: 0x13F1C, offset: 0x13F1C, size: 0x8, addend: 0x0, symName: __ZNSt3__122__compressed_pair_elemINS_9allocatorINS_12basic_stringIcNS_11char_traitsIcEENS1_IcEEEEEELi1ELb1EEC2B7v160006IS7_vEEOT_, symObjAddr: 0x3D34, symBinAddr: 0x100004978, symSize: 0x18 }
  - { offsetInCU: 0x13F5E, offset: 0x13F5E, size: 0x8, addend: 0x0, symName: __ZNSt3__116allocator_traitsINS_9allocatorINS_12basic_stringIcNS_11char_traitsIcEENS1_IcEEEEEEE9constructB7v160006IS6_JRS6_EvvEEvRS7_PT_DpOT0_, symObjAddr: 0x3E40, symBinAddr: 0x100004A84, symSize: 0x30 }
  - { offsetInCU: 0x13FB3, offset: 0x13FB3, size: 0x8, addend: 0x0, symName: __ZNSt3__16vectorINS_4pairINS_12basic_stringIcNS_11char_traitsIcEENS_9allocatorIcEEEENS0_IS7_NS5_IS7_EEEEEENS5_ISA_EEEC2B7v160006ESt16initializer_listISA_E, symObjAddr: 0x3EAC, symBinAddr: 0x100004AF0, symSize: 0x124 }
  - { offsetInCU: 0x14004, offset: 0x14004, size: 0x8, addend: 0x0, symName: __ZNSt3__117__compressed_pairIPNS_4pairINS_12basic_stringIcNS_11char_traitsIcEENS_9allocatorIcEEEENS_6vectorIS7_NS5_IS7_EEEEEENS5_ISB_EEEC1B7v160006IDnNS_18__default_init_tagEEEOT_OT0_, symObjAddr: 0x3FD0, symBinAddr: 0x100004C14, symSize: 0x3C }
  - { offsetInCU: 0x1405C, offset: 0x1405C, size: 0x8, addend: 0x0, symName: __ZNSt3__16vectorINS_4pairINS_12basic_stringIcNS_11char_traitsIcEENS_9allocatorIcEEEENS0_IS7_NS5_IS7_EEEEEENS5_ISA_EEE16__destroy_vectorC1ERSC_, symObjAddr: 0x404C, symBinAddr: 0x100004C90, symSize: 0x34 }
  - { offsetInCU: 0x14095, offset: 0x14095, size: 0x8, addend: 0x0, symName: __ZNKSt16initializer_listINSt3__14pairINS0_12basic_stringIcNS0_11char_traitsIcEENS0_9allocatorIcEEEENS0_6vectorIS7_NS5_IS7_EEEEEEE4sizeB7v160006Ev, symObjAddr: 0x4090, symBinAddr: 0x100004CD4, symSize: 0x18 }
  - { offsetInCU: 0x140BB, offset: 0x140BB, size: 0x8, addend: 0x0, symName: __ZNSt3__16vectorINS_4pairINS_12basic_stringIcNS_11char_traitsIcEENS_9allocatorIcEEEENS0_IS7_NS5_IS7_EEEEEENS5_ISA_EEE11__vallocateB7v160006Em, symObjAddr: 0x40A8, symBinAddr: 0x100004CEC, symSize: 0xB4 }
  - { offsetInCU: 0x140FF, offset: 0x140FF, size: 0x8, addend: 0x0, symName: __ZNSt3__16vectorINS_4pairINS_12basic_stringIcNS_11char_traitsIcEENS_9allocatorIcEEEENS0_IS7_NS5_IS7_EEEEEENS5_ISA_EEE18__construct_at_endIPKSA_Li0EEEvT_SG_m, symObjAddr: 0x415C, symBinAddr: 0x100004DA0, symSize: 0x8C }
  - { offsetInCU: 0x14172, offset: 0x14172, size: 0x8, addend: 0x0, symName: __ZNKSt16initializer_listINSt3__14pairINS0_12basic_stringIcNS0_11char_traitsIcEENS0_9allocatorIcEEEENS0_6vectorIS7_NS5_IS7_EEEEEEE5beginB7v160006Ev, symObjAddr: 0x41E8, symBinAddr: 0x100004E2C, symSize: 0x18 }
  - { offsetInCU: 0x14198, offset: 0x14198, size: 0x8, addend: 0x0, symName: __ZNKSt16initializer_listINSt3__14pairINS0_12basic_stringIcNS0_11char_traitsIcEENS0_9allocatorIcEEEENS0_6vectorIS7_NS5_IS7_EEEEEEE3endB7v160006Ev, symObjAddr: 0x4200, symBinAddr: 0x100004E44, symSize: 0x28 }
  - { offsetInCU: 0x141BE, offset: 0x141BE, size: 0x8, addend: 0x0, symName: __ZNSt3__128__exception_guard_exceptionsINS_6vectorINS_4pairINS_12basic_stringIcNS_11char_traitsIcEENS_9allocatorIcEEEENS1_IS8_NS6_IS8_EEEEEENS6_ISB_EEE16__destroy_vectorEE10__completeB7v160006Ev, symObjAddr: 0x4228, symBinAddr: 0x100004E6C, symSize: 0x1C }
  - { offsetInCU: 0x141E4, offset: 0x141E4, size: 0x8, addend: 0x0, symName: __ZNSt3__128__exception_guard_exceptionsINS_6vectorINS_4pairINS_12basic_stringIcNS_11char_traitsIcEENS_9allocatorIcEEEENS1_IS8_NS6_IS8_EEEEEENS6_ISB_EEE16__destroy_vectorEED1B7v160006Ev, symObjAddr: 0x4244, symBinAddr: 0x100004E88, symSize: 0x2C }
  - { offsetInCU: 0x1420E, offset: 0x1420E, size: 0x8, addend: 0x0, symName: __ZNSt3__117__compressed_pairIPNS_4pairINS_12basic_stringIcNS_11char_traitsIcEENS_9allocatorIcEEEENS_6vectorIS7_NS5_IS7_EEEEEENS5_ISB_EEEC2B7v160006IDnNS_18__default_init_tagEEEOT_OT0_, symObjAddr: 0x4270, symBinAddr: 0x100004EB4, symSize: 0x40 }
  - { offsetInCU: 0x14266, offset: 0x14266, size: 0x8, addend: 0x0, symName: __ZNSt3__122__compressed_pair_elemIPNS_4pairINS_12basic_stringIcNS_11char_traitsIcEENS_9allocatorIcEEEENS_6vectorIS7_NS5_IS7_EEEEEELi0ELb0EEC2B7v160006IDnvEEOT_, symObjAddr: 0x42B0, symBinAddr: 0x100004EF4, symSize: 0x1C }
  - { offsetInCU: 0x142A8, offset: 0x142A8, size: 0x8, addend: 0x0, symName: __ZNSt3__122__compressed_pair_elemINS_9allocatorINS_4pairINS_12basic_stringIcNS_11char_traitsIcEENS1_IcEEEENS_6vectorIS7_NS1_IS7_EEEEEEEELi1ELb1EEC2B7v160006ENS_18__default_init_tagE, symObjAddr: 0x42CC, symBinAddr: 0x100004F10, symSize: 0x2C }
  - { offsetInCU: 0x142DC, offset: 0x142DC, size: 0x8, addend: 0x0, symName: __ZNSt3__19allocatorINS_4pairINS_12basic_stringIcNS_11char_traitsIcEENS0_IcEEEENS_6vectorIS6_NS0_IS6_EEEEEEEC2B7v160006Ev, symObjAddr: 0x42F8, symBinAddr: 0x100004F3C, symSize: 0x2C }
  - { offsetInCU: 0x14306, offset: 0x14306, size: 0x8, addend: 0x0, symName: __ZNSt3__116__non_trivial_ifILb1ENS_9allocatorINS_4pairINS_12basic_stringIcNS_11char_traitsIcEENS1_IcEEEENS_6vectorIS7_NS1_IS7_EEEEEEEEEC2B7v160006Ev, symObjAddr: 0x4324, symBinAddr: 0x100004F68, symSize: 0x14 }
  - { offsetInCU: 0x14330, offset: 0x14330, size: 0x8, addend: 0x0, symName: __ZNSt3__128__exception_guard_exceptionsINS_6vectorINS_4pairINS_12basic_stringIcNS_11char_traitsIcEENS_9allocatorIcEEEENS1_IS8_NS6_IS8_EEEEEENS6_ISB_EEE16__destroy_vectorEEC1B7v160006ESE_, symObjAddr: 0x4338, symBinAddr: 0x100004F7C, symSize: 0x34 }
  - { offsetInCU: 0x14368, offset: 0x14368, size: 0x8, addend: 0x0, symName: __ZNSt3__128__exception_guard_exceptionsINS_6vectorINS_4pairINS_12basic_stringIcNS_11char_traitsIcEENS_9allocatorIcEEEENS1_IS8_NS6_IS8_EEEEEENS6_ISB_EEE16__destroy_vectorEEC2B7v160006ESE_, symObjAddr: 0x436C, symBinAddr: 0x100004FB0, symSize: 0x24 }
  - { offsetInCU: 0x143A0, offset: 0x143A0, size: 0x8, addend: 0x0, symName: __ZNSt3__16vectorINS_4pairINS_12basic_stringIcNS_11char_traitsIcEENS_9allocatorIcEEEENS0_IS7_NS5_IS7_EEEEEENS5_ISA_EEE16__destroy_vectorC2ERSC_, symObjAddr: 0x4390, symBinAddr: 0x100004FD4, symSize: 0x20 }
  - { offsetInCU: 0x143D9, offset: 0x143D9, size: 0x8, addend: 0x0, symName: __ZNKSt3__16vectorINS_4pairINS_12basic_stringIcNS_11char_traitsIcEENS_9allocatorIcEEEENS0_IS7_NS5_IS7_EEEEEENS5_ISA_EEE8max_sizeEv, symObjAddr: 0x43B0, symBinAddr: 0x100004FF4, symSize: 0x60 }
  - { offsetInCU: 0x14401, offset: 0x14401, size: 0x8, addend: 0x0, symName: __ZNKSt3__16vectorINS_4pairINS_12basic_stringIcNS_11char_traitsIcEENS_9allocatorIcEEEENS0_IS7_NS5_IS7_EEEEEENS5_ISA_EEE20__throw_length_errorB7v160006Ev, symObjAddr: 0x4410, symBinAddr: 0x100005054, symSize: 0x1C }
  - { offsetInCU: 0x14427, offset: 0x14427, size: 0x8, addend: 0x0, symName: __ZNSt3__16vectorINS_4pairINS_12basic_stringIcNS_11char_traitsIcEENS_9allocatorIcEEEENS0_IS7_NS5_IS7_EEEEEENS5_ISA_EEE7__allocB7v160006Ev, symObjAddr: 0x446C, symBinAddr: 0x1000050B0, symSize: 0x28 }
  - { offsetInCU: 0x1444D, offset: 0x1444D, size: 0x8, addend: 0x0, symName: __ZNSt3__16vectorINS_4pairINS_12basic_stringIcNS_11char_traitsIcEENS_9allocatorIcEEEENS0_IS7_NS5_IS7_EEEEEENS5_ISA_EEE9__end_capB7v160006Ev, symObjAddr: 0x4494, symBinAddr: 0x1000050D8, symSize: 0x28 }
  - { offsetInCU: 0x14473, offset: 0x14473, size: 0x8, addend: 0x0, symName: __ZNKSt3__16vectorINS_4pairINS_12basic_stringIcNS_11char_traitsIcEENS_9allocatorIcEEEENS0_IS7_NS5_IS7_EEEEEENS5_ISA_EEE14__annotate_newB7v160006Em, symObjAddr: 0x44BC, symBinAddr: 0x100005100, symSize: 0xC8 }
  - { offsetInCU: 0x144B3, offset: 0x144B3, size: 0x8, addend: 0x0, symName: __ZNSt3__116allocator_traitsINS_9allocatorINS_4pairINS_12basic_stringIcNS_11char_traitsIcEENS1_IcEEEENS_6vectorIS7_NS1_IS7_EEEEEEEEE8max_sizeB7v160006ISC_vvEEmRKSC_, symObjAddr: 0x4584, symBinAddr: 0x1000051C8, symSize: 0x28 }
  - { offsetInCU: 0x144DF, offset: 0x144DF, size: 0x8, addend: 0x0, symName: __ZNKSt3__16vectorINS_4pairINS_12basic_stringIcNS_11char_traitsIcEENS_9allocatorIcEEEENS0_IS7_NS5_IS7_EEEEEENS5_ISA_EEE7__allocB7v160006Ev, symObjAddr: 0x45AC, symBinAddr: 0x1000051F0, symSize: 0x28 }
  - { offsetInCU: 0x14505, offset: 0x14505, size: 0x8, addend: 0x0, symName: __ZNKSt3__117__compressed_pairIPNS_4pairINS_12basic_stringIcNS_11char_traitsIcEENS_9allocatorIcEEEENS_6vectorIS7_NS5_IS7_EEEEEENS5_ISB_EEE6secondB7v160006Ev, symObjAddr: 0x45D4, symBinAddr: 0x100005218, symSize: 0x24 }
  - { offsetInCU: 0x1452B, offset: 0x1452B, size: 0x8, addend: 0x0, symName: __ZNKSt3__122__compressed_pair_elemINS_9allocatorINS_4pairINS_12basic_stringIcNS_11char_traitsIcEENS1_IcEEEENS_6vectorIS7_NS1_IS7_EEEEEEEELi1ELb1EE5__getB7v160006Ev, symObjAddr: 0x45F8, symBinAddr: 0x10000523C, symSize: 0x14 }
  - { offsetInCU: 0x14551, offset: 0x14551, size: 0x8, addend: 0x0, symName: __ZNSt3__19allocatorINS_4pairINS_12basic_stringIcNS_11char_traitsIcEENS0_IcEEEENS_6vectorIS6_NS0_IS6_EEEEEEE8allocateB7v160006Em, symObjAddr: 0x460C, symBinAddr: 0x100005250, symSize: 0x5C }
  - { offsetInCU: 0x14585, offset: 0x14585, size: 0x8, addend: 0x0, symName: __ZNSt3__117__compressed_pairIPNS_4pairINS_12basic_stringIcNS_11char_traitsIcEENS_9allocatorIcEEEENS_6vectorIS7_NS5_IS7_EEEEEENS5_ISB_EEE6secondB7v160006Ev, symObjAddr: 0x4668, symBinAddr: 0x1000052AC, symSize: 0x24 }
  - { offsetInCU: 0x145AB, offset: 0x145AB, size: 0x8, addend: 0x0, symName: __ZNSt3__122__compressed_pair_elemINS_9allocatorINS_4pairINS_12basic_stringIcNS_11char_traitsIcEENS1_IcEEEENS_6vectorIS7_NS1_IS7_EEEEEEEELi1ELb1EE5__getB7v160006Ev, symObjAddr: 0x468C, symBinAddr: 0x1000052D0, symSize: 0x14 }
  - { offsetInCU: 0x145D1, offset: 0x145D1, size: 0x8, addend: 0x0, symName: __ZNSt3__117__compressed_pairIPNS_4pairINS_12basic_stringIcNS_11char_traitsIcEENS_9allocatorIcEEEENS_6vectorIS7_NS5_IS7_EEEEEENS5_ISB_EEE5firstB7v160006Ev, symObjAddr: 0x46A0, symBinAddr: 0x1000052E4, symSize: 0x24 }
  - { offsetInCU: 0x145F7, offset: 0x145F7, size: 0x8, addend: 0x0, symName: __ZNSt3__122__compressed_pair_elemIPNS_4pairINS_12basic_stringIcNS_11char_traitsIcEENS_9allocatorIcEEEENS_6vectorIS7_NS5_IS7_EEEEEELi0ELb0EE5__getB7v160006Ev, symObjAddr: 0x46C4, symBinAddr: 0x100005308, symSize: 0x14 }
  - { offsetInCU: 0x1461D, offset: 0x1461D, size: 0x8, addend: 0x0, symName: __ZNKSt3__16vectorINS_4pairINS_12basic_stringIcNS_11char_traitsIcEENS_9allocatorIcEEEENS0_IS7_NS5_IS7_EEEEEENS5_ISA_EEE31__annotate_contiguous_containerB7v160006EPKvSE_SE_SE_, symObjAddr: 0x46D8, symBinAddr: 0x10000531C, symSize: 0x20 }
  - { offsetInCU: 0x14673, offset: 0x14673, size: 0x8, addend: 0x0, symName: __ZNKSt3__16vectorINS_4pairINS_12basic_stringIcNS_11char_traitsIcEENS_9allocatorIcEEEENS0_IS7_NS5_IS7_EEEEEENS5_ISA_EEE4dataB7v160006Ev, symObjAddr: 0x46F8, symBinAddr: 0x10000533C, symSize: 0x28 }
  - { offsetInCU: 0x14699, offset: 0x14699, size: 0x8, addend: 0x0, symName: __ZNKSt3__16vectorINS_4pairINS_12basic_stringIcNS_11char_traitsIcEENS_9allocatorIcEEEENS0_IS7_NS5_IS7_EEEEEENS5_ISA_EEE8capacityB7v160006Ev, symObjAddr: 0x4720, symBinAddr: 0x100005364, symSize: 0x40 }
  - { offsetInCU: 0x146BF, offset: 0x146BF, size: 0x8, addend: 0x0, symName: __ZNKSt3__16vectorINS_4pairINS_12basic_stringIcNS_11char_traitsIcEENS_9allocatorIcEEEENS0_IS7_NS5_IS7_EEEEEENS5_ISA_EEE9__end_capB7v160006Ev, symObjAddr: 0x4774, symBinAddr: 0x1000053B8, symSize: 0x28 }
  - { offsetInCU: 0x146E5, offset: 0x146E5, size: 0x8, addend: 0x0, symName: __ZNKSt3__117__compressed_pairIPNS_4pairINS_12basic_stringIcNS_11char_traitsIcEENS_9allocatorIcEEEENS_6vectorIS7_NS5_IS7_EEEEEENS5_ISB_EEE5firstB7v160006Ev, symObjAddr: 0x479C, symBinAddr: 0x1000053E0, symSize: 0x24 }
  - { offsetInCU: 0x1470B, offset: 0x1470B, size: 0x8, addend: 0x0, symName: __ZNKSt3__122__compressed_pair_elemIPNS_4pairINS_12basic_stringIcNS_11char_traitsIcEENS_9allocatorIcEEEENS_6vectorIS7_NS5_IS7_EEEEEELi0ELb0EE5__getB7v160006Ev, symObjAddr: 0x47C0, symBinAddr: 0x100005404, symSize: 0x14 }
  - { offsetInCU: 0x1474C, offset: 0x1474C, size: 0x8, addend: 0x0, symName: __ZNSt3__16vectorINS_4pairINS_12basic_stringIcNS_11char_traitsIcEENS_9allocatorIcEEEENS0_IS7_NS5_IS7_EEEEEENS5_ISA_EEE21_ConstructTransactionC1B7v160006ERSC_m, symObjAddr: 0x47D4, symBinAddr: 0x100005418, symSize: 0x3C }
  - { offsetInCU: 0x14794, offset: 0x14794, size: 0x8, addend: 0x0, symName: __ZNSt3__16vectorINS_4pairINS_12basic_stringIcNS_11char_traitsIcEENS_9allocatorIcEEEENS0_IS7_NS5_IS7_EEEEEENS5_ISA_EEE21_ConstructTransactionD1B7v160006Ev, symObjAddr: 0x4904, symBinAddr: 0x100005548, symSize: 0x2C }
  - { offsetInCU: 0x147BE, offset: 0x147BE, size: 0x8, addend: 0x0, symName: __ZNSt3__16vectorINS_4pairINS_12basic_stringIcNS_11char_traitsIcEENS_9allocatorIcEEEENS0_IS7_NS5_IS7_EEEEEENS5_ISA_EEE21_ConstructTransactionC2B7v160006ERSC_m, symObjAddr: 0x4930, symBinAddr: 0x100005574, symSize: 0x4C }
  - { offsetInCU: 0x14806, offset: 0x14806, size: 0x8, addend: 0x0, symName: __ZNSt3__129_AllocatorDestroyRangeReverseINS_9allocatorINS_4pairINS_12basic_stringIcNS_11char_traitsIcEENS1_IcEEEENS_6vectorIS7_NS1_IS7_EEEEEEEEPSB_EC1B7v160006ERSC_RSD_SG_, symObjAddr: 0x49C8, symBinAddr: 0x10000560C, symSize: 0x44 }
  - { offsetInCU: 0x1485D, offset: 0x1485D, size: 0x8, addend: 0x0, symName: __ZNSt3__116allocator_traitsINS_9allocatorINS_4pairINS_12basic_stringIcNS_11char_traitsIcEENS1_IcEEEENS_6vectorIS7_NS1_IS7_EEEEEEEEE9constructB7v160006ISB_JRKSB_EvvEEvRSC_PT_DpOT0_, symObjAddr: 0x4A0C, symBinAddr: 0x100005650, symSize: 0x30 }
  - { offsetInCU: 0x148B2, offset: 0x148B2, size: 0x8, addend: 0x0, symName: __ZNSt3__128__exception_guard_exceptionsINS_29_AllocatorDestroyRangeReverseINS_9allocatorINS_4pairINS_12basic_stringIcNS_11char_traitsIcEENS2_IcEEEENS_6vectorIS8_NS2_IS8_EEEEEEEEPSC_EEE10__completeB7v160006Ev, symObjAddr: 0x4A3C, symBinAddr: 0x100005680, symSize: 0x1C }
  - { offsetInCU: 0x148D8, offset: 0x148D8, size: 0x8, addend: 0x0, symName: __ZNSt3__128__exception_guard_exceptionsINS_29_AllocatorDestroyRangeReverseINS_9allocatorINS_4pairINS_12basic_stringIcNS_11char_traitsIcEENS2_IcEEEENS_6vectorIS8_NS2_IS8_EEEEEEEEPSC_EEED1B7v160006Ev, symObjAddr: 0x4A58, symBinAddr: 0x10000569C, symSize: 0x2C }
  - { offsetInCU: 0x14902, offset: 0x14902, size: 0x8, addend: 0x0, symName: __ZNSt3__128__exception_guard_exceptionsINS_29_AllocatorDestroyRangeReverseINS_9allocatorINS_4pairINS_12basic_stringIcNS_11char_traitsIcEENS2_IcEEEENS_6vectorIS8_NS2_IS8_EEEEEEEEPSC_EEEC1B7v160006ESF_, symObjAddr: 0x4A84, symBinAddr: 0x1000056C8, symSize: 0x34 }
  - { offsetInCU: 0x1493B, offset: 0x1493B, size: 0x8, addend: 0x0, symName: __ZNSt3__128__exception_guard_exceptionsINS_29_AllocatorDestroyRangeReverseINS_9allocatorINS_4pairINS_12basic_stringIcNS_11char_traitsIcEENS2_IcEEEENS_6vectorIS8_NS2_IS8_EEEEEEEEPSC_EEEC2B7v160006ESF_, symObjAddr: 0x4AB8, symBinAddr: 0x1000056FC, symSize: 0x30 }
  - { offsetInCU: 0x14974, offset: 0x14974, size: 0x8, addend: 0x0, symName: __ZNSt3__129_AllocatorDestroyRangeReverseINS_9allocatorINS_4pairINS_12basic_stringIcNS_11char_traitsIcEENS1_IcEEEENS_6vectorIS7_NS1_IS7_EEEEEEEEPSB_EC2B7v160006ERSC_RSD_SG_, symObjAddr: 0x4AE8, symBinAddr: 0x10000572C, symSize: 0x38 }
  - { offsetInCU: 0x149CB, offset: 0x149CB, size: 0x8, addend: 0x0, symName: __ZNSt3__14pairINS_12basic_stringIcNS_11char_traitsIcEENS_9allocatorIcEEEENS_6vectorIS6_NS4_IS6_EEEEEC1ERKSA_, symObjAddr: 0x4B5C, symBinAddr: 0x1000057A0, symSize: 0x34 }
  - { offsetInCU: 0x149FF, offset: 0x149FF, size: 0x8, addend: 0x0, symName: __ZNSt3__14pairINS_12basic_stringIcNS_11char_traitsIcEENS_9allocatorIcEEEENS_6vectorIS6_NS4_IS6_EEEEEC2ERKSA_, symObjAddr: 0x4B90, symBinAddr: 0x1000057D4, symSize: 0x70 }
  - { offsetInCU: 0x14A33, offset: 0x14A33, size: 0x8, addend: 0x0, symName: __ZNSt3__128__exception_guard_exceptionsINS_29_AllocatorDestroyRangeReverseINS_9allocatorINS_4pairINS_12basic_stringIcNS_11char_traitsIcEENS2_IcEEEENS_6vectorIS8_NS2_IS8_EEEEEEEEPSC_EEED2B7v160006Ev, symObjAddr: 0x4C00, symBinAddr: 0x100005844, symSize: 0x50 }
  - { offsetInCU: 0x14A5D, offset: 0x14A5D, size: 0x8, addend: 0x0, symName: __ZNKSt3__129_AllocatorDestroyRangeReverseINS_9allocatorINS_4pairINS_12basic_stringIcNS_11char_traitsIcEENS1_IcEEEENS_6vectorIS7_NS1_IS7_EEEEEEEEPSB_EclB7v160006Ev, symObjAddr: 0x4C50, symBinAddr: 0x100005894, symSize: 0x68 }
  - { offsetInCU: 0x14A83, offset: 0x14A83, size: 0x8, addend: 0x0, symName: __ZNSt3__116reverse_iteratorIPNS_4pairINS_12basic_stringIcNS_11char_traitsIcEENS_9allocatorIcEEEENS_6vectorIS7_NS5_IS7_EEEEEEEC1B7v160006ESC_, symObjAddr: 0x4D28, symBinAddr: 0x10000596C, symSize: 0x34 }
  - { offsetInCU: 0x14ABB, offset: 0x14ABB, size: 0x8, addend: 0x0, symName: __ZNSt3__116allocator_traitsINS_9allocatorINS_4pairINS_12basic_stringIcNS_11char_traitsIcEENS1_IcEEEENS_6vectorIS7_NS1_IS7_EEEEEEEEE7destroyB7v160006ISB_vvEEvRSC_PT_, symObjAddr: 0x4DA4, symBinAddr: 0x1000059E8, symSize: 0x28 }
  - { offsetInCU: 0x14AF6, offset: 0x14AF6, size: 0x8, addend: 0x0, symName: __ZNSt3__116reverse_iteratorIPNS_4pairINS_12basic_stringIcNS_11char_traitsIcEENS_9allocatorIcEEEENS_6vectorIS7_NS5_IS7_EEEEEEEppB7v160006Ev, symObjAddr: 0x4DF0, symBinAddr: 0x100005A34, symSize: 0x20 }
  - { offsetInCU: 0x14B1C, offset: 0x14B1C, size: 0x8, addend: 0x0, symName: __ZNKSt3__116reverse_iteratorIPNS_4pairINS_12basic_stringIcNS_11char_traitsIcEENS_9allocatorIcEEEENS_6vectorIS7_NS5_IS7_EEEEEEE4baseB7v160006Ev, symObjAddr: 0x4E10, symBinAddr: 0x100005A54, symSize: 0x18 }
  - { offsetInCU: 0x14B48, offset: 0x14B48, size: 0x8, addend: 0x0, symName: __ZNSt3__119__to_address_helperINS_16reverse_iteratorIPNS_4pairINS_12basic_stringIcNS_11char_traitsIcEENS_9allocatorIcEEEENS_6vectorIS8_NS6_IS8_EEEEEEEEvE6__callB7v160006ERKSE_, symObjAddr: 0x4E70, symBinAddr: 0x100005AB4, symSize: 0x38 }
  - { offsetInCU: 0x14B6B, offset: 0x14B6B, size: 0x8, addend: 0x0, symName: __ZNKSt3__116reverse_iteratorIPNS_4pairINS_12basic_stringIcNS_11char_traitsIcEENS_9allocatorIcEEEENS_6vectorIS7_NS5_IS7_EEEEEEEptB7v160006Ev, symObjAddr: 0x4EA8, symBinAddr: 0x100005AEC, symSize: 0x2C }
  - { offsetInCU: 0x14B91, offset: 0x14B91, size: 0x8, addend: 0x0, symName: __ZNSt3__116reverse_iteratorIPNS_4pairINS_12basic_stringIcNS_11char_traitsIcEENS_9allocatorIcEEEENS_6vectorIS7_NS5_IS7_EEEEEEEC2B7v160006ESC_, symObjAddr: 0x4FA4, symBinAddr: 0x100005BE8, symSize: 0x28 }
  - { offsetInCU: 0x14BC9, offset: 0x14BC9, size: 0x8, addend: 0x0, symName: __ZNSt3__16vectorINS_4pairINS_12basic_stringIcNS_11char_traitsIcEENS_9allocatorIcEEEENS0_IS7_NS5_IS7_EEEEEENS5_ISA_EEE21_ConstructTransactionD2B7v160006Ev, symObjAddr: 0x4FCC, symBinAddr: 0x100005C10, symSize: 0x20 }
  - { offsetInCU: 0x14BF3, offset: 0x14BF3, size: 0x8, addend: 0x0, symName: __ZNSt3__128__exception_guard_exceptionsINS_6vectorINS_4pairINS_12basic_stringIcNS_11char_traitsIcEENS_9allocatorIcEEEENS1_IS8_NS6_IS8_EEEEEENS6_ISB_EEE16__destroy_vectorEED2B7v160006Ev, symObjAddr: 0x4FEC, symBinAddr: 0x100005C30, symSize: 0x50 }
  - { offsetInCU: 0x14C1D, offset: 0x14C1D, size: 0x8, addend: 0x0, symName: __ZNSt3__16vectorINS_4pairINS_12basic_stringIcNS_11char_traitsIcEENS_9allocatorIcEEEENS0_IS7_NS5_IS7_EEEEEENS5_ISA_EEE16__destroy_vectorclB7v160006Ev, symObjAddr: 0x503C, symBinAddr: 0x100005C80, symSize: 0x9C }
  - { offsetInCU: 0x14C43, offset: 0x14C43, size: 0x8, addend: 0x0, symName: __ZNKSt3__16vectorINS_4pairINS_12basic_stringIcNS_11char_traitsIcEENS_9allocatorIcEEEENS0_IS7_NS5_IS7_EEEEEENS5_ISA_EEE17__annotate_deleteB7v160006Ev, symObjAddr: 0x50D8, symBinAddr: 0x100005D1C, symSize: 0xD4 }
  - { offsetInCU: 0x14C69, offset: 0x14C69, size: 0x8, addend: 0x0, symName: __ZNSt3__16vectorINS_4pairINS_12basic_stringIcNS_11char_traitsIcEENS_9allocatorIcEEEENS0_IS7_NS5_IS7_EEEEEENS5_ISA_EEE7__clearB7v160006Ev, symObjAddr: 0x51BC, symBinAddr: 0x100005E00, symSize: 0x28 }
  - { offsetInCU: 0x14C8F, offset: 0x14C8F, size: 0x8, addend: 0x0, symName: __ZNSt3__116allocator_traitsINS_9allocatorINS_4pairINS_12basic_stringIcNS_11char_traitsIcEENS1_IcEEEENS_6vectorIS7_NS1_IS7_EEEEEEEEE10deallocateB7v160006ERSC_PSB_m, symObjAddr: 0x51E4, symBinAddr: 0x100005E28, symSize: 0x34 }
  - { offsetInCU: 0x14CD1, offset: 0x14CD1, size: 0x8, addend: 0x0, symName: __ZNKSt3__16vectorINS_4pairINS_12basic_stringIcNS_11char_traitsIcEENS_9allocatorIcEEEENS0_IS7_NS5_IS7_EEEEEENS5_ISA_EEE4sizeB7v160006Ev, symObjAddr: 0x5218, symBinAddr: 0x100005E5C, symSize: 0x28 }
  - { offsetInCU: 0x14CF7, offset: 0x14CF7, size: 0x8, addend: 0x0, symName: __ZNSt3__16vectorINS_4pairINS_12basic_stringIcNS_11char_traitsIcEENS_9allocatorIcEEEENS0_IS7_NS5_IS7_EEEEEENS5_ISA_EEE22__base_destruct_at_endB7v160006EPSA_, symObjAddr: 0x5240, symBinAddr: 0x100005E84, symSize: 0x8C }
  - { offsetInCU: 0x14D3B, offset: 0x14D3B, size: 0x8, addend: 0x0, symName: __ZNSt3__19allocatorINS_4pairINS_12basic_stringIcNS_11char_traitsIcEENS0_IcEEEENS_6vectorIS6_NS0_IS6_EEEEEEE10deallocateB7v160006EPSA_m, symObjAddr: 0x52CC, symBinAddr: 0x100005F10, symSize: 0x44 }
  - { offsetInCU: 0x14D7D, offset: 0x14D7D, size: 0x8, addend: 0x0, symName: __ZNSt3__14pairINS_12basic_stringIcNS_11char_traitsIcEENS_9allocatorIcEEEENS_6vectorIS6_NS4_IS6_EEEEED2Ev, symObjAddr: 0x5310, symBinAddr: 0x100005F54, symSize: 0x38 }
  - { offsetInCU: 0x14DA9, offset: 0x14DA9, size: 0x8, addend: 0x0, symName: __ZNSt3__16vectorINS_12basic_stringIcNS_11char_traitsIcEENS_9allocatorIcEEEENS4_IS6_EEED2B7v160006Ev, symObjAddr: 0x5348, symBinAddr: 0x100005F8C, symSize: 0x44 }
  - { offsetInCU: 0x14DD3, offset: 0x14DD3, size: 0x8, addend: 0x0, symName: __ZNSt3__16vectorIbNS_9allocatorIbEEEC2ESt16initializer_listIbE, symObjAddr: 0x538C, symBinAddr: 0x100005FD0, symSize: 0xB8 }
  - { offsetInCU: 0x14E31, offset: 0x14E31, size: 0x8, addend: 0x0, symName: __ZNSt3__117__compressed_pairImNS_9allocatorImEEEC1B7v160006IiNS_18__default_init_tagEEEOT_OT0_, symObjAddr: 0x5444, symBinAddr: 0x100006088, symSize: 0x3C }
  - { offsetInCU: 0x14E89, offset: 0x14E89, size: 0x8, addend: 0x0, symName: __ZNKSt16initializer_listIbE4sizeB7v160006Ev, symObjAddr: 0x5480, symBinAddr: 0x1000060C4, symSize: 0x18 }
  - { offsetInCU: 0x14EAF, offset: 0x14EAF, size: 0x8, addend: 0x0, symName: __ZNSt3__16vectorIbNS_9allocatorIbEEE11__vallocateB7v160006Em, symObjAddr: 0x5498, symBinAddr: 0x1000060DC, symSize: 0xA0 }
  - { offsetInCU: 0x14EF3, offset: 0x14EF3, size: 0x8, addend: 0x0, symName: __ZNSt3__16vectorIbNS_9allocatorIbEEE18__construct_at_endIPKbEENS_9enable_ifIXsr27__is_cpp17_forward_iteratorIT_EE5valueEvE4typeES8_S8_, symObjAddr: 0x5538, symBinAddr: 0x10000617C, symSize: 0x11C }
  - { offsetInCU: 0x14F51, offset: 0x14F51, size: 0x8, addend: 0x0, symName: __ZNKSt16initializer_listIbE5beginB7v160006Ev, symObjAddr: 0x5654, symBinAddr: 0x100006298, symSize: 0x18 }
  - { offsetInCU: 0x14F77, offset: 0x14F77, size: 0x8, addend: 0x0, symName: __ZNKSt16initializer_listIbE3endB7v160006Ev, symObjAddr: 0x566C, symBinAddr: 0x1000062B0, symSize: 0x20 }
  - { offsetInCU: 0x14F9D, offset: 0x14F9D, size: 0x8, addend: 0x0, symName: __ZNSt3__117__compressed_pairImNS_9allocatorImEEEC2B7v160006IiNS_18__default_init_tagEEEOT_OT0_, symObjAddr: 0x568C, symBinAddr: 0x1000062D0, symSize: 0x40 }
  - { offsetInCU: 0x14FF5, offset: 0x14FF5, size: 0x8, addend: 0x0, symName: __ZNSt3__122__compressed_pair_elemImLi0ELb0EEC2B7v160006IivEEOT_, symObjAddr: 0x56CC, symBinAddr: 0x100006310, symSize: 0x24 }
  - { offsetInCU: 0x15037, offset: 0x15037, size: 0x8, addend: 0x0, symName: __ZNSt3__122__compressed_pair_elemINS_9allocatorImEELi1ELb1EEC2B7v160006ENS_18__default_init_tagE, symObjAddr: 0x56F0, symBinAddr: 0x100006334, symSize: 0x2C }
  - { offsetInCU: 0x1506B, offset: 0x1506B, size: 0x8, addend: 0x0, symName: __ZNSt3__19allocatorImEC2B7v160006Ev, symObjAddr: 0x571C, symBinAddr: 0x100006360, symSize: 0x2C }
  - { offsetInCU: 0x15095, offset: 0x15095, size: 0x8, addend: 0x0, symName: __ZNSt3__116__non_trivial_ifILb1ENS_9allocatorImEEEC2B7v160006Ev, symObjAddr: 0x5748, symBinAddr: 0x10000638C, symSize: 0x14 }
  - { offsetInCU: 0x150BF, offset: 0x150BF, size: 0x8, addend: 0x0, symName: __ZNKSt3__16vectorIbNS_9allocatorIbEEE8max_sizeEv, symObjAddr: 0x575C, symBinAddr: 0x1000063A0, symSize: 0x7C }
  - { offsetInCU: 0x15105, offset: 0x15105, size: 0x8, addend: 0x0, symName: __ZNKSt3__16vectorIbNS_9allocatorIbEEE20__throw_length_errorB7v160006Ev, symObjAddr: 0x57D8, symBinAddr: 0x10000641C, symSize: 0x1C }
  - { offsetInCU: 0x1512B, offset: 0x1512B, size: 0x8, addend: 0x0, symName: __ZNSt3__16vectorIbNS_9allocatorIbEEE7__allocB7v160006Ev, symObjAddr: 0x5834, symBinAddr: 0x100006478, symSize: 0x28 }
  - { offsetInCU: 0x15151, offset: 0x15151, size: 0x8, addend: 0x0, symName: __ZNSt3__16vectorIbNS_9allocatorIbEEE26__external_cap_to_internalB7v160006Em, symObjAddr: 0x585C, symBinAddr: 0x1000064A0, symSize: 0x24 }
  - { offsetInCU: 0x15175, offset: 0x15175, size: 0x8, addend: 0x0, symName: __ZNSt3__16vectorIbNS_9allocatorIbEEE5__capB7v160006Ev, symObjAddr: 0x5880, symBinAddr: 0x1000064C4, symSize: 0x28 }
  - { offsetInCU: 0x151A6, offset: 0x151A6, size: 0x8, addend: 0x0, symName: __ZNSt3__116allocator_traitsINS_9allocatorImEEE8max_sizeB7v160006IS2_vvEEmRKS2_, symObjAddr: 0x58A8, symBinAddr: 0x1000064EC, symSize: 0x28 }
  - { offsetInCU: 0x151D2, offset: 0x151D2, size: 0x8, addend: 0x0, symName: __ZNKSt3__16vectorIbNS_9allocatorIbEEE7__allocB7v160006Ev, symObjAddr: 0x58D0, symBinAddr: 0x100006514, symSize: 0x28 }
  - { offsetInCU: 0x151F8, offset: 0x151F8, size: 0x8, addend: 0x0, symName: __ZNSt3__16vectorIbNS_9allocatorIbEEE26__internal_cap_to_externalB7v160006Em, symObjAddr: 0x58F8, symBinAddr: 0x10000653C, symSize: 0x18 }
  - { offsetInCU: 0x1521C, offset: 0x1521C, size: 0x8, addend: 0x0, symName: __ZNKSt3__117__compressed_pairImNS_9allocatorImEEE6secondB7v160006Ev, symObjAddr: 0x5910, symBinAddr: 0x100006554, symSize: 0x24 }
  - { offsetInCU: 0x15242, offset: 0x15242, size: 0x8, addend: 0x0, symName: __ZNKSt3__122__compressed_pair_elemINS_9allocatorImEELi1ELb1EE5__getB7v160006Ev, symObjAddr: 0x5934, symBinAddr: 0x100006578, symSize: 0x14 }
  - { offsetInCU: 0x15268, offset: 0x15268, size: 0x8, addend: 0x0, symName: __ZNSt3__19allocatorImE8allocateB7v160006Em, symObjAddr: 0x5948, symBinAddr: 0x10000658C, symSize: 0x58 }
  - { offsetInCU: 0x1529C, offset: 0x1529C, size: 0x8, addend: 0x0, symName: __ZNSt3__117__compressed_pairImNS_9allocatorImEEE6secondB7v160006Ev, symObjAddr: 0x59A0, symBinAddr: 0x1000065E4, symSize: 0x24 }
  - { offsetInCU: 0x152C2, offset: 0x152C2, size: 0x8, addend: 0x0, symName: __ZNSt3__122__compressed_pair_elemINS_9allocatorImEELi1ELb1EE5__getB7v160006Ev, symObjAddr: 0x59C4, symBinAddr: 0x100006608, symSize: 0x14 }
  - { offsetInCU: 0x152E8, offset: 0x152E8, size: 0x8, addend: 0x0, symName: __ZNSt3__117__compressed_pairImNS_9allocatorImEEE5firstB7v160006Ev, symObjAddr: 0x59D8, symBinAddr: 0x10000661C, symSize: 0x24 }
  - { offsetInCU: 0x1530E, offset: 0x1530E, size: 0x8, addend: 0x0, symName: __ZNSt3__122__compressed_pair_elemImLi0ELb0EE5__getB7v160006Ev, symObjAddr: 0x59FC, symBinAddr: 0x100006640, symSize: 0x14 }
  - { offsetInCU: 0x15334, offset: 0x15334, size: 0x8, addend: 0x0, symName: __ZNSt3__16vectorIbNS_9allocatorIbEEE11__make_iterB7v160006Em, symObjAddr: 0x5ABC, symBinAddr: 0x100006700, symSize: 0x64 }
  - { offsetInCU: 0x15369, offset: 0x15369, size: 0x8, addend: 0x0, symName: __ZNSt3__114__bit_iteratorINS_6vectorIbNS_9allocatorIbEEEELb0ELm0EEC1B7v160006ERKS5_, symObjAddr: 0x5BAC, symBinAddr: 0x1000067F0, symSize: 0x34 }
  - { offsetInCU: 0x153C8, offset: 0x153C8, size: 0x8, addend: 0x0, symName: __ZNKSt3__111__copy_loopINS_17_ClassicAlgPolicyEEclB7v160006IPKbS5_NS_14__bit_iteratorINS_6vectorIbNS_9allocatorIbEEEELb0ELm0EEEEENS_4pairIT_T1_EESD_T0_SE_, symObjAddr: 0x5D84, symBinAddr: 0x1000069C8, symSize: 0xA8 }
  - { offsetInCU: 0x15450, offset: 0x15450, size: 0x8, addend: 0x0, symName: __ZNSt3__119__unwrap_range_implIPKbS2_E8__unwrapB7v160006ES2_S2_, symObjAddr: 0x5F50, symBinAddr: 0x100006B94, symSize: 0x58 }
  - { offsetInCU: 0x15487, offset: 0x15487, size: 0x8, addend: 0x0, symName: __ZNSt3__14pairIPKbS2_EC1B7v160006IS2_S2_LPv0EEEOT_OT0_, symObjAddr: 0x5FCC, symBinAddr: 0x100006C10, symSize: 0x3C }
  - { offsetInCU: 0x154E5, offset: 0x154E5, size: 0x8, addend: 0x0, symName: __ZNSt3__118__unwrap_iter_implIPKbLb1EE8__unwrapB7v160006ES2_, symObjAddr: 0x6008, symBinAddr: 0x100006C4C, symSize: 0x24 }
  - { offsetInCU: 0x15508, offset: 0x15508, size: 0x8, addend: 0x0, symName: __ZNSt3__14pairIPKbS2_EC2B7v160006IS2_S2_LPv0EEEOT_OT0_, symObjAddr: 0x6040, symBinAddr: 0x100006C84, symSize: 0x34 }
  - { offsetInCU: 0x15566, offset: 0x15566, size: 0x8, addend: 0x0, symName: __ZNKSt3__114__bit_iteratorINS_6vectorIbNS_9allocatorIbEEEELb0ELm0EEdeB7v160006Ev, symObjAddr: 0x6074, symBinAddr: 0x100006CB8, symSize: 0x44 }
  - { offsetInCU: 0x1558C, offset: 0x1558C, size: 0x8, addend: 0x0, symName: __ZNSt3__115__bit_referenceINS_6vectorIbNS_9allocatorIbEEEELb1EEaSB7v160006Eb, symObjAddr: 0x60B8, symBinAddr: 0x100006CFC, symSize: 0x6C }
  - { offsetInCU: 0x155C0, offset: 0x155C0, size: 0x8, addend: 0x0, symName: __ZNSt3__114__bit_iteratorINS_6vectorIbNS_9allocatorIbEEEELb0ELm0EEppB7v160006Ev, symObjAddr: 0x6124, symBinAddr: 0x100006D68, symSize: 0x5C }
  - { offsetInCU: 0x155E6, offset: 0x155E6, size: 0x8, addend: 0x0, symName: __ZNSt3__115__bit_referenceINS_6vectorIbNS_9allocatorIbEEEELb1EEC1B7v160006EPmm, symObjAddr: 0x6180, symBinAddr: 0x100006DC4, symSize: 0x3C }
  - { offsetInCU: 0x1562C, offset: 0x1562C, size: 0x8, addend: 0x0, symName: __ZNSt3__115__bit_referenceINS_6vectorIbNS_9allocatorIbEEEELb1EEC2B7v160006EPmm, symObjAddr: 0x61BC, symBinAddr: 0x100006E00, symSize: 0x2C }
  - { offsetInCU: 0x15672, offset: 0x15672, size: 0x8, addend: 0x0, symName: __ZNSt3__118__unwrap_iter_implINS_14__bit_iteratorINS_6vectorIbNS_9allocatorIbEEEELb0ELm0EEELb0EE8__unwrapB7v160006ES6_, symObjAddr: 0x61E8, symBinAddr: 0x100006E2C, symSize: 0x38 }
  - { offsetInCU: 0x1569C, offset: 0x1569C, size: 0x8, addend: 0x0, symName: __ZNSt3__14pairIPKbNS_14__bit_iteratorINS_6vectorIbNS_9allocatorIbEEEELb0ELm0EEEEC1B7v160006IS2_S8_LPv0EEEOT_OT0_, symObjAddr: 0x6220, symBinAddr: 0x100006E64, symSize: 0x3C }
  - { offsetInCU: 0x156FA, offset: 0x156FA, size: 0x8, addend: 0x0, symName: __ZNSt3__14pairIPKbNS_14__bit_iteratorINS_6vectorIbNS_9allocatorIbEEEELb0ELm0EEEEC2B7v160006IS2_S8_LPv0EEEOT_OT0_, symObjAddr: 0x625C, symBinAddr: 0x100006EA0, symSize: 0x48 }
  - { offsetInCU: 0x15758, offset: 0x15758, size: 0x8, addend: 0x0, symName: __ZNSt3__119__unwrap_range_implIPKbS2_E8__rewrapB7v160006ES2_S2_, symObjAddr: 0x62A4, symBinAddr: 0x100006EE8, symSize: 0x2C }
  - { offsetInCU: 0x15789, offset: 0x15789, size: 0x8, addend: 0x0, symName: __ZNSt3__118__unwrap_iter_implIPKbLb1EE8__rewrapB7v160006ES2_S2_, symObjAddr: 0x630C, symBinAddr: 0x100006F50, symSize: 0x48 }
  - { offsetInCU: 0x157BA, offset: 0x157BA, size: 0x8, addend: 0x0, symName: __ZNSt3__118__unwrap_iter_implINS_14__bit_iteratorINS_6vectorIbNS_9allocatorIbEEEELb0ELm0EEELb0EE8__rewrapB7v160006ES6_S6_, symObjAddr: 0x6354, symBinAddr: 0x100006F98, symSize: 0x3C }
  - { offsetInCU: 0x157E9, offset: 0x157E9, size: 0x8, addend: 0x0, symName: __ZNSt3__114__bit_iteratorINS_6vectorIbNS_9allocatorIbEEEELb0ELm0EEC2B7v160006ERKS5_, symObjAddr: 0x6390, symBinAddr: 0x100006FD4, symSize: 0x30 }
  - { offsetInCU: 0x15822, offset: 0x15822, size: 0x8, addend: 0x0, symName: __ZNSt3__114__bit_iteratorINS_6vectorIbNS_9allocatorIbEEEELb0ELm0EEC1B7v160006EPmj, symObjAddr: 0x63C0, symBinAddr: 0x100007004, symSize: 0x3C }
  - { offsetInCU: 0x1586A, offset: 0x1586A, size: 0x8, addend: 0x0, symName: __ZNSt3__114__bit_iteratorINS_6vectorIbNS_9allocatorIbEEEELb0ELm0EEC2B7v160006EPmj, symObjAddr: 0x63FC, symBinAddr: 0x100007040, symSize: 0x2C }
  - { offsetInCU: 0x158B2, offset: 0x158B2, size: 0x8, addend: 0x0, symName: __ZN4TrieC2Ev, symObjAddr: 0x6428, symBinAddr: 0x10000706C, symSize: 0x14 }
  - { offsetInCU: 0x158DC, offset: 0x158DC, size: 0x8, addend: 0x0, symName: __ZNSt3__16vectorINS_4pairINS_12basic_stringIcNS_11char_traitsIcEENS_9allocatorIcEEEENS0_IS7_NS5_IS7_EEEEEENS5_ISA_EEE11__make_iterB7v160006EPSA_, symObjAddr: 0x643C, symBinAddr: 0x100007080, symSize: 0x34 }
  - { offsetInCU: 0x15911, offset: 0x15911, size: 0x8, addend: 0x0, symName: __ZNSt3__111__wrap_iterIPNS_4pairINS_12basic_stringIcNS_11char_traitsIcEENS_9allocatorIcEEEENS_6vectorIS7_NS5_IS7_EEEEEEEC1B7v160006EPKvSC_, symObjAddr: 0x6470, symBinAddr: 0x1000070B4, symSize: 0x3C }
  - { offsetInCU: 0x15957, offset: 0x15957, size: 0x8, addend: 0x0, symName: __ZNSt3__111__wrap_iterIPNS_4pairINS_12basic_stringIcNS_11char_traitsIcEENS_9allocatorIcEEEENS_6vectorIS7_NS5_IS7_EEEEEEEC2B7v160006EPKvSC_, symObjAddr: 0x64AC, symBinAddr: 0x1000070F0, symSize: 0x24 }
  - { offsetInCU: 0x1599D, offset: 0x1599D, size: 0x8, addend: 0x0, symName: __ZNKSt3__111__wrap_iterIPNS_4pairINS_12basic_stringIcNS_11char_traitsIcEENS_9allocatorIcEEEENS_6vectorIS7_NS5_IS7_EEEEEEE4baseB7v160006Ev, symObjAddr: 0x6518, symBinAddr: 0x10000715C, symSize: 0x18 }
  - { offsetInCU: 0x159C3, offset: 0x159C3, size: 0x8, addend: 0x0, symName: __ZNKSt3__112basic_stringIcNS_11char_traitsIcEENS_9allocatorIcEEEcvNS_17basic_string_viewIcS2_EEB7v160006Ev, symObjAddr: 0x65E0, symBinAddr: 0x100007224, symSize: 0x50 }
  - { offsetInCU: 0x159E9, offset: 0x159E9, size: 0x8, addend: 0x0, symName: __ZNSt3__117basic_string_viewIcNS_11char_traitsIcEEEC1B7v160006EPKc, symObjAddr: 0x6630, symBinAddr: 0x100007274, symSize: 0x34 }
  - { offsetInCU: 0x15A22, offset: 0x15A22, size: 0x8, addend: 0x0, symName: __ZNKSt3__117basic_string_viewIcNS_11char_traitsIcEEE4sizeB7v160006Ev, symObjAddr: 0x6664, symBinAddr: 0x1000072A8, symSize: 0x18 }
  - { offsetInCU: 0x15A48, offset: 0x15A48, size: 0x8, addend: 0x0, symName: __ZNKSt3__117basic_string_viewIcNS_11char_traitsIcEEE7compareES3_, symObjAddr: 0x667C, symBinAddr: 0x1000072C0, symSize: 0x13C }
  - { offsetInCU: 0x15A9B, offset: 0x15A9B, size: 0x8, addend: 0x0, symName: __ZNSt3__111char_traitsIcE7compareEPKcS3_m, symObjAddr: 0x67B8, symBinAddr: 0x1000073FC, symSize: 0x6C }
  - { offsetInCU: 0x15ADA, offset: 0x15ADA, size: 0x8, addend: 0x0, symName: __ZNKSt3__117basic_string_viewIcNS_11char_traitsIcEEE4dataB7v160006Ev, symObjAddr: 0x6824, symBinAddr: 0x100007468, symSize: 0x18 }
  - { offsetInCU: 0x15B00, offset: 0x15B00, size: 0x8, addend: 0x0, symName: __ZNKSt3__112basic_stringIcNS_11char_traitsIcEENS_9allocatorIcEEE4dataB7v160006Ev, symObjAddr: 0x6870, symBinAddr: 0x1000074B4, symSize: 0x28 }
  - { offsetInCU: 0x15B26, offset: 0x15B26, size: 0x8, addend: 0x0, symName: __ZNKSt3__112basic_stringIcNS_11char_traitsIcEENS_9allocatorIcEEE4sizeB7v160006Ev, symObjAddr: 0x6898, symBinAddr: 0x1000074DC, symSize: 0x54 }
  - { offsetInCU: 0x15B4C, offset: 0x15B4C, size: 0x8, addend: 0x0, symName: __ZNSt3__117basic_string_viewIcNS_11char_traitsIcEEEC1B7v160006EPKcm, symObjAddr: 0x68EC, symBinAddr: 0x100007530, symSize: 0x3C }
  - { offsetInCU: 0x15B94, offset: 0x15B94, size: 0x8, addend: 0x0, symName: __ZNKSt3__112basic_stringIcNS_11char_traitsIcEENS_9allocatorIcEEE13__get_pointerB7v160006Ev, symObjAddr: 0x693C, symBinAddr: 0x100007580, symSize: 0x54 }
  - { offsetInCU: 0x15BBA, offset: 0x15BBA, size: 0x8, addend: 0x0, symName: __ZNKSt3__112basic_stringIcNS_11char_traitsIcEENS_9allocatorIcEEE9__is_longB7v160006Ev, symObjAddr: 0x6990, symBinAddr: 0x1000075D4, symSize: 0x38 }
  - { offsetInCU: 0x15BE0, offset: 0x15BE0, size: 0x8, addend: 0x0, symName: __ZNKSt3__112basic_stringIcNS_11char_traitsIcEENS_9allocatorIcEEE18__get_long_pointerB7v160006Ev, symObjAddr: 0x69C8, symBinAddr: 0x10000760C, symSize: 0x28 }
  - { offsetInCU: 0x15C06, offset: 0x15C06, size: 0x8, addend: 0x0, symName: __ZNKSt3__112basic_stringIcNS_11char_traitsIcEENS_9allocatorIcEEE19__get_short_pointerB7v160006Ev, symObjAddr: 0x69F0, symBinAddr: 0x100007634, symSize: 0x28 }
  - { offsetInCU: 0x15C2C, offset: 0x15C2C, size: 0x8, addend: 0x0, symName: __ZNKSt3__117__compressed_pairINS_12basic_stringIcNS_11char_traitsIcEENS_9allocatorIcEEE5__repES5_E5firstB7v160006Ev, symObjAddr: 0x6A18, symBinAddr: 0x10000765C, symSize: 0x24 }
  - { offsetInCU: 0x15C52, offset: 0x15C52, size: 0x8, addend: 0x0, symName: __ZNKSt3__122__compressed_pair_elemINS_12basic_stringIcNS_11char_traitsIcEENS_9allocatorIcEEE5__repELi0ELb0EE5__getB7v160006Ev, symObjAddr: 0x6A3C, symBinAddr: 0x100007680, symSize: 0x14 }
  - { offsetInCU: 0x15C78, offset: 0x15C78, size: 0x8, addend: 0x0, symName: __ZNSt3__114pointer_traitsIPKcE10pointer_toB7v160006ERS1_, symObjAddr: 0x6A50, symBinAddr: 0x100007694, symSize: 0x14 }
  - { offsetInCU: 0x15C9B, offset: 0x15C9B, size: 0x8, addend: 0x0, symName: __ZNKSt3__112basic_stringIcNS_11char_traitsIcEENS_9allocatorIcEEE15__get_long_sizeB7v160006Ev, symObjAddr: 0x6A64, symBinAddr: 0x1000076A8, symSize: 0x28 }
  - { offsetInCU: 0x15CC1, offset: 0x15CC1, size: 0x8, addend: 0x0, symName: __ZNKSt3__112basic_stringIcNS_11char_traitsIcEENS_9allocatorIcEEE16__get_short_sizeB7v160006Ev, symObjAddr: 0x6A8C, symBinAddr: 0x1000076D0, symSize: 0x34 }
  - { offsetInCU: 0x15CE7, offset: 0x15CE7, size: 0x8, addend: 0x0, symName: __ZNSt3__117basic_string_viewIcNS_11char_traitsIcEEEC2B7v160006EPKcm, symObjAddr: 0x6AC0, symBinAddr: 0x100007704, symSize: 0x50 }
  - { offsetInCU: 0x15D2F, offset: 0x15D2F, size: 0x8, addend: 0x0, symName: __ZNSt3__117basic_string_viewIcNS_11char_traitsIcEEEC2B7v160006EPKc, symObjAddr: 0x6B10, symBinAddr: 0x100007754, symSize: 0x44 }
  - { offsetInCU: 0x15D68, offset: 0x15D68, size: 0x8, addend: 0x0, symName: __ZNSt3__112basic_stringIcNS_11char_traitsIcEENS_9allocatorIcEEE5beginB7v160006Ev, symObjAddr: 0x6B78, symBinAddr: 0x1000077BC, symSize: 0x4C }
  - { offsetInCU: 0x15D8E, offset: 0x15D8E, size: 0x8, addend: 0x0, symName: __ZNSt3__112basic_stringIcNS_11char_traitsIcEENS_9allocatorIcEEE3endB7v160006Ev, symObjAddr: 0x6BC4, symBinAddr: 0x100007808, symSize: 0x54 }
  - { offsetInCU: 0x15DB4, offset: 0x15DB4, size: 0x8, addend: 0x0, symName: __ZNKSt3__111__wrap_iterIPcEdeB7v160006Ev, symObjAddr: 0x6C4C, symBinAddr: 0x100007890, symSize: 0x18 }
  - { offsetInCU: 0x15DDA, offset: 0x15DDA, size: 0x8, addend: 0x0, symName: __ZNKSt3__113unordered_mapIcPN4Trie8TrieNodeENS_4hashIcEENS_8equal_toIcEENS_9allocatorINS_4pairIKcS3_EEEEE8containsB7v160006ERSA_, symObjAddr: 0x6C64, symBinAddr: 0x1000078A8, symSize: 0x60 }
  - { offsetInCU: 0x15E14, offset: 0x15E14, size: 0x8, addend: 0x0, symName: __ZN4Trie8TrieNodeC1Ev, symObjAddr: 0x6CC4, symBinAddr: 0x100007908, symSize: 0x2C }
  - { offsetInCU: 0x15E40, offset: 0x15E40, size: 0x8, addend: 0x0, symName: __ZNSt3__113unordered_mapIcPN4Trie8TrieNodeENS_4hashIcEENS_8equal_toIcEENS_9allocatorINS_4pairIKcS3_EEEEEixERSA_, symObjAddr: 0x6CF0, symBinAddr: 0x100007934, symSize: 0x80 }
  - { offsetInCU: 0x15E77, offset: 0x15E77, size: 0x8, addend: 0x0, symName: __ZNSt3__111__wrap_iterIPcEppB7v160006Ev, symObjAddr: 0x6D70, symBinAddr: 0x1000079B4, symSize: 0x20 }
  - { offsetInCU: 0x15E9D, offset: 0x15E9D, size: 0x8, addend: 0x0, symName: __ZNSt3__112basic_stringIcNS_11char_traitsIcEENS_9allocatorIcEEE15__make_iteratorB7v160006EPc, symObjAddr: 0x6D90, symBinAddr: 0x1000079D4, symSize: 0x34 }
  - { offsetInCU: 0x15ED2, offset: 0x15ED2, size: 0x8, addend: 0x0, symName: __ZNSt3__112basic_stringIcNS_11char_traitsIcEENS_9allocatorIcEEE13__get_pointerB7v160006Ev, symObjAddr: 0x6DC4, symBinAddr: 0x100007A08, symSize: 0x54 }
  - { offsetInCU: 0x15EF8, offset: 0x15EF8, size: 0x8, addend: 0x0, symName: __ZNSt3__111__wrap_iterIPcEC1B7v160006EPKvS1_, symObjAddr: 0x6E18, symBinAddr: 0x100007A5C, symSize: 0x3C }
  - { offsetInCU: 0x15F3E, offset: 0x15F3E, size: 0x8, addend: 0x0, symName: __ZNSt3__111__wrap_iterIPcEC2B7v160006EPKvS1_, symObjAddr: 0x6E54, symBinAddr: 0x100007A98, symSize: 0x24 }
  - { offsetInCU: 0x15F84, offset: 0x15F84, size: 0x8, addend: 0x0, symName: __ZNSt3__112basic_stringIcNS_11char_traitsIcEENS_9allocatorIcEEE18__get_long_pointerB7v160006Ev, symObjAddr: 0x6E78, symBinAddr: 0x100007ABC, symSize: 0x28 }
  - { offsetInCU: 0x15FAA, offset: 0x15FAA, size: 0x8, addend: 0x0, symName: __ZNSt3__112basic_stringIcNS_11char_traitsIcEENS_9allocatorIcEEE19__get_short_pointerB7v160006Ev, symObjAddr: 0x6EA0, symBinAddr: 0x100007AE4, symSize: 0x28 }
  - { offsetInCU: 0x15FD0, offset: 0x15FD0, size: 0x8, addend: 0x0, symName: __ZNSt3__117__compressed_pairINS_12basic_stringIcNS_11char_traitsIcEENS_9allocatorIcEEE5__repES5_E5firstB7v160006Ev, symObjAddr: 0x6EC8, symBinAddr: 0x100007B0C, symSize: 0x24 }
  - { offsetInCU: 0x15FF6, offset: 0x15FF6, size: 0x8, addend: 0x0, symName: __ZNSt3__122__compressed_pair_elemINS_12basic_stringIcNS_11char_traitsIcEENS_9allocatorIcEEE5__repELi0ELb0EE5__getB7v160006Ev, symObjAddr: 0x6EEC, symBinAddr: 0x100007B30, symSize: 0x14 }
  - { offsetInCU: 0x1601C, offset: 0x1601C, size: 0x8, addend: 0x0, symName: __ZNSt3__114pointer_traitsIPcE10pointer_toB7v160006ERc, symObjAddr: 0x6F00, symBinAddr: 0x100007B44, symSize: 0x14 }
  - { offsetInCU: 0x1603F, offset: 0x1603F, size: 0x8, addend: 0x0, symName: __ZNKSt3__111__wrap_iterIPcE4baseB7v160006Ev, symObjAddr: 0x6F5C, symBinAddr: 0x100007BA0, symSize: 0x18 }
  - { offsetInCU: 0x16065, offset: 0x16065, size: 0x8, addend: 0x0, symName: __ZNKSt3__113unordered_mapIcPN4Trie8TrieNodeENS_4hashIcEENS_8equal_toIcEENS_9allocatorINS_4pairIKcS3_EEEEE4findB7v160006ERSA_, symObjAddr: 0x6FA4, symBinAddr: 0x100007BE8, symSize: 0x40 }
  - { offsetInCU: 0x1609A, offset: 0x1609A, size: 0x8, addend: 0x0, symName: __ZNKSt3__113unordered_mapIcPN4Trie8TrieNodeENS_4hashIcEENS_8equal_toIcEENS_9allocatorINS_4pairIKcS3_EEEEE3endB7v160006Ev, symObjAddr: 0x6FE4, symBinAddr: 0x100007C28, symSize: 0x38 }
  - { offsetInCU: 0x160C0, offset: 0x160C0, size: 0x8, addend: 0x0, symName: __ZNKSt3__112__hash_tableINS_17__hash_value_typeIcPN4Trie8TrieNodeEEENS_22__unordered_map_hasherIcS5_NS_4hashIcEENS_8equal_toIcEELb1EEENS_21__unordered_map_equalIcS5_SA_S8_Lb1EEENS_9allocatorIS5_EEE4findIcEENS_21__hash_const_iteratorIPNS_11__hash_nodeIS5_PvEEEERKT_, symObjAddr: 0x7080, symBinAddr: 0x100007CC4, symSize: 0x1BC }
  - { offsetInCU: 0x1614A, offset: 0x1614A, size: 0x8, addend: 0x0, symName: __ZNSt3__125__hash_map_const_iteratorINS_21__hash_const_iteratorIPNS_11__hash_nodeINS_17__hash_value_typeIcPN4Trie8TrieNodeEEEPvEEEEEC1B7v160006ESB_, symObjAddr: 0x723C, symBinAddr: 0x100007E80, symSize: 0x34 }
  - { offsetInCU: 0x16183, offset: 0x16183, size: 0x8, addend: 0x0, symName: __ZNKSt3__112__hash_tableINS_17__hash_value_typeIcPN4Trie8TrieNodeEEENS_22__unordered_map_hasherIcS5_NS_4hashIcEENS_8equal_toIcEELb1EEENS_21__unordered_map_equalIcS5_SA_S8_Lb1EEENS_9allocatorIS5_EEE13hash_functionB7v160006Ev, symObjAddr: 0x7270, symBinAddr: 0x100007EB4, symSize: 0x28 }
  - { offsetInCU: 0x161A9, offset: 0x161A9, size: 0x8, addend: 0x0, symName: __ZNKSt3__122__unordered_map_hasherIcNS_17__hash_value_typeIcPN4Trie8TrieNodeEEENS_4hashIcEENS_8equal_toIcEELb1EEclB7v160006ERKc, symObjAddr: 0x7298, symBinAddr: 0x100007EDC, symSize: 0x30 }
  - { offsetInCU: 0x161DE, offset: 0x161DE, size: 0x8, addend: 0x0, symName: __ZNKSt3__112__hash_tableINS_17__hash_value_typeIcPN4Trie8TrieNodeEEENS_22__unordered_map_hasherIcS5_NS_4hashIcEENS_8equal_toIcEELb1EEENS_21__unordered_map_equalIcS5_SA_S8_Lb1EEENS_9allocatorIS5_EEE12bucket_countB7v160006Ev, symObjAddr: 0x72C8, symBinAddr: 0x100007F0C, symSize: 0x28 }
  - { offsetInCU: 0x16204, offset: 0x16204, size: 0x8, addend: 0x0, symName: __ZNKSt3__110unique_ptrIA_PNS_16__hash_node_baseIPNS_11__hash_nodeINS_17__hash_value_typeIcPN4Trie8TrieNodeEEEPvEEEENS_25__bucket_list_deallocatorINS_9allocatorISC_EEEEEixB7v160006Em, symObjAddr: 0x7388, symBinAddr: 0x100007FCC, symSize: 0x34 }
  - { offsetInCU: 0x16239, offset: 0x16239, size: 0x8, addend: 0x0, symName: __ZNKSt3__116__hash_node_baseIPNS_11__hash_nodeINS_17__hash_value_typeIcPN4Trie8TrieNodeEEEPvEEE6__hashB7v160006Ev, symObjAddr: 0x73BC, symBinAddr: 0x100008000, symSize: 0x18 }
  - { offsetInCU: 0x1625F, offset: 0x1625F, size: 0x8, addend: 0x0, symName: __ZNKSt3__112__hash_tableINS_17__hash_value_typeIcPN4Trie8TrieNodeEEENS_22__unordered_map_hasherIcS5_NS_4hashIcEENS_8equal_toIcEELb1EEENS_21__unordered_map_equalIcS5_SA_S8_Lb1EEENS_9allocatorIS5_EEE6key_eqB7v160006Ev, symObjAddr: 0x73D4, symBinAddr: 0x100008018, symSize: 0x28 }
  - { offsetInCU: 0x16285, offset: 0x16285, size: 0x8, addend: 0x0, symName: __ZNKSt3__121__unordered_map_equalIcNS_17__hash_value_typeIcPN4Trie8TrieNodeEEENS_8equal_toIcEENS_4hashIcEELb1EEclB7v160006ERKS5_RKc, symObjAddr: 0x73FC, symBinAddr: 0x100008040, symSize: 0x48 }
  - { offsetInCU: 0x162C9, offset: 0x162C9, size: 0x8, addend: 0x0, symName: __ZNSt3__116__hash_node_baseIPNS_11__hash_nodeINS_17__hash_value_typeIcPN4Trie8TrieNodeEEEPvEEE8__upcastB7v160006Ev, symObjAddr: 0x7444, symBinAddr: 0x100008088, symSize: 0x24 }
  - { offsetInCU: 0x162EF, offset: 0x162EF, size: 0x8, addend: 0x0, symName: __ZNSt3__121__hash_const_iteratorIPNS_11__hash_nodeINS_17__hash_value_typeIcPN4Trie8TrieNodeEEEPvEEEC1B7v160006EPNS_16__hash_node_baseIS9_EEPKv, symObjAddr: 0x7468, symBinAddr: 0x1000080AC, symSize: 0x3C }
  - { offsetInCU: 0x16337, offset: 0x16337, size: 0x8, addend: 0x0, symName: __ZNKSt3__112__hash_tableINS_17__hash_value_typeIcPN4Trie8TrieNodeEEENS_22__unordered_map_hasherIcS5_NS_4hashIcEENS_8equal_toIcEELb1EEENS_21__unordered_map_equalIcS5_SA_S8_Lb1EEENS_9allocatorIS5_EEE3endEv, symObjAddr: 0x74A4, symBinAddr: 0x1000080E8, symSize: 0x30 }
  - { offsetInCU: 0x1635F, offset: 0x1635F, size: 0x8, addend: 0x0, symName: __ZNKSt3__117__compressed_pairImNS_22__unordered_map_hasherIcNS_17__hash_value_typeIcPN4Trie8TrieNodeEEENS_4hashIcEENS_8equal_toIcEELb1EEEE6secondB7v160006Ev, symObjAddr: 0x74D4, symBinAddr: 0x100008118, symSize: 0x24 }
  - { offsetInCU: 0x16385, offset: 0x16385, size: 0x8, addend: 0x0, symName: __ZNKSt3__122__compressed_pair_elemINS_22__unordered_map_hasherIcNS_17__hash_value_typeIcPN4Trie8TrieNodeEEENS_4hashIcEENS_8equal_toIcEELb1EEELi1ELb1EE5__getB7v160006Ev, symObjAddr: 0x74F8, symBinAddr: 0x10000813C, symSize: 0x14 }
  - { offsetInCU: 0x163AB, offset: 0x163AB, size: 0x8, addend: 0x0, symName: __ZNKSt3__14hashIcEclB7v160006Ec, symObjAddr: 0x750C, symBinAddr: 0x100008150, symSize: 0x18 }
  - { offsetInCU: 0x163E0, offset: 0x163E0, size: 0x8, addend: 0x0, symName: __ZNKSt3__110unique_ptrIA_PNS_16__hash_node_baseIPNS_11__hash_nodeINS_17__hash_value_typeIcPN4Trie8TrieNodeEEEPvEEEENS_25__bucket_list_deallocatorINS_9allocatorISC_EEEEE11get_deleterB7v160006Ev, symObjAddr: 0x7524, symBinAddr: 0x100008168, symSize: 0x24 }
  - { offsetInCU: 0x16406, offset: 0x16406, size: 0x8, addend: 0x0, symName: __ZNKSt3__125__bucket_list_deallocatorINS_9allocatorIPNS_16__hash_node_baseIPNS_11__hash_nodeINS_17__hash_value_typeIcPN4Trie8TrieNodeEEEPvEEEEEEE4sizeB7v160006Ev, symObjAddr: 0x7548, symBinAddr: 0x10000818C, symSize: 0x28 }
  - { offsetInCU: 0x1642C, offset: 0x1642C, size: 0x8, addend: 0x0, symName: __ZNKSt3__117__compressed_pairIPPNS_16__hash_node_baseIPNS_11__hash_nodeINS_17__hash_value_typeIcPN4Trie8TrieNodeEEEPvEEEENS_25__bucket_list_deallocatorINS_9allocatorISC_EEEEE6secondB7v160006Ev, symObjAddr: 0x7570, symBinAddr: 0x1000081B4, symSize: 0x28 }
  - { offsetInCU: 0x16452, offset: 0x16452, size: 0x8, addend: 0x0, symName: __ZNKSt3__122__compressed_pair_elemINS_25__bucket_list_deallocatorINS_9allocatorIPNS_16__hash_node_baseIPNS_11__hash_nodeINS_17__hash_value_typeIcPN4Trie8TrieNodeEEEPvEEEEEEEELi1ELb0EE5__getB7v160006Ev, symObjAddr: 0x7598, symBinAddr: 0x1000081DC, symSize: 0x14 }
  - { offsetInCU: 0x16478, offset: 0x16478, size: 0x8, addend: 0x0, symName: __ZNKSt3__117__compressed_pairImNS_9allocatorIPNS_16__hash_node_baseIPNS_11__hash_nodeINS_17__hash_value_typeIcPN4Trie8TrieNodeEEEPvEEEEEEE5firstB7v160006Ev, symObjAddr: 0x75AC, symBinAddr: 0x1000081F0, symSize: 0x24 }
  - { offsetInCU: 0x1649E, offset: 0x1649E, size: 0x8, addend: 0x0, symName: __ZNKSt3__122__compressed_pair_elemImLi0ELb0EE5__getB7v160006Ev, symObjAddr: 0x75D0, symBinAddr: 0x100008214, symSize: 0x14 }
  - { offsetInCU: 0x164C4, offset: 0x164C4, size: 0x8, addend: 0x0, symName: __ZNKSt3__117__compressed_pairIPPNS_16__hash_node_baseIPNS_11__hash_nodeINS_17__hash_value_typeIcPN4Trie8TrieNodeEEEPvEEEENS_25__bucket_list_deallocatorINS_9allocatorISC_EEEEE5firstB7v160006Ev, symObjAddr: 0x75E4, symBinAddr: 0x100008228, symSize: 0x24 }
  - { offsetInCU: 0x164EA, offset: 0x164EA, size: 0x8, addend: 0x0, symName: __ZNKSt3__122__compressed_pair_elemIPPNS_16__hash_node_baseIPNS_11__hash_nodeINS_17__hash_value_typeIcPN4Trie8TrieNodeEEEPvEEEELi0ELb0EE5__getB7v160006Ev, symObjAddr: 0x7608, symBinAddr: 0x10000824C, symSize: 0x14 }
  - { offsetInCU: 0x16510, offset: 0x16510, size: 0x8, addend: 0x0, symName: __ZNKSt3__117__compressed_pairIfNS_21__unordered_map_equalIcNS_17__hash_value_typeIcPN4Trie8TrieNodeEEENS_8equal_toIcEENS_4hashIcEELb1EEEE6secondB7v160006Ev, symObjAddr: 0x761C, symBinAddr: 0x100008260, symSize: 0x24 }
  - { offsetInCU: 0x16536, offset: 0x16536, size: 0x8, addend: 0x0, symName: __ZNKSt3__122__compressed_pair_elemINS_21__unordered_map_equalIcNS_17__hash_value_typeIcPN4Trie8TrieNodeEEENS_8equal_toIcEENS_4hashIcEELb1EEELi1ELb1EE5__getB7v160006Ev, symObjAddr: 0x7640, symBinAddr: 0x100008284, symSize: 0x14 }
  - { offsetInCU: 0x1655C, offset: 0x1655C, size: 0x8, addend: 0x0, symName: __ZNKSt3__18equal_toIcEclB7v160006ERKcS3_, symObjAddr: 0x7654, symBinAddr: 0x100008298, symSize: 0x34 }
  - { offsetInCU: 0x165A0, offset: 0x165A0, size: 0x8, addend: 0x0, symName: __ZNKSt3__117__hash_value_typeIcPN4Trie8TrieNodeEE11__get_valueB7v160006Ev, symObjAddr: 0x7688, symBinAddr: 0x1000082CC, symSize: 0x24 }
  - { offsetInCU: 0x165C6, offset: 0x165C6, size: 0x8, addend: 0x0, symName: __ZNSt3__114pointer_traitsIPNS_16__hash_node_baseIPNS_11__hash_nodeINS_17__hash_value_typeIcPN4Trie8TrieNodeEEEPvEEEEE10pointer_toB7v160006ERSB_, symObjAddr: 0x76E4, symBinAddr: 0x100008328, symSize: 0x14 }
  - { offsetInCU: 0x165E9, offset: 0x165E9, size: 0x8, addend: 0x0, symName: __ZNSt3__121__hash_const_iteratorIPNS_11__hash_nodeINS_17__hash_value_typeIcPN4Trie8TrieNodeEEEPvEEEC2B7v160006EPNS_16__hash_node_baseIS9_EEPKv, symObjAddr: 0x76F8, symBinAddr: 0x10000833C, symSize: 0x24 }
  - { offsetInCU: 0x16631, offset: 0x16631, size: 0x8, addend: 0x0, symName: __ZNSt3__125__hash_map_const_iteratorINS_21__hash_const_iteratorIPNS_11__hash_nodeINS_17__hash_value_typeIcPN4Trie8TrieNodeEEEPvEEEEEC2B7v160006ESB_, symObjAddr: 0x771C, symBinAddr: 0x100008360, symSize: 0x20 }
  - { offsetInCU: 0x1666A, offset: 0x1666A, size: 0x8, addend: 0x0, symName: __ZN4Trie8TrieNodeC2Ev, symObjAddr: 0x773C, symBinAddr: 0x100008380, symSize: 0x30 }
  - { offsetInCU: 0x16696, offset: 0x16696, size: 0x8, addend: 0x0, symName: __ZNSt3__113unordered_mapIcPN4Trie8TrieNodeENS_4hashIcEENS_8equal_toIcEENS_9allocatorINS_4pairIKcS3_EEEEEC1B7v160006Ev, symObjAddr: 0x776C, symBinAddr: 0x1000083B0, symSize: 0x2C }
  - { offsetInCU: 0x166C0, offset: 0x166C0, size: 0x8, addend: 0x0, symName: __ZNSt3__113unordered_mapIcPN4Trie8TrieNodeENS_4hashIcEENS_8equal_toIcEENS_9allocatorINS_4pairIKcS3_EEEEEC2B7v160006Ev, symObjAddr: 0x7798, symBinAddr: 0x1000083DC, symSize: 0x3C }
  - { offsetInCU: 0x166EA, offset: 0x166EA, size: 0x8, addend: 0x0, symName: __ZNSt3__112__hash_tableINS_17__hash_value_typeIcPN4Trie8TrieNodeEEENS_22__unordered_map_hasherIcS5_NS_4hashIcEENS_8equal_toIcEELb1EEENS_21__unordered_map_equalIcS5_SA_S8_Lb1EEENS_9allocatorIS5_EEEC1Ev, symObjAddr: 0x77D4, symBinAddr: 0x100008418, symSize: 0x2C }
  - { offsetInCU: 0x16716, offset: 0x16716, size: 0x8, addend: 0x0, symName: __ZNSt3__112__hash_tableINS_17__hash_value_typeIcPN4Trie8TrieNodeEEENS_22__unordered_map_hasherIcS5_NS_4hashIcEENS_8equal_toIcEELb1EEENS_21__unordered_map_equalIcS5_SA_S8_Lb1EEENS_9allocatorIS5_EEEC2Ev, symObjAddr: 0x7810, symBinAddr: 0x100008454, symSize: 0x7C }
  - { offsetInCU: 0x16742, offset: 0x16742, size: 0x8, addend: 0x0, symName: __ZNSt3__110unique_ptrIA_PNS_16__hash_node_baseIPNS_11__hash_nodeINS_17__hash_value_typeIcPN4Trie8TrieNodeEEEPvEEEENS_25__bucket_list_deallocatorINS_9allocatorISC_EEEEEC1B7v160006ILb1EvEEv, symObjAddr: 0x788C, symBinAddr: 0x1000084D0, symSize: 0x2C }
  - { offsetInCU: 0x16777, offset: 0x16777, size: 0x8, addend: 0x0, symName: __ZNSt3__117__compressed_pairINS_16__hash_node_baseIPNS_11__hash_nodeINS_17__hash_value_typeIcPN4Trie8TrieNodeEEEPvEEEENS_9allocatorIS9_EEEC1B7v160006ILb1EvEEv, symObjAddr: 0x78B8, symBinAddr: 0x1000084FC, symSize: 0x2C }
  - { offsetInCU: 0x167AC, offset: 0x167AC, size: 0x8, addend: 0x0, symName: __ZNSt3__117__compressed_pairImNS_22__unordered_map_hasherIcNS_17__hash_value_typeIcPN4Trie8TrieNodeEEENS_4hashIcEENS_8equal_toIcEELb1EEEEC1B7v160006IiNS_18__default_init_tagEEEOT_OT0_, symObjAddr: 0x78E4, symBinAddr: 0x100008528, symSize: 0x3C }
  - { offsetInCU: 0x1680A, offset: 0x1680A, size: 0x8, addend: 0x0, symName: __ZNSt3__117__compressed_pairIfNS_21__unordered_map_equalIcNS_17__hash_value_typeIcPN4Trie8TrieNodeEEENS_8equal_toIcEENS_4hashIcEELb1EEEEC1B7v160006IfNS_18__default_init_tagEEEOT_OT0_, symObjAddr: 0x7920, symBinAddr: 0x100008564, symSize: 0x3C }
  - { offsetInCU: 0x16862, offset: 0x16862, size: 0x8, addend: 0x0, symName: __ZNSt3__110unique_ptrIA_PNS_16__hash_node_baseIPNS_11__hash_nodeINS_17__hash_value_typeIcPN4Trie8TrieNodeEEEPvEEEENS_25__bucket_list_deallocatorINS_9allocatorISC_EEEEEC2B7v160006ILb1EvEEv, symObjAddr: 0x795C, symBinAddr: 0x1000085A0, symSize: 0x3C }
  - { offsetInCU: 0x1689D, offset: 0x1689D, size: 0x8, addend: 0x0, symName: __ZNSt3__117__compressed_pairIPPNS_16__hash_node_baseIPNS_11__hash_nodeINS_17__hash_value_typeIcPN4Trie8TrieNodeEEEPvEEEENS_25__bucket_list_deallocatorINS_9allocatorISC_EEEEEC1B7v160006INS_16__value_init_tagESK_EEOT_OT0_, symObjAddr: 0x7998, symBinAddr: 0x1000085DC, symSize: 0x3C }
  - { offsetInCU: 0x168F5, offset: 0x168F5, size: 0x8, addend: 0x0, symName: __ZNSt3__117__compressed_pairIPPNS_16__hash_node_baseIPNS_11__hash_nodeINS_17__hash_value_typeIcPN4Trie8TrieNodeEEEPvEEEENS_25__bucket_list_deallocatorINS_9allocatorISC_EEEEEC2B7v160006INS_16__value_init_tagESK_EEOT_OT0_, symObjAddr: 0x79D4, symBinAddr: 0x100008618, symSize: 0x40 }
  - { offsetInCU: 0x1694D, offset: 0x1694D, size: 0x8, addend: 0x0, symName: __ZNSt3__122__compressed_pair_elemIPPNS_16__hash_node_baseIPNS_11__hash_nodeINS_17__hash_value_typeIcPN4Trie8TrieNodeEEEPvEEEELi0ELb0EEC2B7v160006ENS_16__value_init_tagE, symObjAddr: 0x7A14, symBinAddr: 0x100008658, symSize: 0x18 }
  - { offsetInCU: 0x16981, offset: 0x16981, size: 0x8, addend: 0x0, symName: __ZNSt3__122__compressed_pair_elemINS_25__bucket_list_deallocatorINS_9allocatorIPNS_16__hash_node_baseIPNS_11__hash_nodeINS_17__hash_value_typeIcPN4Trie8TrieNodeEEEPvEEEEEEEELi1ELb0EEC2B7v160006ENS_16__value_init_tagE, symObjAddr: 0x7A2C, symBinAddr: 0x100008670, symSize: 0x2C }
  - { offsetInCU: 0x169B5, offset: 0x169B5, size: 0x8, addend: 0x0, symName: __ZNSt3__125__bucket_list_deallocatorINS_9allocatorIPNS_16__hash_node_baseIPNS_11__hash_nodeINS_17__hash_value_typeIcPN4Trie8TrieNodeEEEPvEEEEEEEC1B7v160006Ev, symObjAddr: 0x7A58, symBinAddr: 0x10000869C, symSize: 0x2C }
  - { offsetInCU: 0x169DF, offset: 0x169DF, size: 0x8, addend: 0x0, symName: __ZNSt3__125__bucket_list_deallocatorINS_9allocatorIPNS_16__hash_node_baseIPNS_11__hash_nodeINS_17__hash_value_typeIcPN4Trie8TrieNodeEEEPvEEEEEEEC2B7v160006Ev, symObjAddr: 0x7A84, symBinAddr: 0x1000086C8, symSize: 0x40 }
  - { offsetInCU: 0x16A09, offset: 0x16A09, size: 0x8, addend: 0x0, symName: __ZNSt3__117__compressed_pairImNS_9allocatorIPNS_16__hash_node_baseIPNS_11__hash_nodeINS_17__hash_value_typeIcPN4Trie8TrieNodeEEEPvEEEEEEEC1B7v160006IiNS_18__default_init_tagEEEOT_OT0_, symObjAddr: 0x7AC4, symBinAddr: 0x100008708, symSize: 0x3C }
  - { offsetInCU: 0x16A61, offset: 0x16A61, size: 0x8, addend: 0x0, symName: __ZNSt3__117__compressed_pairImNS_9allocatorIPNS_16__hash_node_baseIPNS_11__hash_nodeINS_17__hash_value_typeIcPN4Trie8TrieNodeEEEPvEEEEEEEC2B7v160006IiNS_18__default_init_tagEEEOT_OT0_, symObjAddr: 0x7B00, symBinAddr: 0x100008744, symSize: 0x40 }
  - { offsetInCU: 0x16AB9, offset: 0x16AB9, size: 0x8, addend: 0x0, symName: __ZNSt3__122__compressed_pair_elemINS_9allocatorIPNS_16__hash_node_baseIPNS_11__hash_nodeINS_17__hash_value_typeIcPN4Trie8TrieNodeEEEPvEEEEEELi1ELb1EEC2B7v160006ENS_18__default_init_tagE, symObjAddr: 0x7B40, symBinAddr: 0x100008784, symSize: 0x2C }
  - { offsetInCU: 0x16AED, offset: 0x16AED, size: 0x8, addend: 0x0, symName: __ZNSt3__19allocatorIPNS_16__hash_node_baseIPNS_11__hash_nodeINS_17__hash_value_typeIcPN4Trie8TrieNodeEEEPvEEEEEC2B7v160006Ev, symObjAddr: 0x7B6C, symBinAddr: 0x1000087B0, symSize: 0x2C }
  - { offsetInCU: 0x16B17, offset: 0x16B17, size: 0x8, addend: 0x0, symName: __ZNSt3__116__non_trivial_ifILb1ENS_9allocatorIPNS_16__hash_node_baseIPNS_11__hash_nodeINS_17__hash_value_typeIcPN4Trie8TrieNodeEEEPvEEEEEEEC2B7v160006Ev, symObjAddr: 0x7B98, symBinAddr: 0x1000087DC, symSize: 0x14 }
  - { offsetInCU: 0x16B41, offset: 0x16B41, size: 0x8, addend: 0x0, symName: __ZNSt3__117__compressed_pairINS_16__hash_node_baseIPNS_11__hash_nodeINS_17__hash_value_typeIcPN4Trie8TrieNodeEEEPvEEEENS_9allocatorIS9_EEEC2B7v160006ILb1EvEEv, symObjAddr: 0x7BAC, symBinAddr: 0x1000087F0, symSize: 0x34 }
  - { offsetInCU: 0x16B76, offset: 0x16B76, size: 0x8, addend: 0x0, symName: __ZNSt3__122__compressed_pair_elemINS_16__hash_node_baseIPNS_11__hash_nodeINS_17__hash_value_typeIcPN4Trie8TrieNodeEEEPvEEEELi0ELb0EEC2B7v160006ENS_16__value_init_tagE, symObjAddr: 0x7BE0, symBinAddr: 0x100008824, symSize: 0x2C }
  - { offsetInCU: 0x16BAA, offset: 0x16BAA, size: 0x8, addend: 0x0, symName: __ZNSt3__122__compressed_pair_elemINS_9allocatorINS_11__hash_nodeINS_17__hash_value_typeIcPN4Trie8TrieNodeEEEPvEEEELi1ELb1EEC2B7v160006ENS_16__value_init_tagE, symObjAddr: 0x7C0C, symBinAddr: 0x100008850, symSize: 0x2C }
  - { offsetInCU: 0x16BDE, offset: 0x16BDE, size: 0x8, addend: 0x0, symName: __ZNSt3__116__hash_node_baseIPNS_11__hash_nodeINS_17__hash_value_typeIcPN4Trie8TrieNodeEEEPvEEEC1B7v160006Ev, symObjAddr: 0x7C38, symBinAddr: 0x10000887C, symSize: 0x2C }
  - { offsetInCU: 0x16C08, offset: 0x16C08, size: 0x8, addend: 0x0, symName: __ZNSt3__116__hash_node_baseIPNS_11__hash_nodeINS_17__hash_value_typeIcPN4Trie8TrieNodeEEEPvEEEC2B7v160006Ev, symObjAddr: 0x7C64, symBinAddr: 0x1000088A8, symSize: 0x18 }
  - { offsetInCU: 0x16C32, offset: 0x16C32, size: 0x8, addend: 0x0, symName: __ZNSt3__19allocatorINS_11__hash_nodeINS_17__hash_value_typeIcPN4Trie8TrieNodeEEEPvEEEC2B7v160006Ev, symObjAddr: 0x7C7C, symBinAddr: 0x1000088C0, symSize: 0x2C }
  - { offsetInCU: 0x16C5C, offset: 0x16C5C, size: 0x8, addend: 0x0, symName: __ZNSt3__116__non_trivial_ifILb1ENS_9allocatorINS_11__hash_nodeINS_17__hash_value_typeIcPN4Trie8TrieNodeEEEPvEEEEEC2B7v160006Ev, symObjAddr: 0x7CA8, symBinAddr: 0x1000088EC, symSize: 0x14 }
  - { offsetInCU: 0x16C86, offset: 0x16C86, size: 0x8, addend: 0x0, symName: __ZNSt3__117__compressed_pairImNS_22__unordered_map_hasherIcNS_17__hash_value_typeIcPN4Trie8TrieNodeEEENS_4hashIcEENS_8equal_toIcEELb1EEEEC2B7v160006IiNS_18__default_init_tagEEEOT_OT0_, symObjAddr: 0x7CBC, symBinAddr: 0x100008900, symSize: 0x40 }
  - { offsetInCU: 0x16CDE, offset: 0x16CDE, size: 0x8, addend: 0x0, symName: __ZNSt3__122__compressed_pair_elemINS_22__unordered_map_hasherIcNS_17__hash_value_typeIcPN4Trie8TrieNodeEEENS_4hashIcEENS_8equal_toIcEELb1EEELi1ELb1EEC2B7v160006ENS_18__default_init_tagE, symObjAddr: 0x7CFC, symBinAddr: 0x100008940, symSize: 0x2C }
  - { offsetInCU: 0x16D12, offset: 0x16D12, size: 0x8, addend: 0x0, symName: __ZNSt3__122__unordered_map_hasherIcNS_17__hash_value_typeIcPN4Trie8TrieNodeEEENS_4hashIcEENS_8equal_toIcEELb1EEC2B7v160006Ev, symObjAddr: 0x7D28, symBinAddr: 0x10000896C, symSize: 0x14 }
  - { offsetInCU: 0x16D3C, offset: 0x16D3C, size: 0x8, addend: 0x0, symName: __ZNSt3__117__compressed_pairIfNS_21__unordered_map_equalIcNS_17__hash_value_typeIcPN4Trie8TrieNodeEEENS_8equal_toIcEENS_4hashIcEELb1EEEEC2B7v160006IfNS_18__default_init_tagEEEOT_OT0_, symObjAddr: 0x7D3C, symBinAddr: 0x100008980, symSize: 0x40 }
  - { offsetInCU: 0x16D94, offset: 0x16D94, size: 0x8, addend: 0x0, symName: __ZNSt3__122__compressed_pair_elemIfLi0ELb0EEC2B7v160006IfvEEOT_, symObjAddr: 0x7D7C, symBinAddr: 0x1000089C0, symSize: 0x24 }
  - { offsetInCU: 0x16DD6, offset: 0x16DD6, size: 0x8, addend: 0x0, symName: __ZNSt3__122__compressed_pair_elemINS_21__unordered_map_equalIcNS_17__hash_value_typeIcPN4Trie8TrieNodeEEENS_8equal_toIcEENS_4hashIcEELb1EEELi1ELb1EEC2B7v160006ENS_18__default_init_tagE, symObjAddr: 0x7DA0, symBinAddr: 0x1000089E4, symSize: 0x2C }
  - { offsetInCU: 0x16E0A, offset: 0x16E0A, size: 0x8, addend: 0x0, symName: __ZNSt3__121__unordered_map_equalIcNS_17__hash_value_typeIcPN4Trie8TrieNodeEEENS_8equal_toIcEENS_4hashIcEELb1EEC2B7v160006Ev, symObjAddr: 0x7DCC, symBinAddr: 0x100008A10, symSize: 0x14 }
  - { offsetInCU: 0x16E4B, offset: 0x16E4B, size: 0x8, addend: 0x0, symName: __ZNSt3__112__hash_tableINS_17__hash_value_typeIcPN4Trie8TrieNodeEEENS_22__unordered_map_hasherIcS5_NS_4hashIcEENS_8equal_toIcEELb1EEENS_21__unordered_map_equalIcS5_SA_S8_Lb1EEENS_9allocatorIS5_EEE25__emplace_unique_key_argsIcJRKNS_21piecewise_construct_tENS_5tupleIJRKcEEENSL_IJEEEEEENS_4pairINS_15__hash_iteratorIPNS_11__hash_nodeIS5_PvEEEEbEERKT_DpOT0_, symObjAddr: 0x7DE0, symBinAddr: 0x100008A24, symSize: 0x4A0 }
  - { offsetInCU: 0x16F55, offset: 0x16F55, size: 0x8, addend: 0x0, symName: __ZNKSt3__115__hash_iteratorIPNS_11__hash_nodeINS_17__hash_value_typeIcPN4Trie8TrieNodeEEEPvEEEptB7v160006Ev, symObjAddr: 0x82B0, symBinAddr: 0x100008EF4, symSize: 0x30 }
  - { offsetInCU: 0x16F7B, offset: 0x16F7B, size: 0x8, addend: 0x0, symName: __ZNSt3__117__hash_value_typeIcPN4Trie8TrieNodeEE11__get_valueB7v160006Ev, symObjAddr: 0x82E0, symBinAddr: 0x100008F24, symSize: 0x24 }
  - { offsetInCU: 0x16FA1, offset: 0x16FA1, size: 0x8, addend: 0x0, symName: __ZNSt3__112__hash_tableINS_17__hash_value_typeIcPN4Trie8TrieNodeEEENS_22__unordered_map_hasherIcS5_NS_4hashIcEENS_8equal_toIcEELb1EEENS_21__unordered_map_equalIcS5_SA_S8_Lb1EEENS_9allocatorIS5_EEE13hash_functionB7v160006Ev, symObjAddr: 0x8304, symBinAddr: 0x100008F48, symSize: 0x28 }
  - { offsetInCU: 0x16FC7, offset: 0x16FC7, size: 0x8, addend: 0x0, symName: __ZNSt3__112__hash_tableINS_17__hash_value_typeIcPN4Trie8TrieNodeEEENS_22__unordered_map_hasherIcS5_NS_4hashIcEENS_8equal_toIcEELb1EEENS_21__unordered_map_equalIcS5_SA_S8_Lb1EEENS_9allocatorIS5_EEE6key_eqB7v160006Ev, symObjAddr: 0x832C, symBinAddr: 0x100008F70, symSize: 0x28 }
  - { offsetInCU: 0x16FED, offset: 0x16FED, size: 0x8, addend: 0x0, symName: __ZNSt3__112__hash_tableINS_17__hash_value_typeIcPN4Trie8TrieNodeEEENS_22__unordered_map_hasherIcS5_NS_4hashIcEENS_8equal_toIcEELb1EEENS_21__unordered_map_equalIcS5_SA_S8_Lb1EEENS_9allocatorIS5_EEE21__construct_node_hashIRKNS_21piecewise_construct_tEJNS_5tupleIJRKcEEENSL_IJEEEEEENS_10unique_ptrINS_11__hash_nodeIS5_PvEENS_22__hash_node_destructorINSE_IST_EEEEEEmOT_DpOT0_, symObjAddr: 0x8354, symBinAddr: 0x100008F98, symSize: 0x150 }
  - { offsetInCU: 0x17089, offset: 0x17089, size: 0x8, addend: 0x0, symName: __ZNSt3__112__hash_tableINS_17__hash_value_typeIcPN4Trie8TrieNodeEEENS_22__unordered_map_hasherIcS5_NS_4hashIcEENS_8equal_toIcEELb1EEENS_21__unordered_map_equalIcS5_SA_S8_Lb1EEENS_9allocatorIS5_EEE4sizeB7v160006Ev, symObjAddr: 0x84A4, symBinAddr: 0x1000090E8, symSize: 0x28 }
  - { offsetInCU: 0x170AF, offset: 0x170AF, size: 0x8, addend: 0x0, symName: __ZNSt3__112__hash_tableINS_17__hash_value_typeIcPN4Trie8TrieNodeEEENS_22__unordered_map_hasherIcS5_NS_4hashIcEENS_8equal_toIcEELb1EEENS_21__unordered_map_equalIcS5_SA_S8_Lb1EEENS_9allocatorIS5_EEE15max_load_factorB7v160006Ev, symObjAddr: 0x84CC, symBinAddr: 0x100009110, symSize: 0x28 }
  - { offsetInCU: 0x170D5, offset: 0x170D5, size: 0x8, addend: 0x0, symName: __ZNSt3__112__hash_tableINS_17__hash_value_typeIcPN4Trie8TrieNodeEEENS_22__unordered_map_hasherIcS5_NS_4hashIcEENS_8equal_toIcEELb1EEENS_21__unordered_map_equalIcS5_SA_S8_Lb1EEENS_9allocatorIS5_EEE15__rehash_uniqueB7v160006Em, symObjAddr: 0x84F4, symBinAddr: 0x100009138, symSize: 0x2C }
  - { offsetInCU: 0x17109, offset: 0x17109, size: 0x8, addend: 0x0, symName: __Z4ceilB7v160006f, symObjAddr: 0x859C, symBinAddr: 0x1000091E0, symSize: 0x18 }
  - { offsetInCU: 0x17138, offset: 0x17138, size: 0x8, addend: 0x0, symName: __ZNSt3__117__compressed_pairINS_16__hash_node_baseIPNS_11__hash_nodeINS_17__hash_value_typeIcPN4Trie8TrieNodeEEEPvEEEENS_9allocatorIS9_EEE5firstB7v160006Ev, symObjAddr: 0x85B4, symBinAddr: 0x1000091F8, symSize: 0x24 }
  - { offsetInCU: 0x1715E, offset: 0x1715E, size: 0x8, addend: 0x0, symName: __ZNSt3__116__hash_node_baseIPNS_11__hash_nodeINS_17__hash_value_typeIcPN4Trie8TrieNodeEEEPvEEE5__ptrB7v160006Ev, symObjAddr: 0x85D8, symBinAddr: 0x10000921C, symSize: 0x24 }
  - { offsetInCU: 0x17184, offset: 0x17184, size: 0x8, addend: 0x0, symName: __ZNKSt3__110unique_ptrINS_11__hash_nodeINS_17__hash_value_typeIcPN4Trie8TrieNodeEEEPvEENS_22__hash_node_destructorINS_9allocatorIS8_EEEEEptB7v160006Ev, symObjAddr: 0x85FC, symBinAddr: 0x100009240, symSize: 0x28 }
  - { offsetInCU: 0x171AA, offset: 0x171AA, size: 0x8, addend: 0x0, symName: __ZNKSt3__110unique_ptrINS_11__hash_nodeINS_17__hash_value_typeIcPN4Trie8TrieNodeEEEPvEENS_22__hash_node_destructorINS_9allocatorIS8_EEEEE3getB7v160006Ev, symObjAddr: 0x8624, symBinAddr: 0x100009268, symSize: 0x28 }
  - { offsetInCU: 0x171D0, offset: 0x171D0, size: 0x8, addend: 0x0, symName: __ZNSt3__110unique_ptrINS_11__hash_nodeINS_17__hash_value_typeIcPN4Trie8TrieNodeEEEPvEENS_22__hash_node_destructorINS_9allocatorIS8_EEEEE7releaseB7v160006Ev, symObjAddr: 0x864C, symBinAddr: 0x100009290, symSize: 0x44 }
  - { offsetInCU: 0x17205, offset: 0x17205, size: 0x8, addend: 0x0, symName: __ZNSt3__110unique_ptrINS_11__hash_nodeINS_17__hash_value_typeIcPN4Trie8TrieNodeEEEPvEENS_22__hash_node_destructorINS_9allocatorIS8_EEEEED1B7v160006Ev, symObjAddr: 0x8690, symBinAddr: 0x1000092D4, symSize: 0x2C }
  - { offsetInCU: 0x1722F, offset: 0x1722F, size: 0x8, addend: 0x0, symName: __ZNSt3__115__hash_iteratorIPNS_11__hash_nodeINS_17__hash_value_typeIcPN4Trie8TrieNodeEEEPvEEEC1B7v160006EPNS_16__hash_node_baseIS9_EEPKv, symObjAddr: 0x86BC, symBinAddr: 0x100009300, symSize: 0x3C }
  - { offsetInCU: 0x17283, offset: 0x17283, size: 0x8, addend: 0x0, symName: __ZNSt3__14pairINS_15__hash_iteratorIPNS_11__hash_nodeINS_17__hash_value_typeIcPN4Trie8TrieNodeEEEPvEEEEbEC1B7v160006ISB_RbLS8_0EEEOT_OT0_, symObjAddr: 0x86F8, symBinAddr: 0x10000933C, symSize: 0x3C }
  - { offsetInCU: 0x172E1, offset: 0x172E1, size: 0x8, addend: 0x0, symName: __ZNSt3__117__compressed_pairImNS_22__unordered_map_hasherIcNS_17__hash_value_typeIcPN4Trie8TrieNodeEEENS_4hashIcEENS_8equal_toIcEELb1EEEE6secondB7v160006Ev, symObjAddr: 0x8734, symBinAddr: 0x100009378, symSize: 0x24 }
  - { offsetInCU: 0x17307, offset: 0x17307, size: 0x8, addend: 0x0, symName: __ZNSt3__122__compressed_pair_elemINS_22__unordered_map_hasherIcNS_17__hash_value_typeIcPN4Trie8TrieNodeEEENS_4hashIcEENS_8equal_toIcEELb1EEELi1ELb1EE5__getB7v160006Ev, symObjAddr: 0x8758, symBinAddr: 0x10000939C, symSize: 0x14 }
  - { offsetInCU: 0x1732D, offset: 0x1732D, size: 0x8, addend: 0x0, symName: __ZNSt3__117__compressed_pairIfNS_21__unordered_map_equalIcNS_17__hash_value_typeIcPN4Trie8TrieNodeEEENS_8equal_toIcEENS_4hashIcEELb1EEEE6secondB7v160006Ev, symObjAddr: 0x876C, symBinAddr: 0x1000093B0, symSize: 0x24 }
  - { offsetInCU: 0x17353, offset: 0x17353, size: 0x8, addend: 0x0, symName: __ZNSt3__122__compressed_pair_elemINS_21__unordered_map_equalIcNS_17__hash_value_typeIcPN4Trie8TrieNodeEEENS_8equal_toIcEENS_4hashIcEELb1EEELi1ELb1EE5__getB7v160006Ev, symObjAddr: 0x8790, symBinAddr: 0x1000093D4, symSize: 0x14 }
  - { offsetInCU: 0x17379, offset: 0x17379, size: 0x8, addend: 0x0, symName: __ZNSt3__112__hash_tableINS_17__hash_value_typeIcPN4Trie8TrieNodeEEENS_22__unordered_map_hasherIcS5_NS_4hashIcEENS_8equal_toIcEELb1EEENS_21__unordered_map_equalIcS5_SA_S8_Lb1EEENS_9allocatorIS5_EEE12__node_allocB7v160006Ev, symObjAddr: 0x87A4, symBinAddr: 0x1000093E8, symSize: 0x28 }
  - { offsetInCU: 0x1739F, offset: 0x1739F, size: 0x8, addend: 0x0, symName: __ZNSt3__116allocator_traitsINS_9allocatorINS_11__hash_nodeINS_17__hash_value_typeIcPN4Trie8TrieNodeEEEPvEEEEE8allocateB7v160006ERSA_m, symObjAddr: 0x87CC, symBinAddr: 0x100009410, symSize: 0x2C }
  - { offsetInCU: 0x173D2, offset: 0x173D2, size: 0x8, addend: 0x0, symName: __ZNSt3__122__hash_node_destructorINS_9allocatorINS_11__hash_nodeINS_17__hash_value_typeIcPN4Trie8TrieNodeEEEPvEEEEEC1B7v160006ERSA_b, symObjAddr: 0x87F8, symBinAddr: 0x10000943C, symSize: 0x48 }
  - { offsetInCU: 0x17420, offset: 0x17420, size: 0x8, addend: 0x0, symName: __ZNSt3__110unique_ptrINS_11__hash_nodeINS_17__hash_value_typeIcPN4Trie8TrieNodeEEEPvEENS_22__hash_node_destructorINS_9allocatorIS8_EEEEEC1B7v160006ILb1EvEEPS8_NS_16__dependent_typeINS_27__unique_ptr_deleter_sfinaeISC_EEXT_EE20__good_rval_ref_typeE, symObjAddr: 0x8840, symBinAddr: 0x100009484, symSize: 0x3C }
  - { offsetInCU: 0x17471, offset: 0x17471, size: 0x8, addend: 0x0, symName: __ZNSt3__116allocator_traitsINS_9allocatorINS_11__hash_nodeINS_17__hash_value_typeIcPN4Trie8TrieNodeEEEPvEEEEE9constructB7v160006INS_4pairIKcS6_EEJRKNS_21piecewise_construct_tENS_5tupleIJRSE_EEENSJ_IJEEEEvvEEvRSA_PT_DpOT0_, symObjAddr: 0x887C, symBinAddr: 0x1000094C0, symSize: 0x40 }
  - { offsetInCU: 0x174EE, offset: 0x174EE, size: 0x8, addend: 0x0, symName: __ZNSt3__122__hash_key_value_typesINS_17__hash_value_typeIcPN4Trie8TrieNodeEEEE9__get_ptrB7v160006ERS5_, symObjAddr: 0x88BC, symBinAddr: 0x100009500, symSize: 0x24 }
  - { offsetInCU: 0x17511, offset: 0x17511, size: 0x8, addend: 0x0, symName: __ZNSt3__110unique_ptrINS_11__hash_nodeINS_17__hash_value_typeIcPN4Trie8TrieNodeEEEPvEENS_22__hash_node_destructorINS_9allocatorIS8_EEEEE11get_deleterB7v160006Ev, symObjAddr: 0x88E0, symBinAddr: 0x100009524, symSize: 0x24 }
  - { offsetInCU: 0x17537, offset: 0x17537, size: 0x8, addend: 0x0, symName: __ZNSt3__117__compressed_pairINS_16__hash_node_baseIPNS_11__hash_nodeINS_17__hash_value_typeIcPN4Trie8TrieNodeEEEPvEEEENS_9allocatorIS9_EEE6secondB7v160006Ev, symObjAddr: 0x8904, symBinAddr: 0x100009548, symSize: 0x24 }
  - { offsetInCU: 0x1755D, offset: 0x1755D, size: 0x8, addend: 0x0, symName: __ZNSt3__122__compressed_pair_elemINS_9allocatorINS_11__hash_nodeINS_17__hash_value_typeIcPN4Trie8TrieNodeEEEPvEEEELi1ELb1EE5__getB7v160006Ev, symObjAddr: 0x8928, symBinAddr: 0x10000956C, symSize: 0x14 }
  - { offsetInCU: 0x17583, offset: 0x17583, size: 0x8, addend: 0x0, symName: __ZNSt3__19allocatorINS_11__hash_nodeINS_17__hash_value_typeIcPN4Trie8TrieNodeEEEPvEEE8allocateB7v160006Em, symObjAddr: 0x893C, symBinAddr: 0x100009580, symSize: 0x58 }
  - { offsetInCU: 0x175C2, offset: 0x175C2, size: 0x8, addend: 0x0, symName: __ZNSt3__116allocator_traitsINS_9allocatorINS_11__hash_nodeINS_17__hash_value_typeIcPN4Trie8TrieNodeEEEPvEEEEE8max_sizeB7v160006ISA_vvEEmRKSA_, symObjAddr: 0x8994, symBinAddr: 0x1000095D8, symSize: 0x28 }
  - { offsetInCU: 0x175EE, offset: 0x175EE, size: 0x8, addend: 0x0, symName: __ZNSt3__122__hash_node_destructorINS_9allocatorINS_11__hash_nodeINS_17__hash_value_typeIcPN4Trie8TrieNodeEEEPvEEEEEC2B7v160006ERSA_b, symObjAddr: 0x89BC, symBinAddr: 0x100009600, symSize: 0x38 }
  - { offsetInCU: 0x17636, offset: 0x17636, size: 0x8, addend: 0x0, symName: __ZNSt3__110unique_ptrINS_11__hash_nodeINS_17__hash_value_typeIcPN4Trie8TrieNodeEEEPvEENS_22__hash_node_destructorINS_9allocatorIS8_EEEEEC2B7v160006ILb1EvEEPS8_NS_16__dependent_typeINS_27__unique_ptr_deleter_sfinaeISC_EEXT_EE20__good_rval_ref_typeE, symObjAddr: 0x89F4, symBinAddr: 0x100009638, symSize: 0x48 }
  - { offsetInCU: 0x17687, offset: 0x17687, size: 0x8, addend: 0x0, symName: __ZNSt3__117__compressed_pairIPNS_11__hash_nodeINS_17__hash_value_typeIcPN4Trie8TrieNodeEEEPvEENS_22__hash_node_destructorINS_9allocatorIS8_EEEEEC1B7v160006IRS9_SD_EEOT_OT0_, symObjAddr: 0x8A3C, symBinAddr: 0x100009680, symSize: 0x3C }
  - { offsetInCU: 0x176DF, offset: 0x176DF, size: 0x8, addend: 0x0, symName: __ZNSt3__117__compressed_pairIPNS_11__hash_nodeINS_17__hash_value_typeIcPN4Trie8TrieNodeEEEPvEENS_22__hash_node_destructorINS_9allocatorIS8_EEEEEC2B7v160006IRS9_SD_EEOT_OT0_, symObjAddr: 0x8A78, symBinAddr: 0x1000096BC, symSize: 0x48 }
  - { offsetInCU: 0x17737, offset: 0x17737, size: 0x8, addend: 0x0, symName: __ZNSt3__122__compressed_pair_elemIPNS_11__hash_nodeINS_17__hash_value_typeIcPN4Trie8TrieNodeEEEPvEELi0ELb0EEC2B7v160006IRS9_vEEOT_, symObjAddr: 0x8AC0, symBinAddr: 0x100009704, symSize: 0x24 }
  - { offsetInCU: 0x17779, offset: 0x17779, size: 0x8, addend: 0x0, symName: __ZNSt3__122__compressed_pair_elemINS_22__hash_node_destructorINS_9allocatorINS_11__hash_nodeINS_17__hash_value_typeIcPN4Trie8TrieNodeEEEPvEEEEEELi1ELb0EEC2B7v160006ISC_vEEOT_, symObjAddr: 0x8AE4, symBinAddr: 0x100009728, symSize: 0x24 }
  - { offsetInCU: 0x177BB, offset: 0x177BB, size: 0x8, addend: 0x0, symName: __ZNSt3__14pairIKcPN4Trie8TrieNodeEEC1B7v160006IJRS1_EJEEENS_21piecewise_construct_tENS_5tupleIJDpT_EEENS9_IJDpT0_EEE, symObjAddr: 0x8B58, symBinAddr: 0x10000979C, symSize: 0x44 }
  - { offsetInCU: 0x17822, offset: 0x17822, size: 0x8, addend: 0x0, symName: __ZNSt3__14pairIKcPN4Trie8TrieNodeEEC1B7v160006IJRS1_EJEJLm0EEJEEENS_21piecewise_construct_tERNS_5tupleIJDpT_EEERNS9_IJDpT0_EEENS_15__tuple_indicesIJXspT1_EEEENSI_IJXspT2_EEEE, symObjAddr: 0x8B9C, symBinAddr: 0x1000097E0, symSize: 0x3C }
  - { offsetInCU: 0x178B2, offset: 0x178B2, size: 0x8, addend: 0x0, symName: __ZNSt3__14pairIKcPN4Trie8TrieNodeEEC2B7v160006IJRS1_EJEJLm0EEJEEENS_21piecewise_construct_tERNS_5tupleIJDpT_EEERNS9_IJDpT0_EEENS_15__tuple_indicesIJXspT1_EEEENSI_IJXspT2_EEEE, symObjAddr: 0x8BD8, symBinAddr: 0x10000981C, symSize: 0x48 }
  - { offsetInCU: 0x17942, offset: 0x17942, size: 0x8, addend: 0x0, symName: __ZNSt3__112__tuple_leafILm0ERKcLb0EE3getB7v160006Ev, symObjAddr: 0x8C44, symBinAddr: 0x100009888, symSize: 0x18 }
  - { offsetInCU: 0x17968, offset: 0x17968, size: 0x8, addend: 0x0, symName: __ZNSt3__117__compressed_pairIPNS_11__hash_nodeINS_17__hash_value_typeIcPN4Trie8TrieNodeEEEPvEENS_22__hash_node_destructorINS_9allocatorIS8_EEEEE6secondB7v160006Ev, symObjAddr: 0x8C5C, symBinAddr: 0x1000098A0, symSize: 0x28 }
  - { offsetInCU: 0x1798E, offset: 0x1798E, size: 0x8, addend: 0x0, symName: __ZNSt3__122__compressed_pair_elemINS_22__hash_node_destructorINS_9allocatorINS_11__hash_nodeINS_17__hash_value_typeIcPN4Trie8TrieNodeEEEPvEEEEEELi1ELb0EE5__getB7v160006Ev, symObjAddr: 0x8C84, symBinAddr: 0x1000098C8, symSize: 0x14 }
  - { offsetInCU: 0x179B4, offset: 0x179B4, size: 0x8, addend: 0x0, symName: __ZNSt3__117__compressed_pairImNS_22__unordered_map_hasherIcNS_17__hash_value_typeIcPN4Trie8TrieNodeEEENS_4hashIcEENS_8equal_toIcEELb1EEEE5firstB7v160006Ev, symObjAddr: 0x8C98, symBinAddr: 0x1000098DC, symSize: 0x24 }
  - { offsetInCU: 0x179DA, offset: 0x179DA, size: 0x8, addend: 0x0, symName: __ZNSt3__117__compressed_pairIfNS_21__unordered_map_equalIcNS_17__hash_value_typeIcPN4Trie8TrieNodeEEENS_8equal_toIcEENS_4hashIcEELb1EEEE5firstB7v160006Ev, symObjAddr: 0x8CBC, symBinAddr: 0x100009900, symSize: 0x24 }
  - { offsetInCU: 0x17A00, offset: 0x17A00, size: 0x8, addend: 0x0, symName: __ZNSt3__122__compressed_pair_elemIfLi0ELb0EE5__getB7v160006Ev, symObjAddr: 0x8CE0, symBinAddr: 0x100009924, symSize: 0x14 }
  - { offsetInCU: 0x17A26, offset: 0x17A26, size: 0x8, addend: 0x0, symName: __ZNSt3__112__hash_tableINS_17__hash_value_typeIcPN4Trie8TrieNodeEEENS_22__unordered_map_hasherIcS5_NS_4hashIcEENS_8equal_toIcEELb1EEENS_21__unordered_map_equalIcS5_SA_S8_Lb1EEENS_9allocatorIS5_EEE8__rehashILb1EEEvm, symObjAddr: 0x8CF4, symBinAddr: 0x100009938, symSize: 0x1A8 }
  - { offsetInCU: 0x17A76, offset: 0x17A76, size: 0x8, addend: 0x0, symName: __ZNSt3__112__hash_tableINS_17__hash_value_typeIcPN4Trie8TrieNodeEEENS_22__unordered_map_hasherIcS5_NS_4hashIcEENS_8equal_toIcEELb1EEENS_21__unordered_map_equalIcS5_SA_S8_Lb1EEENS_9allocatorIS5_EEE11__do_rehashILb1EEEvm, symObjAddr: 0x8E9C, symBinAddr: 0x100009AE0, symSize: 0x290 }
  - { offsetInCU: 0x17B59, offset: 0x17B59, size: 0x8, addend: 0x0, symName: __ZNSt3__110unique_ptrIA_PNS_16__hash_node_baseIPNS_11__hash_nodeINS_17__hash_value_typeIcPN4Trie8TrieNodeEEEPvEEEENS_25__bucket_list_deallocatorINS_9allocatorISC_EEEEE11get_deleterB7v160006Ev, symObjAddr: 0x91A8, symBinAddr: 0x100009DEC, symSize: 0x24 }
  - { offsetInCU: 0x17B7F, offset: 0x17B7F, size: 0x8, addend: 0x0, symName: __ZNSt3__125__bucket_list_deallocatorINS_9allocatorIPNS_16__hash_node_baseIPNS_11__hash_nodeINS_17__hash_value_typeIcPN4Trie8TrieNodeEEEPvEEEEEEE7__allocB7v160006Ev, symObjAddr: 0x91CC, symBinAddr: 0x100009E10, symSize: 0x24 }
  - { offsetInCU: 0x17BA5, offset: 0x17BA5, size: 0x8, addend: 0x0, symName: __ZNSt3__110unique_ptrIA_PNS_16__hash_node_baseIPNS_11__hash_nodeINS_17__hash_value_typeIcPN4Trie8TrieNodeEEEPvEEEENS_25__bucket_list_deallocatorINS_9allocatorISC_EEEEE5resetB7v160006IPSC_EENS_9enable_ifIXsr28_CheckArrayPointerConversionIT_EE5valueEvE4typeESM_, symObjAddr: 0x91F0, symBinAddr: 0x100009E34, symSize: 0x78 }
  - { offsetInCU: 0x17BF2, offset: 0x17BF2, size: 0x8, addend: 0x0, symName: __ZNSt3__116allocator_traitsINS_9allocatorIPNS_16__hash_node_baseIPNS_11__hash_nodeINS_17__hash_value_typeIcPN4Trie8TrieNodeEEEPvEEEEEEE8allocateB7v160006ERSE_m, symObjAddr: 0x9268, symBinAddr: 0x100009EAC, symSize: 0x2C }
  - { offsetInCU: 0x17C25, offset: 0x17C25, size: 0x8, addend: 0x0, symName: __ZNSt3__125__bucket_list_deallocatorINS_9allocatorIPNS_16__hash_node_baseIPNS_11__hash_nodeINS_17__hash_value_typeIcPN4Trie8TrieNodeEEEPvEEEEEEE4sizeB7v160006Ev, symObjAddr: 0x9294, symBinAddr: 0x100009ED8, symSize: 0x24 }
  - { offsetInCU: 0x17C4B, offset: 0x17C4B, size: 0x8, addend: 0x0, symName: __ZNSt3__117__compressed_pairIPPNS_16__hash_node_baseIPNS_11__hash_nodeINS_17__hash_value_typeIcPN4Trie8TrieNodeEEEPvEEEENS_25__bucket_list_deallocatorINS_9allocatorISC_EEEEE6secondB7v160006Ev, symObjAddr: 0x92B8, symBinAddr: 0x100009EFC, symSize: 0x28 }
  - { offsetInCU: 0x17C71, offset: 0x17C71, size: 0x8, addend: 0x0, symName: __ZNSt3__122__compressed_pair_elemINS_25__bucket_list_deallocatorINS_9allocatorIPNS_16__hash_node_baseIPNS_11__hash_nodeINS_17__hash_value_typeIcPN4Trie8TrieNodeEEEPvEEEEEEEELi1ELb0EE5__getB7v160006Ev, symObjAddr: 0x92E0, symBinAddr: 0x100009F24, symSize: 0x14 }
  - { offsetInCU: 0x17C97, offset: 0x17C97, size: 0x8, addend: 0x0, symName: __ZNSt3__117__compressed_pairImNS_9allocatorIPNS_16__hash_node_baseIPNS_11__hash_nodeINS_17__hash_value_typeIcPN4Trie8TrieNodeEEEPvEEEEEEE6secondB7v160006Ev, symObjAddr: 0x92F4, symBinAddr: 0x100009F38, symSize: 0x24 }
  - { offsetInCU: 0x17CBD, offset: 0x17CBD, size: 0x8, addend: 0x0, symName: __ZNSt3__122__compressed_pair_elemINS_9allocatorIPNS_16__hash_node_baseIPNS_11__hash_nodeINS_17__hash_value_typeIcPN4Trie8TrieNodeEEEPvEEEEEELi1ELb1EE5__getB7v160006Ev, symObjAddr: 0x9318, symBinAddr: 0x100009F5C, symSize: 0x14 }
  - { offsetInCU: 0x17CE3, offset: 0x17CE3, size: 0x8, addend: 0x0, symName: __ZNSt3__117__compressed_pairIPPNS_16__hash_node_baseIPNS_11__hash_nodeINS_17__hash_value_typeIcPN4Trie8TrieNodeEEEPvEEEENS_25__bucket_list_deallocatorINS_9allocatorISC_EEEEE5firstB7v160006Ev, symObjAddr: 0x932C, symBinAddr: 0x100009F70, symSize: 0x24 }
  - { offsetInCU: 0x17D09, offset: 0x17D09, size: 0x8, addend: 0x0, symName: __ZNSt3__125__bucket_list_deallocatorINS_9allocatorIPNS_16__hash_node_baseIPNS_11__hash_nodeINS_17__hash_value_typeIcPN4Trie8TrieNodeEEEPvEEEEEEEclB7v160006EPSD_, symObjAddr: 0x9350, symBinAddr: 0x100009F94, symSize: 0x58 }
  - { offsetInCU: 0x17D3E, offset: 0x17D3E, size: 0x8, addend: 0x0, symName: __ZNSt3__122__compressed_pair_elemIPPNS_16__hash_node_baseIPNS_11__hash_nodeINS_17__hash_value_typeIcPN4Trie8TrieNodeEEEPvEEEELi0ELb0EE5__getB7v160006Ev, symObjAddr: 0x93A8, symBinAddr: 0x100009FEC, symSize: 0x14 }
  - { offsetInCU: 0x17D64, offset: 0x17D64, size: 0x8, addend: 0x0, symName: __ZNSt3__116allocator_traitsINS_9allocatorIPNS_16__hash_node_baseIPNS_11__hash_nodeINS_17__hash_value_typeIcPN4Trie8TrieNodeEEEPvEEEEEEE10deallocateB7v160006ERSE_PSD_m, symObjAddr: 0x93BC, symBinAddr: 0x10000A000, symSize: 0x34 }
  - { offsetInCU: 0x17DA6, offset: 0x17DA6, size: 0x8, addend: 0x0, symName: __ZNSt3__19allocatorIPNS_16__hash_node_baseIPNS_11__hash_nodeINS_17__hash_value_typeIcPN4Trie8TrieNodeEEEPvEEEEE10deallocateB7v160006EPSC_m, symObjAddr: 0x93F0, symBinAddr: 0x10000A034, symSize: 0x40 }
  - { offsetInCU: 0x17DE8, offset: 0x17DE8, size: 0x8, addend: 0x0, symName: __ZNSt3__19allocatorIPNS_16__hash_node_baseIPNS_11__hash_nodeINS_17__hash_value_typeIcPN4Trie8TrieNodeEEEPvEEEEE8allocateB7v160006Em, symObjAddr: 0x9430, symBinAddr: 0x10000A074, symSize: 0x58 }
  - { offsetInCU: 0x17E27, offset: 0x17E27, size: 0x8, addend: 0x0, symName: __ZNSt3__116allocator_traitsINS_9allocatorIPNS_16__hash_node_baseIPNS_11__hash_nodeINS_17__hash_value_typeIcPN4Trie8TrieNodeEEEPvEEEEEEE8max_sizeB7v160006ISE_vvEEmRKSE_, symObjAddr: 0x9488, symBinAddr: 0x10000A0CC, symSize: 0x28 }
  - { offsetInCU: 0x17E53, offset: 0x17E53, size: 0x8, addend: 0x0, symName: __ZNSt3__117__compressed_pairImNS_9allocatorIPNS_16__hash_node_baseIPNS_11__hash_nodeINS_17__hash_value_typeIcPN4Trie8TrieNodeEEEPvEEEEEEE5firstB7v160006Ev, symObjAddr: 0x94B0, symBinAddr: 0x10000A0F4, symSize: 0x24 }
  - { offsetInCU: 0x17E79, offset: 0x17E79, size: 0x8, addend: 0x0, symName: __ZNSt3__122__compressed_pair_elemINS_16__hash_node_baseIPNS_11__hash_nodeINS_17__hash_value_typeIcPN4Trie8TrieNodeEEEPvEEEELi0ELb0EE5__getB7v160006Ev, symObjAddr: 0x9544, symBinAddr: 0x10000A188, symSize: 0x14 }
  - { offsetInCU: 0x17E9F, offset: 0x17E9F, size: 0x8, addend: 0x0, symName: __ZNKSt3__117__compressed_pairIPNS_11__hash_nodeINS_17__hash_value_typeIcPN4Trie8TrieNodeEEEPvEENS_22__hash_node_destructorINS_9allocatorIS8_EEEEE5firstB7v160006Ev, symObjAddr: 0x9558, symBinAddr: 0x10000A19C, symSize: 0x24 }
  - { offsetInCU: 0x17EC5, offset: 0x17EC5, size: 0x8, addend: 0x0, symName: __ZNKSt3__122__compressed_pair_elemIPNS_11__hash_nodeINS_17__hash_value_typeIcPN4Trie8TrieNodeEEEPvEELi0ELb0EE5__getB7v160006Ev, symObjAddr: 0x957C, symBinAddr: 0x10000A1C0, symSize: 0x14 }
  - { offsetInCU: 0x17EEB, offset: 0x17EEB, size: 0x8, addend: 0x0, symName: __ZNSt3__117__compressed_pairIPNS_11__hash_nodeINS_17__hash_value_typeIcPN4Trie8TrieNodeEEEPvEENS_22__hash_node_destructorINS_9allocatorIS8_EEEEE5firstB7v160006Ev, symObjAddr: 0x9590, symBinAddr: 0x10000A1D4, symSize: 0x24 }
  - { offsetInCU: 0x17F11, offset: 0x17F11, size: 0x8, addend: 0x0, symName: __ZNSt3__122__compressed_pair_elemIPNS_11__hash_nodeINS_17__hash_value_typeIcPN4Trie8TrieNodeEEEPvEELi0ELb0EE5__getB7v160006Ev, symObjAddr: 0x95B4, symBinAddr: 0x10000A1F8, symSize: 0x14 }
  - { offsetInCU: 0x17F37, offset: 0x17F37, size: 0x8, addend: 0x0, symName: __ZNSt3__110unique_ptrINS_11__hash_nodeINS_17__hash_value_typeIcPN4Trie8TrieNodeEEEPvEENS_22__hash_node_destructorINS_9allocatorIS8_EEEEED2B7v160006Ev, symObjAddr: 0x95C8, symBinAddr: 0x10000A20C, symSize: 0x30 }
  - { offsetInCU: 0x17F61, offset: 0x17F61, size: 0x8, addend: 0x0, symName: __ZNSt3__110unique_ptrINS_11__hash_nodeINS_17__hash_value_typeIcPN4Trie8TrieNodeEEEPvEENS_22__hash_node_destructorINS_9allocatorIS8_EEEEE5resetB7v160006EPS8_, symObjAddr: 0x95F8, symBinAddr: 0x10000A23C, symSize: 0x78 }
  - { offsetInCU: 0x17FA5, offset: 0x17FA5, size: 0x8, addend: 0x0, symName: __ZNSt3__122__hash_node_destructorINS_9allocatorINS_11__hash_nodeINS_17__hash_value_typeIcPN4Trie8TrieNodeEEEPvEEEEEclB7v160006EPS9_, symObjAddr: 0x9670, symBinAddr: 0x10000A2B4, symSize: 0x98 }
  - { offsetInCU: 0x17FDA, offset: 0x17FDA, size: 0x8, addend: 0x0, symName: __ZNSt3__116allocator_traitsINS_9allocatorINS_11__hash_nodeINS_17__hash_value_typeIcPN4Trie8TrieNodeEEEPvEEEEE7destroyB7v160006INS_4pairIKcS6_EEvvEEvRSA_PT_, symObjAddr: 0x9708, symBinAddr: 0x10000A34C, symSize: 0x28 }
  - { offsetInCU: 0x18015, offset: 0x18015, size: 0x8, addend: 0x0, symName: __ZNSt3__116allocator_traitsINS_9allocatorINS_11__hash_nodeINS_17__hash_value_typeIcPN4Trie8TrieNodeEEEPvEEEEE10deallocateB7v160006ERSA_PS9_m, symObjAddr: 0x9730, symBinAddr: 0x10000A374, symSize: 0x34 }
  - { offsetInCU: 0x18057, offset: 0x18057, size: 0x8, addend: 0x0, symName: __ZNSt3__19allocatorINS_11__hash_nodeINS_17__hash_value_typeIcPN4Trie8TrieNodeEEEPvEEE10deallocateB7v160006EPS8_m, symObjAddr: 0x9798, symBinAddr: 0x10000A3DC, symSize: 0x40 }
  - { offsetInCU: 0x18099, offset: 0x18099, size: 0x8, addend: 0x0, symName: __ZNSt3__115__hash_iteratorIPNS_11__hash_nodeINS_17__hash_value_typeIcPN4Trie8TrieNodeEEEPvEEEC2B7v160006EPNS_16__hash_node_baseIS9_EEPKv, symObjAddr: 0x97D8, symBinAddr: 0x10000A41C, symSize: 0x24 }
  - { offsetInCU: 0x180E1, offset: 0x180E1, size: 0x8, addend: 0x0, symName: __ZNSt3__14pairINS_15__hash_iteratorIPNS_11__hash_nodeINS_17__hash_value_typeIcPN4Trie8TrieNodeEEEPvEEEEbEC2B7v160006ISB_RbLS8_0EEEOT_OT0_, symObjAddr: 0x97FC, symBinAddr: 0x10000A440, symSize: 0x38 }
  - { offsetInCU: 0x1813F, offset: 0x1813F, size: 0x8, addend: 0x0, symName: __ZNSt3__15tupleIJRKcEEC1B7v160006INS_4_AndELi0EEES2_, symObjAddr: 0x9834, symBinAddr: 0x10000A478, symSize: 0x34 }
  - { offsetInCU: 0x18187, offset: 0x18187, size: 0x8, addend: 0x0, symName: __ZNSt3__15tupleIJRKcEEC2B7v160006INS_4_AndELi0EEES2_, symObjAddr: 0x9868, symBinAddr: 0x10000A4AC, symSize: 0x34 }
  - { offsetInCU: 0x181CF, offset: 0x181CF, size: 0x8, addend: 0x0, symName: __ZNSt3__112__tuple_implINS_15__tuple_indicesIJLm0EEEEJRKcEEC1B7v160006IJLm0EEJS4_EJEJEJS4_EEENS1_IJXspT_EEEENS_13__tuple_typesIJDpT0_EEENS1_IJXspT1_EEEENS8_IJDpT2_EEEDpOT3_, symObjAddr: 0x989C, symBinAddr: 0x10000A4E0, symSize: 0x34 }
  - { offsetInCU: 0x18264, offset: 0x18264, size: 0x8, addend: 0x0, symName: __ZNSt3__112__tuple_implINS_15__tuple_indicesIJLm0EEEEJRKcEEC2B7v160006IJLm0EEJS4_EJEJEJS4_EEENS1_IJXspT_EEEENS_13__tuple_typesIJDpT0_EEENS1_IJXspT1_EEEENS8_IJDpT2_EEEDpOT3_, symObjAddr: 0x98D0, symBinAddr: 0x10000A514, symSize: 0x34 }
  - { offsetInCU: 0x182F9, offset: 0x182F9, size: 0x8, addend: 0x0, symName: __ZNSt3__112__tuple_leafILm0ERKcLb0EEC2B7v160006IS2_vEEOT_, symObjAddr: 0x9904, symBinAddr: 0x10000A548, symSize: 0x20 }
  - { offsetInCU: 0x1833C, offset: 0x1833C, size: 0x8, addend: 0x0, symName: __ZNSt3__114pointer_traitsIPNS_17__hash_value_typeIcPN4Trie8TrieNodeEEEE10pointer_toB7v160006ERS5_, symObjAddr: 0x9924, symBinAddr: 0x10000A568, symSize: 0x14 }
  - { offsetInCU: 0x1835F, offset: 0x1835F, size: 0x8, addend: 0x0, symName: __ZNSt3__16vectorIbNS_9allocatorIbEEE10__make_refB7v160006Em, symObjAddr: 0x9970, symBinAddr: 0x10000A5B4, symSize: 0x60 }
  - { offsetInCU: 0x18394, offset: 0x18394, size: 0x8, addend: 0x0, symName: __ZNSt3__16vectorIbNS_9allocatorIbEEED2B7v160006Ev, symObjAddr: 0x99D0, symBinAddr: 0x10000A614, symSize: 0x44 }
  - { offsetInCU: 0x183BE, offset: 0x183BE, size: 0x8, addend: 0x0, symName: __ZNSt3__16vectorIbNS_9allocatorIbEEE16__destroy_vectorC1ERS3_, symObjAddr: 0x9A14, symBinAddr: 0x10000A658, symSize: 0x34 }
  - { offsetInCU: 0x183F7, offset: 0x183F7, size: 0x8, addend: 0x0, symName: __ZNSt3__16vectorIbNS_9allocatorIbEEE16__destroy_vectorclB7v160006Ev, symObjAddr: 0x9A48, symBinAddr: 0x10000A68C, symSize: 0x84 }
  - { offsetInCU: 0x1841D, offset: 0x1841D, size: 0x8, addend: 0x0, symName: __ZNSt3__16vectorIbNS_9allocatorIbEEE16__destroy_vectorC2ERS3_, symObjAddr: 0x9ACC, symBinAddr: 0x10000A710, symSize: 0x20 }
  - { offsetInCU: 0x18456, offset: 0x18456, size: 0x8, addend: 0x0, symName: __ZNSt3__116allocator_traitsINS_9allocatorImEEE10deallocateB7v160006ERS2_Pmm, symObjAddr: 0x9AEC, symBinAddr: 0x10000A730, symSize: 0x34 }
  - { offsetInCU: 0x18498, offset: 0x18498, size: 0x8, addend: 0x0, symName: __ZNSt3__19allocatorImE10deallocateB7v160006EPmm, symObjAddr: 0x9B30, symBinAddr: 0x10000A774, symSize: 0x40 }
  - { offsetInCU: 0x184DA, offset: 0x184DA, size: 0x8, addend: 0x0, symName: __ZNSt3__16vectorINS_4pairINS_12basic_stringIcNS_11char_traitsIcEENS_9allocatorIcEEEENS0_IS7_NS5_IS7_EEEEEENS5_ISA_EEED2B7v160006Ev, symObjAddr: 0x9B70, symBinAddr: 0x10000A7B4, symSize: 0x44 }
  - { offsetInCU: 0x18525, offset: 0x18525, size: 0x8, addend: 0x0, symName: __ZNKSt3__113basic_ostreamIcNS_11char_traitsIcEEE6sentrycvbB7v160006Ev, symObjAddr: 0x9DA0, symBinAddr: 0x10000A9E4, symSize: 0x1C }
  - { offsetInCU: 0x1854B, offset: 0x1854B, size: 0x8, addend: 0x0, symName: __ZNSt3__119ostreambuf_iteratorIcNS_11char_traitsIcEEEC1B7v160006ERNS_13basic_ostreamIcS2_EE, symObjAddr: 0x9FFC, symBinAddr: 0x10000AC40, symSize: 0x34 }
  - { offsetInCU: 0x18583, offset: 0x18583, size: 0x8, addend: 0x0, symName: __ZNKSt3__18ios_base5flagsB7v160006Ev, symObjAddr: 0xA030, symBinAddr: 0x10000AC74, symSize: 0x18 }
  - { offsetInCU: 0x185AB, offset: 0x185AB, size: 0x8, addend: 0x0, symName: __ZNKSt3__19basic_iosIcNS_11char_traitsIcEEE4fillB7v160006Ev, symObjAddr: 0xA048, symBinAddr: 0x10000AC8C, symSize: 0x64 }
  - { offsetInCU: 0x185D3, offset: 0x185D3, size: 0x8, addend: 0x0, symName: __ZNKSt3__119ostreambuf_iteratorIcNS_11char_traitsIcEEE6failedB7v160006Ev, symObjAddr: 0xA0AC, symBinAddr: 0x10000ACF0, symSize: 0x24 }
  - { offsetInCU: 0x185F9, offset: 0x185F9, size: 0x8, addend: 0x0, symName: __ZNSt3__19basic_iosIcNS_11char_traitsIcEEE8setstateB7v160006Ej, symObjAddr: 0xA0D0, symBinAddr: 0x10000AD14, symSize: 0x2C }
  - { offsetInCU: 0x1862E, offset: 0x1862E, size: 0x8, addend: 0x0, symName: __ZNKSt3__18ios_base5widthB7v160006Ev, symObjAddr: 0xA0FC, symBinAddr: 0x10000AD40, symSize: 0x18 }
  - { offsetInCU: 0x18656, offset: 0x18656, size: 0x8, addend: 0x0, symName: __ZNSt3__115basic_streambufIcNS_11char_traitsIcEEE5sputnB7v160006EPKcl, symObjAddr: 0xA114, symBinAddr: 0x10000AD58, symSize: 0x3C }
  - { offsetInCU: 0x18698, offset: 0x18698, size: 0x8, addend: 0x0, symName: __ZNSt3__112basic_stringIcNS_11char_traitsIcEENS_9allocatorIcEEEC1B7v160006Emc, symObjAddr: 0xA150, symBinAddr: 0x10000AD94, symSize: 0x3C }
  - { offsetInCU: 0x186E0, offset: 0x186E0, size: 0x8, addend: 0x0, symName: __ZNSt3__112basic_stringIcNS_11char_traitsIcEENS_9allocatorIcEEE4dataB7v160006Ev, symObjAddr: 0xA18C, symBinAddr: 0x10000ADD0, symSize: 0x28 }
  - { offsetInCU: 0x18706, offset: 0x18706, size: 0x8, addend: 0x0, symName: __ZNSt3__18ios_base5widthB7v160006El, symObjAddr: 0xA1B4, symBinAddr: 0x10000ADF8, symSize: 0x2C }
  - { offsetInCU: 0x1874C, offset: 0x1874C, size: 0x8, addend: 0x0, symName: __ZNSt3__112basic_stringIcNS_11char_traitsIcEENS_9allocatorIcEEEC2B7v160006Emc, symObjAddr: 0xA1E0, symBinAddr: 0x10000AE24, symSize: 0x54 }
  - { offsetInCU: 0x18794, offset: 0x18794, size: 0x8, addend: 0x0, symName: __ZNSt3__119ostreambuf_iteratorIcNS_11char_traitsIcEEEC2B7v160006ERNS_13basic_ostreamIcS2_EE, symObjAddr: 0xA248, symBinAddr: 0x10000AE8C, symSize: 0x54 }
  - { offsetInCU: 0x187CC, offset: 0x187CC, size: 0x8, addend: 0x0, symName: __ZNKSt3__19basic_iosIcNS_11char_traitsIcEEE5rdbufB7v160006Ev, symObjAddr: 0xA29C, symBinAddr: 0x10000AEE0, symSize: 0x24 }
  - { offsetInCU: 0x187F4, offset: 0x187F4, size: 0x8, addend: 0x0, symName: __ZNKSt3__18ios_base5rdbufB7v160006Ev, symObjAddr: 0xA2C0, symBinAddr: 0x10000AF04, symSize: 0x18 }
  - { offsetInCU: 0x1881A, offset: 0x1881A, size: 0x8, addend: 0x0, symName: __ZNSt3__111char_traitsIcE11eq_int_typeEii, symObjAddr: 0xA2D8, symBinAddr: 0x10000AF1C, symSize: 0x28 }
  - { offsetInCU: 0x1884B, offset: 0x1884B, size: 0x8, addend: 0x0, symName: __ZNSt3__111char_traitsIcE3eofEv, symObjAddr: 0xA300, symBinAddr: 0x10000AF44, symSize: 0x8 }
  - { offsetInCU: 0x1885F, offset: 0x1885F, size: 0x8, addend: 0x0, symName: __ZNKSt3__19basic_iosIcNS_11char_traitsIcEEE5widenB7v160006Ec, symObjAddr: 0xA308, symBinAddr: 0x10000AF4C, symSize: 0x84 }
  - { offsetInCU: 0x188CD, offset: 0x188CD, size: 0x8, addend: 0x0, symName: __ZNKSt3__15ctypeIcE5widenB7v160006Ec, symObjAddr: 0xA3B8, symBinAddr: 0x10000AFFC, symSize: 0x38 }
  - { offsetInCU: 0x18902, offset: 0x18902, size: 0x8, addend: 0x0, symName: __ZNSt3__18ios_base8setstateB7v160006Ej, symObjAddr: 0xA3F0, symBinAddr: 0x10000B034, symSize: 0x34 }
...
